(dp1
S'train_acc'
p2
(lp3
cnumpy.core.multiarray
_reconstruct
p4
(cnumpy
ndarray
p5
(I0
tS'b'
tRp6
(I1
(tcnumpy
dtype
p7
(S'f4'
I0
I1
tRp8
(I3
S'<'
NNNI-1
I-1
I0
tbI00
S'\x90\xc2\xf5>'
tbag4
(g5
(I0
tS'b'
tRp9
(I1
(tg8
I00
S'\xebQ\xb8>'
tbag4
(g5
(I0
tS'b'
tRp10
(I1
(tg8
I00
S')\\\x0f?'
tbag4
(g5
(I0
tS'b'
tRp11
(I1
(tg8
I00
S')\\\x0f?'
tbag4
(g5
(I0
tS'b'
tRp12
(I1
(tg8
I00
S'\x90\xc2u>'
tbag4
(g5
(I0
tS'b'
tRp13
(I1
(tg8
I00
S'\xcd\xccL>'
tbag4
(g5
(I0
tS'b'
tRp14
(I1
(tg8
I00
S'\n\xd7#>'
tbag4
(g5
(I0
tS'b'
tRp15
(I1
(tg8
I00
S'\xb8\x1e\x05?'
tbag4
(g5
(I0
tS'b'
tRp16
(I1
(tg8
I00
S'\xaeG\xe1>'
tbag4
(g5
(I0
tS'b'
tRp17
(I1
(tg8
I00
S'\x90\xc2\xf5>'
tbag4
(g5
(I0
tS'b'
tRp18
(I1
(tg8
I00
S'\x9a\x99\x19?'
tbag4
(g5
(I0
tS'b'
tRp19
(I1
(tg8
I00
S'\xebQ\xb8>'
tbag4
(g5
(I0
tS'b'
tRp20
(I1
(tg8
I00
S'\x90\xc2\xf5>'
tbag4
(g5
(I0
tS'b'
tRp21
(I1
(tg8
I00
S'\x90\xc2\xf5>'
tbag4
(g5
(I0
tS'b'
tRp22
(I1
(tg8
I00
S'\x90\xc2\xf5>'
tbag4
(g5
(I0
tS'b'
tRp23
(I1
(tg8
I00
S'\x9a\x99\x19?'
tbag4
(g5
(I0
tS'b'
tRp24
(I1
(tg8
I00
S'\x90\xc2\xf5>'
tbag4
(g5
(I0
tS'b'
tRp25
(I1
(tg8
I00
S'\x90\xc2\xf5>'
tbag4
(g5
(I0
tS'b'
tRp26
(I1
(tg8
I00
S'\xebQ\xb8>'
tbag4
(g5
(I0
tS'b'
tRp27
(I1
(tg8
I00
S'\x90\xc2u>'
tbag4
(g5
(I0
tS'b'
tRp28
(I1
(tg8
I00
S'\x90\xc2\xf5>'
tbag4
(g5
(I0
tS'b'
tRp29
(I1
(tg8
I00
S'\xebQ\xb8>'
tbag4
(g5
(I0
tS'b'
tRp30
(I1
(tg8
I00
S'\xb8\x1e\x05?'
tbag4
(g5
(I0
tS'b'
tRp31
(I1
(tg8
I00
S'\xb8\x1e\x05?'
tbag4
(g5
(I0
tS'b'
tRp32
(I1
(tg8
I00
S'\xb8\x1e\x05?'
tbag4
(g5
(I0
tS'b'
tRp33
(I1
(tg8
I00
S'\xb8\x1e\x05?'
tbag4
(g5
(I0
tS'b'
tRp34
(I1
(tg8
I00
S'\xaeG\xe1>'
tbag4
(g5
(I0
tS'b'
tRp35
(I1
(tg8
I00
S'\xaeG\xe1>'
tbag4
(g5
(I0
tS'b'
tRp36
(I1
(tg8
I00
S'\xaeG\xe1>'
tbag4
(g5
(I0
tS'b'
tRp37
(I1
(tg8
I00
S'\xb8\x1e\x05?'
tbag4
(g5
(I0
tS'b'
tRp38
(I1
(tg8
I00
S'\x9a\x99\x19?'
tbag4
(g5
(I0
tS'b'
tRp39
(I1
(tg8
I00
S'\x9a\x99\x19?'
tbag4
(g5
(I0
tS'b'
tRp40
(I1
(tg8
I00
S'\xaeG\xe1>'
tbag4
(g5
(I0
tS'b'
tRp41
(I1
(tg8
I00
S'\xb8\x1e\x05?'
tbag4
(g5
(I0
tS'b'
tRp42
(I1
(tg8
I00
S'\x9a\x99\x19?'
tbag4
(g5
(I0
tS'b'
tRp43
(I1
(tg8
I00
S'\xaeG\xe1>'
tbag4
(g5
(I0
tS'b'
tRp44
(I1
(tg8
I00
S'\\\x8fB?'
tbag4
(g5
(I0
tS'b'
tRp45
(I1
(tg8
I00
S'\x9a\x99\x19?'
tbag4
(g5
(I0
tS'b'
tRp46
(I1
(tg8
I00
S'\x90\xc2\xf5>'
tbag4
(g5
(I0
tS'b'
tRp47
(I1
(tg8
I00
S'\x9a\x99\x19?'
tbasS'train_loss'
p48
(lp49
g4
(g5
(I0
tS'b'
tRp50
(I1
(tg8
I00
S'\xc2\x8f\xb9?'
tbag4
(g5
(I0
tS'b'
tRp51
(I1
(tg8
I00
S'&K\xc8?'
tbag4
(g5
(I0
tS'b'
tRp52
(I1
(tg8
I00
S'K~\xa6?'
tbag4
(g5
(I0
tS'b'
tRp53
(I1
(tg8
I00
S'\xbbb\x9f?'
tbag4
(g5
(I0
tS'b'
tRp54
(I1
(tg8
I00
S'\x1d\x16\xd8?'
tbag4
(g5
(I0
tS'b'
tRp55
(I1
(tg8
I00
S'\x9b\x86\xd7?'
tbag4
(g5
(I0
tS'b'
tRp56
(I1
(tg8
I00
S':\x88\xd7?'
tbag4
(g5
(I0
tS'b'
tRp57
(I1
(tg8
I00
S'\x08J\x93?'
tbag4
(g5
(I0
tS'b'
tRp58
(I1
(tg8
I00
S'd\xa7\x9e?'
tbag4
(g5
(I0
tS'b'
tRp59
(I1
(tg8
I00
S'O\xdb\xa1?'
tbag4
(g5
(I0
tS'b'
tRp60
(I1
(tg8
I00
S'\x1c\x82\x91?'
tbag4
(g5
(I0
tS'b'
tRp61
(I1
(tg8
I00
S'/d\xb4?'
tbag4
(g5
(I0
tS'b'
tRp62
(I1
(tg8
I00
S';\xc6\xa0?'
tbag4
(g5
(I0
tS'b'
tRp63
(I1
(tg8
I00
S'\n\xaa\xa3?'
tbag4
(g5
(I0
tS'b'
tRp64
(I1
(tg8
I00
S'\x1d\r\x9a?'
tbag4
(g5
(I0
tS'b'
tRp65
(I1
(tg8
I00
S'\xc7h\x87?'
tbag4
(g5
(I0
tS'b'
tRp66
(I1
(tg8
I00
S's\x08\x8f?'
tbag4
(g5
(I0
tS'b'
tRp67
(I1
(tg8
I00
S'\xfe\xe2\x95?'
tbag4
(g5
(I0
tS'b'
tRp68
(I1
(tg8
I00
S'\xdd\xbc\xb4?'
tbag4
(g5
(I0
tS'b'
tRp69
(I1
(tg8
I00
S'\x07^\xc4?'
tbag4
(g5
(I0
tS'b'
tRp70
(I1
(tg8
I00
S'7,\xa2?'
tbag4
(g5
(I0
tS'b'
tRp71
(I1
(tg8
I00
S'\x0f\x8e\x9f?'
tbag4
(g5
(I0
tS'b'
tRp72
(I1
(tg8
I00
S'/\x1d\x98?'
tbag4
(g5
(I0
tS'b'
tRp73
(I1
(tg8
I00
S'JJ\xa2?'
tbag4
(g5
(I0
tS'b'
tRp74
(I1
(tg8
I00
S'*\xf8\x9b?'
tbag4
(g5
(I0
tS'b'
tRp75
(I1
(tg8
I00
S'\xd8\x9e\x9a?'
tbag4
(g5
(I0
tS'b'
tRp76
(I1
(tg8
I00
S'H\xbb\x9c?'
tbag4
(g5
(I0
tS'b'
tRp77
(I1
(tg8
I00
S'\xbb\xab\xa0?'
tbag4
(g5
(I0
tS'b'
tRp78
(I1
(tg8
I00
S'\x91E\xa6?'
tbag4
(g5
(I0
tS'b'
tRp79
(I1
(tg8
I00
S'\xfaL\x8e?'
tbag4
(g5
(I0
tS'b'
tRp80
(I1
(tg8
I00
S'{\xb6j?'
tbag4
(g5
(I0
tS'b'
tRp81
(I1
(tg8
I00
S'=X\x81?'
tbag4
(g5
(I0
tS'b'
tRp82
(I1
(tg8
I00
S'\xe9)\xaa?'
tbag4
(g5
(I0
tS'b'
tRp83
(I1
(tg8
I00
S'\x02\xf4\x87?'
tbag4
(g5
(I0
tS'b'
tRp84
(I1
(tg8
I00
S'\x05\xb1\x82?'
tbag4
(g5
(I0
tS'b'
tRp85
(I1
(tg8
I00
S's\x16\x99?'
tbag4
(g5
(I0
tS'b'
tRp86
(I1
(tg8
I00
S'\xc7_k?'
tbag4
(g5
(I0
tS'b'
tRp87
(I1
(tg8
I00
S'\xff\xa5\x90?'
tbag4
(g5
(I0
tS'b'
tRp88
(I1
(tg8
I00
S'\x18\xa5\x97?'
tbag4
(g5
(I0
tS'b'
tRp89
(I1
(tg8
I00
S'\x82\x90\x87?'
tbasS'val_acc'
p90
(lp91
cnumpy.core.multiarray
scalar
p92
(g7
(S'f8'
I0
I1
tRp93
(I3
S'<'
NNNI-1
I-1
I0
tbS'\xe9\xa2\x8bN\t\xf2\xe4?'
tRp94
asS'val_loss'
p95
(lp96
g92
(g93
S'\xa3\x8b.\x1a\x8c\x1c\xef?'
tRp97
as.