(dp1
S'train_acc'
p2
(lp3
cnumpy.core.multiarray
_reconstruct
p4
(cnumpy
ndarray
p5
(I0
tS'b'
tRp6
(I1
(tcnumpy
dtype
p7
(S'f4'
I0
I1
tRp8
(I3
S'<'
NNNI-1
I-1
I0
tbI00
S'(\x99V;'
tbag4
(g5
(I0
tS'b'
tRp9
(I1
(tg8
I00
S'\xbag\xaf;'
tbag4
(g5
(I0
tS'b'
tRp10
(I1
(tg8
I00
S'\x04Ak?'
tbag4
(g5
(I0
tS'b'
tRp11
(I1
(tg8
I00
S'\xd5\xe86?'
tbag4
(g5
(I0
tS'b'
tRp12
(I1
(tg8
I00
S'\x14\x1e\xf5<'
tbag4
(g5
(I0
tS'b'
tRp13
(I1
(tg8
I00
S'\xe0\xacy?'
tbag4
(g5
(I0
tS'b'
tRp14
(I1
(tg8
I00
S'0\x8c{?'
tbag4
(g5
(I0
tS'b'
tRp15
(I1
(tg8
I00
S'\xb3\xfa{?'
tbag4
(g5
(I0
tS'b'
tRp16
(I1
(tg8
I00
S'\x1a.|?'
tbag4
(g5
(I0
tS'b'
tRp17
(I1
(tg8
I00
S'\xc4\x86|?'
tbag4
(g5
(I0
tS'b'
tRp18
(I1
(tg8
I00
S'\x96\xd2|?'
tbag4
(g5
(I0
tS'b'
tRp19
(I1
(tg8
I00
S'\x91\xf6|?'
tbag4
(g5
(I0
tS'b'
tRp20
(I1
(tg8
I00
S'\x8d\x11}?'
tbag4
(g5
(I0
tS'b'
tRp21
(I1
(tg8
I00
S'c0}?'
tbag4
(g5
(I0
tS'b'
tRp22
(I1
(tg8
I00
S'\x85G}?'
tbag4
(g5
(I0
tS'b'
tRp23
(I1
(tg8
I00
S'\xef_}?'
tbag4
(g5
(I0
tS'b'
tRp24
(I1
(tg8
I00
S'\xeeh}?'
tbag4
(g5
(I0
tS'b'
tRp25
(I1
(tg8
I00
S'\x11w}?'
tbag4
(g5
(I0
tS'b'
tRp26
(I1
(tg8
I00
S'}}}?'
tbag4
(g5
(I0
tS'b'
tRp27
(I1
(tg8
I00
S'4|}?'
tbag4
(g5
(I0
tS'b'
tRp28
(I1
(tg8
I00
S'\xecz}?'
tbag4
(g5
(I0
tS'b'
tRp29
(I1
(tg8
I00
S'}}}?'
tbag4
(g5
(I0
tS'b'
tRp30
(I1
(tg8
I00
S'}}}?'
tbag4
(g5
(I0
tS'b'
tRp31
(I1
(tg8
I00
S'}}}?'
tbag4
(g5
(I0
tS'b'
tRp32
(I1
(tg8
I00
S'}}}?'
tbag4
(g5
(I0
tS'b'
tRp33
(I1
(tg8
I00
S'}}}?'
tbag4
(g5
(I0
tS'b'
tRp34
(I1
(tg8
I00
S'}}}?'
tbag4
(g5
(I0
tS'b'
tRp35
(I1
(tg8
I00
S'}}}?'
tbag4
(g5
(I0
tS'b'
tRp36
(I1
(tg8
I00
S'}}}?'
tbag4
(g5
(I0
tS'b'
tRp37
(I1
(tg8
I00
S'}}}?'
tbag4
(g5
(I0
tS'b'
tRp38
(I1
(tg8
I00
S'}}}?'
tbag4
(g5
(I0
tS'b'
tRp39
(I1
(tg8
I00
S'}}}?'
tbag4
(g5
(I0
tS'b'
tRp40
(I1
(tg8
I00
S'}}}?'
tbag4
(g5
(I0
tS'b'
tRp41
(I1
(tg8
I00
S'}}}?'
tbag4
(g5
(I0
tS'b'
tRp42
(I1
(tg8
I00
S'}}}?'
tbag4
(g5
(I0
tS'b'
tRp43
(I1
(tg8
I00
S'}}}?'
tbag4
(g5
(I0
tS'b'
tRp44
(I1
(tg8
I00
S'}}}?'
tbag4
(g5
(I0
tS'b'
tRp45
(I1
(tg8
I00
S'}}}?'
tbag4
(g5
(I0
tS'b'
tRp46
(I1
(tg8
I00
S'}}}?'
tbag4
(g5
(I0
tS'b'
tRp47
(I1
(tg8
I00
S'}}}?'
tbag4
(g5
(I0
tS'b'
tRp48
(I1
(tg8
I00
S'}}}?'
tbag4
(g5
(I0
tS'b'
tRp49
(I1
(tg8
I00
S'}}}?'
tbag4
(g5
(I0
tS'b'
tRp50
(I1
(tg8
I00
S'}}}?'
tbag4
(g5
(I0
tS'b'
tRp51
(I1
(tg8
I00
S'}}}?'
tbag4
(g5
(I0
tS'b'
tRp52
(I1
(tg8
I00
S'}}}?'
tbag4
(g5
(I0
tS'b'
tRp53
(I1
(tg8
I00
S'}}}?'
tbag4
(g5
(I0
tS'b'
tRp54
(I1
(tg8
I00
S'}}}?'
tbag4
(g5
(I0
tS'b'
tRp55
(I1
(tg8
I00
S'}}}?'
tbag4
(g5
(I0
tS'b'
tRp56
(I1
(tg8
I00
S'}}}?'
tbag4
(g5
(I0
tS'b'
tRp57
(I1
(tg8
I00
S'}}}?'
tbag4
(g5
(I0
tS'b'
tRp58
(I1
(tg8
I00
S'}}}?'
tbag4
(g5
(I0
tS'b'
tRp59
(I1
(tg8
I00
S'}}}?'
tbag4
(g5
(I0
tS'b'
tRp60
(I1
(tg8
I00
S'}}}?'
tbag4
(g5
(I0
tS'b'
tRp61
(I1
(tg8
I00
S'}}}?'
tbag4
(g5
(I0
tS'b'
tRp62
(I1
(tg8
I00
S'}}}?'
tbag4
(g5
(I0
tS'b'
tRp63
(I1
(tg8
I00
S'}}}?'
tbag4
(g5
(I0
tS'b'
tRp64
(I1
(tg8
I00
S'}}}?'
tbag4
(g5
(I0
tS'b'
tRp65
(I1
(tg8
I00
S'}}}?'
tbag4
(g5
(I0
tS'b'
tRp66
(I1
(tg8
I00
S'}}}?'
tbag4
(g5
(I0
tS'b'
tRp67
(I1
(tg8
I00
S'}}}?'
tbag4
(g5
(I0
tS'b'
tRp68
(I1
(tg8
I00
S'}}}?'
tbag4
(g5
(I0
tS'b'
tRp69
(I1
(tg8
I00
S'}}}?'
tbag4
(g5
(I0
tS'b'
tRp70
(I1
(tg8
I00
S'}}}?'
tbag4
(g5
(I0
tS'b'
tRp71
(I1
(tg8
I00
S'}}}?'
tbag4
(g5
(I0
tS'b'
tRp72
(I1
(tg8
I00
S'}}}?'
tbag4
(g5
(I0
tS'b'
tRp73
(I1
(tg8
I00
S'}}}?'
tbag4
(g5
(I0
tS'b'
tRp74
(I1
(tg8
I00
S'}}}?'
tbag4
(g5
(I0
tS'b'
tRp75
(I1
(tg8
I00
S'}}}?'
tbag4
(g5
(I0
tS'b'
tRp76
(I1
(tg8
I00
S'}}}?'
tbag4
(g5
(I0
tS'b'
tRp77
(I1
(tg8
I00
S'}}}?'
tbag4
(g5
(I0
tS'b'
tRp78
(I1
(tg8
I00
S'}}}?'
tbag4
(g5
(I0
tS'b'
tRp79
(I1
(tg8
I00
S'}}}?'
tbag4
(g5
(I0
tS'b'
tRp80
(I1
(tg8
I00
S'}}}?'
tbag4
(g5
(I0
tS'b'
tRp81
(I1
(tg8
I00
S'}}}?'
tbag4
(g5
(I0
tS'b'
tRp82
(I1
(tg8
I00
S'}}}?'
tbag4
(g5
(I0
tS'b'
tRp83
(I1
(tg8
I00
S'}}}?'
tbag4
(g5
(I0
tS'b'
tRp84
(I1
(tg8
I00
S'}}}?'
tbag4
(g5
(I0
tS'b'
tRp85
(I1
(tg8
I00
S'}}}?'
tbag4
(g5
(I0
tS'b'
tRp86
(I1
(tg8
I00
S'}}}?'
tbag4
(g5
(I0
tS'b'
tRp87
(I1
(tg8
I00
S'}}}?'
tbag4
(g5
(I0
tS'b'
tRp88
(I1
(tg8
I00
S'}}}?'
tbag4
(g5
(I0
tS'b'
tRp89
(I1
(tg8
I00
S'}}}?'
tbag4
(g5
(I0
tS'b'
tRp90
(I1
(tg8
I00
S'}}}?'
tbag4
(g5
(I0
tS'b'
tRp91
(I1
(tg8
I00
S'}}}?'
tbag4
(g5
(I0
tS'b'
tRp92
(I1
(tg8
I00
S'}}}?'
tbag4
(g5
(I0
tS'b'
tRp93
(I1
(tg8
I00
S'}}}?'
tbag4
(g5
(I0
tS'b'
tRp94
(I1
(tg8
I00
S'}}}?'
tbag4
(g5
(I0
tS'b'
tRp95
(I1
(tg8
I00
S'}}}?'
tbag4
(g5
(I0
tS'b'
tRp96
(I1
(tg8
I00
S'}}}?'
tbag4
(g5
(I0
tS'b'
tRp97
(I1
(tg8
I00
S'}}}?'
tbag4
(g5
(I0
tS'b'
tRp98
(I1
(tg8
I00
S'}}}?'
tbag4
(g5
(I0
tS'b'
tRp99
(I1
(tg8
I00
S'}}}?'
tbag4
(g5
(I0
tS'b'
tRp100
(I1
(tg8
I00
S'}}}?'
tbag4
(g5
(I0
tS'b'
tRp101
(I1
(tg8
I00
S'}}}?'
tbag4
(g5
(I0
tS'b'
tRp102
(I1
(tg8
I00
S'}}}?'
tbag4
(g5
(I0
tS'b'
tRp103
(I1
(tg8
I00
S'}}}?'
tbag4
(g5
(I0
tS'b'
tRp104
(I1
(tg8
I00
S'}}}?'
tbag4
(g5
(I0
tS'b'
tRp105
(I1
(tg8
I00
S'}}}?'
tbag4
(g5
(I0
tS'b'
tRp106
(I1
(tg8
I00
S'}}}?'
tbag4
(g5
(I0
tS'b'
tRp107
(I1
(tg8
I00
S'}}}?'
tbag4
(g5
(I0
tS'b'
tRp108
(I1
(tg8
I00
S'}}}?'
tbag4
(g5
(I0
tS'b'
tRp109
(I1
(tg8
I00
S'}}}?'
tbag4
(g5
(I0
tS'b'
tRp110
(I1
(tg8
I00
S'}}}?'
tbag4
(g5
(I0
tS'b'
tRp111
(I1
(tg8
I00
S'}}}?'
tbag4
(g5
(I0
tS'b'
tRp112
(I1
(tg8
I00
S'}}}?'
tbag4
(g5
(I0
tS'b'
tRp113
(I1
(tg8
I00
S'}}}?'
tbag4
(g5
(I0
tS'b'
tRp114
(I1
(tg8
I00
S'}}}?'
tbag4
(g5
(I0
tS'b'
tRp115
(I1
(tg8
I00
S'}}}?'
tbag4
(g5
(I0
tS'b'
tRp116
(I1
(tg8
I00
S'}}}?'
tbag4
(g5
(I0
tS'b'
tRp117
(I1
(tg8
I00
S'}}}?'
tbag4
(g5
(I0
tS'b'
tRp118
(I1
(tg8
I00
S'}}}?'
tbag4
(g5
(I0
tS'b'
tRp119
(I1
(tg8
I00
S'}}}?'
tbag4
(g5
(I0
tS'b'
tRp120
(I1
(tg8
I00
S'}}}?'
tbag4
(g5
(I0
tS'b'
tRp121
(I1
(tg8
I00
S'}}}?'
tbag4
(g5
(I0
tS'b'
tRp122
(I1
(tg8
I00
S'}}}?'
tbag4
(g5
(I0
tS'b'
tRp123
(I1
(tg8
I00
S'}}}?'
tbag4
(g5
(I0
tS'b'
tRp124
(I1
(tg8
I00
S'}}}?'
tbag4
(g5
(I0
tS'b'
tRp125
(I1
(tg8
I00
S'}}}?'
tbag4
(g5
(I0
tS'b'
tRp126
(I1
(tg8
I00
S'}}}?'
tbag4
(g5
(I0
tS'b'
tRp127
(I1
(tg8
I00
S'}}}?'
tbag4
(g5
(I0
tS'b'
tRp128
(I1
(tg8
I00
S'}}}?'
tbag4
(g5
(I0
tS'b'
tRp129
(I1
(tg8
I00
S'}}}?'
tbag4
(g5
(I0
tS'b'
tRp130
(I1
(tg8
I00
S'}}}?'
tbag4
(g5
(I0
tS'b'
tRp131
(I1
(tg8
I00
S'}}}?'
tbag4
(g5
(I0
tS'b'
tRp132
(I1
(tg8
I00
S'}}}?'
tbag4
(g5
(I0
tS'b'
tRp133
(I1
(tg8
I00
S'}}}?'
tbag4
(g5
(I0
tS'b'
tRp134
(I1
(tg8
I00
S'}}}?'
tbag4
(g5
(I0
tS'b'
tRp135
(I1
(tg8
I00
S'}}}?'
tbag4
(g5
(I0
tS'b'
tRp136
(I1
(tg8
I00
S'}}}?'
tbag4
(g5
(I0
tS'b'
tRp137
(I1
(tg8
I00
S'}}}?'
tbag4
(g5
(I0
tS'b'
tRp138
(I1
(tg8
I00
S'}}}?'
tbag4
(g5
(I0
tS'b'
tRp139
(I1
(tg8
I00
S'}}}?'
tbag4
(g5
(I0
tS'b'
tRp140
(I1
(tg8
I00
S'}}}?'
tbag4
(g5
(I0
tS'b'
tRp141
(I1
(tg8
I00
S'}}}?'
tbag4
(g5
(I0
tS'b'
tRp142
(I1
(tg8
I00
S'}}}?'
tbag4
(g5
(I0
tS'b'
tRp143
(I1
(tg8
I00
S'}}}?'
tbag4
(g5
(I0
tS'b'
tRp144
(I1
(tg8
I00
S'}}}?'
tbag4
(g5
(I0
tS'b'
tRp145
(I1
(tg8
I00
S'}}}?'
tbag4
(g5
(I0
tS'b'
tRp146
(I1
(tg8
I00
S'}}}?'
tbag4
(g5
(I0
tS'b'
tRp147
(I1
(tg8
I00
S'}}}?'
tbag4
(g5
(I0
tS'b'
tRp148
(I1
(tg8
I00
S'}}}?'
tbag4
(g5
(I0
tS'b'
tRp149
(I1
(tg8
I00
S'}}}?'
tbag4
(g5
(I0
tS'b'
tRp150
(I1
(tg8
I00
S'}}}?'
tbag4
(g5
(I0
tS'b'
tRp151
(I1
(tg8
I00
S'}}}?'
tbag4
(g5
(I0
tS'b'
tRp152
(I1
(tg8
I00
S'}}}?'
tbag4
(g5
(I0
tS'b'
tRp153
(I1
(tg8
I00
S'}}}?'
tbag4
(g5
(I0
tS'b'
tRp154
(I1
(tg8
I00
S'}}}?'
tbag4
(g5
(I0
tS'b'
tRp155
(I1
(tg8
I00
S'}}}?'
tbag4
(g5
(I0
tS'b'
tRp156
(I1
(tg8
I00
S'}}}?'
tbag4
(g5
(I0
tS'b'
tRp157
(I1
(tg8
I00
S'}}}?'
tbag4
(g5
(I0
tS'b'
tRp158
(I1
(tg8
I00
S'}}}?'
tbag4
(g5
(I0
tS'b'
tRp159
(I1
(tg8
I00
S'}}}?'
tbag4
(g5
(I0
tS'b'
tRp160
(I1
(tg8
I00
S'}}}?'
tbag4
(g5
(I0
tS'b'
tRp161
(I1
(tg8
I00
S'}}}?'
tbag4
(g5
(I0
tS'b'
tRp162
(I1
(tg8
I00
S'}}}?'
tbag4
(g5
(I0
tS'b'
tRp163
(I1
(tg8
I00
S'}}}?'
tbag4
(g5
(I0
tS'b'
tRp164
(I1
(tg8
I00
S'}}}?'
tbag4
(g5
(I0
tS'b'
tRp165
(I1
(tg8
I00
S'}}}?'
tbag4
(g5
(I0
tS'b'
tRp166
(I1
(tg8
I00
S'}}}?'
tbag4
(g5
(I0
tS'b'
tRp167
(I1
(tg8
I00
S'}}}?'
tbag4
(g5
(I0
tS'b'
tRp168
(I1
(tg8
I00
S'}}}?'
tbag4
(g5
(I0
tS'b'
tRp169
(I1
(tg8
I00
S'}}}?'
tbag4
(g5
(I0
tS'b'
tRp170
(I1
(tg8
I00
S'}}}?'
tbag4
(g5
(I0
tS'b'
tRp171
(I1
(tg8
I00
S'}}}?'
tbag4
(g5
(I0
tS'b'
tRp172
(I1
(tg8
I00
S'}}}?'
tbag4
(g5
(I0
tS'b'
tRp173
(I1
(tg8
I00
S'}}}?'
tbag4
(g5
(I0
tS'b'
tRp174
(I1
(tg8
I00
S'}}}?'
tbag4
(g5
(I0
tS'b'
tRp175
(I1
(tg8
I00
S'}}}?'
tbag4
(g5
(I0
tS'b'
tRp176
(I1
(tg8
I00
S'}}}?'
tbag4
(g5
(I0
tS'b'
tRp177
(I1
(tg8
I00
S'}}}?'
tbag4
(g5
(I0
tS'b'
tRp178
(I1
(tg8
I00
S'}}}?'
tbag4
(g5
(I0
tS'b'
tRp179
(I1
(tg8
I00
S'}}}?'
tbag4
(g5
(I0
tS'b'
tRp180
(I1
(tg8
I00
S'}}}?'
tbag4
(g5
(I0
tS'b'
tRp181
(I1
(tg8
I00
S'}}}?'
tbag4
(g5
(I0
tS'b'
tRp182
(I1
(tg8
I00
S'}}}?'
tbag4
(g5
(I0
tS'b'
tRp183
(I1
(tg8
I00
S'}}}?'
tbag4
(g5
(I0
tS'b'
tRp184
(I1
(tg8
I00
S'}}}?'
tbag4
(g5
(I0
tS'b'
tRp185
(I1
(tg8
I00
S'}}}?'
tbag4
(g5
(I0
tS'b'
tRp186
(I1
(tg8
I00
S'}}}?'
tbag4
(g5
(I0
tS'b'
tRp187
(I1
(tg8
I00
S'}}}?'
tbag4
(g5
(I0
tS'b'
tRp188
(I1
(tg8
I00
S'}}}?'
tbag4
(g5
(I0
tS'b'
tRp189
(I1
(tg8
I00
S'}}}?'
tbag4
(g5
(I0
tS'b'
tRp190
(I1
(tg8
I00
S'}}}?'
tbag4
(g5
(I0
tS'b'
tRp191
(I1
(tg8
I00
S'}}}?'
tbag4
(g5
(I0
tS'b'
tRp192
(I1
(tg8
I00
S'}}}?'
tbag4
(g5
(I0
tS'b'
tRp193
(I1
(tg8
I00
S'}}}?'
tbag4
(g5
(I0
tS'b'
tRp194
(I1
(tg8
I00
S'}}}?'
tbag4
(g5
(I0
tS'b'
tRp195
(I1
(tg8
I00
S'}}}?'
tbag4
(g5
(I0
tS'b'
tRp196
(I1
(tg8
I00
S'}}}?'
tbag4
(g5
(I0
tS'b'
tRp197
(I1
(tg8
I00
S'}}}?'
tbag4
(g5
(I0
tS'b'
tRp198
(I1
(tg8
I00
S'}}}?'
tbag4
(g5
(I0
tS'b'
tRp199
(I1
(tg8
I00
S'}}}?'
tbag4
(g5
(I0
tS'b'
tRp200
(I1
(tg8
I00
S'}}}?'
tbag4
(g5
(I0
tS'b'
tRp201
(I1
(tg8
I00
S'}}}?'
tbag4
(g5
(I0
tS'b'
tRp202
(I1
(tg8
I00
S'}}}?'
tbag4
(g5
(I0
tS'b'
tRp203
(I1
(tg8
I00
S'}}}?'
tbag4
(g5
(I0
tS'b'
tRp204
(I1
(tg8
I00
S'}}}?'
tbag4
(g5
(I0
tS'b'
tRp205
(I1
(tg8
I00
S'}}}?'
tbag4
(g5
(I0
tS'b'
tRp206
(I1
(tg8
I00
S'}}}?'
tbag4
(g5
(I0
tS'b'
tRp207
(I1
(tg8
I00
S'}}}?'
tbasS'train_loss'
p208
(lp209
g4
(g5
(I0
tS'b'
tRp210
(I1
(tg8
I00
S'{\xf3y@'
tbag4
(g5
(I0
tS'b'
tRp211
(I1
(tg8
I00
S'<s=@'
tbag4
(g5
(I0
tS'b'
tRp212
(I1
(tg8
I00
S'\x1e\xbb!?'
tbag4
(g5
(I0
tS'b'
tRp213
(I1
(tg8
I00
S'\xdeH\x98?'
tbag4
(g5
(I0
tS'b'
tRp214
(I1
(tg8
I00
S'\xa9\xdf\xc5@'
tbag4
(g5
(I0
tS'b'
tRp215
(I1
(tg8
I00
S'\xf3\xe4\xb4?'
tbag4
(g5
(I0
tS'b'
tRp216
(I1
(tg8
I00
S'k\x1aV?'
tbag4
(g5
(I0
tS'b'
tRp217
(I1
(tg8
I00
S'\x8aO\x99>'
tbag4
(g5
(I0
tS'b'
tRp218
(I1
(tg8
I00
S'\xb4\xcan>'
tbag4
(g5
(I0
tS'b'
tRp219
(I1
(tg8
I00
S'e\xe2\\>'
tbag4
(g5
(I0
tS'b'
tRp220
(I1
(tg8
I00
S'\xbd\xdcK>'
tbag4
(g5
(I0
tS'b'
tRp221
(I1
(tg8
I00
S'd\xf9=>'
tbag4
(g5
(I0
tS'b'
tRp222
(I1
(tg8
I00
S'\xe7\xe51>'
tbag4
(g5
(I0
tS'b'
tRp223
(I1
(tg8
I00
S"{l'>"
tbag4
(g5
(I0
tS'b'
tRp224
(I1
(tg8
I00
S'\x87\xbf\x1d>'
tbag4
(g5
(I0
tS'b'
tRp225
(I1
(tg8
I00
S'co\x15>'
tbag4
(g5
(I0
tS'b'
tRp226
(I1
(tg8
I00
S'\x1c\xc7\r>'
tbag4
(g5
(I0
tS'b'
tRp227
(I1
(tg8
I00
S'2\xe0\x07>'
tbag4
(g5
(I0
tS'b'
tRp228
(I1
(tg8
I00
S'\x99\xd3\x01>'
tbag4
(g5
(I0
tS'b'
tRp229
(I1
(tg8
I00
S"i'\xf8="
tbag4
(g5
(I0
tS'b'
tRp230
(I1
(tg8
I00
S'\xd7=\xed='
tbag4
(g5
(I0
tS'b'
tRp231
(I1
(tg8
I00
S'\xc0\xa1\xe3='
tbag4
(g5
(I0
tS'b'
tRp232
(I1
(tg8
I00
S'=}\xda='
tbag4
(g5
(I0
tS'b'
tRp233
(I1
(tg8
I00
S'\xb4V\xd1='
tbag4
(g5
(I0
tS'b'
tRp234
(I1
(tg8
I00
S'[\xdf\xc9='
tbag4
(g5
(I0
tS'b'
tRp235
(I1
(tg8
I00
S'\xe9B\xc7='
tbag4
(g5
(I0
tS'b'
tRp236
(I1
(tg8
I00
S'\xd3\x96\x01>'
tbag4
(g5
(I0
tS'b'
tRp237
(I1
(tg8
I00
S'\x13\xf9J>'
tbag4
(g5
(I0
tS'b'
tRp238
(I1
(tg8
I00
S'\x97\x94H>'
tbag4
(g5
(I0
tS'b'
tRp239
(I1
(tg8
I00
S'sRF>'
tbag4
(g5
(I0
tS'b'
tRp240
(I1
(tg8
I00
S'm\x16D>'
tbag4
(g5
(I0
tS'b'
tRp241
(I1
(tg8
I00
S'\xab8B>'
tbag4
(g5
(I0
tS'b'
tRp242
(I1
(tg8
I00
S'xS@>'
tbag4
(g5
(I0
tS'b'
tRp243
(I1
(tg8
I00
S'\xde\xb0>>'
tbag4
(g5
(I0
tS'b'
tRp244
(I1
(tg8
I00
S'k\xc2<>'
tbag4
(g5
(I0
tS'b'
tRp245
(I1
(tg8
I00
S'\xc4\x19;>'
tbag4
(g5
(I0
tS'b'
tRp246
(I1
(tg8
I00
S'\xe9\xc19>'
tbag4
(g5
(I0
tS'b'
tRp247
(I1
(tg8
I00
S'\xcfh8>'
tbag4
(g5
(I0
tS'b'
tRp248
(I1
(tg8
I00
S'\xfd37>'
tbag4
(g5
(I0
tS'b'
tRp249
(I1
(tg8
I00
S'\xe1\x106>'
tbag4
(g5
(I0
tS'b'
tRp250
(I1
(tg8
I00
S'\x94\xb74>'
tbag4
(g5
(I0
tS'b'
tRp251
(I1
(tg8
I00
S'\xe4\xd13>'
tbag4
(g5
(I0
tS'b'
tRp252
(I1
(tg8
I00
S'\x94\xca2>'
tbag4
(g5
(I0
tS'b'
tRp253
(I1
(tg8
I00
S'\x04\xcb1>'
tbag4
(g5
(I0
tS'b'
tRp254
(I1
(tg8
I00
S'\x9c\x101>'
tbag4
(g5
(I0
tS'b'
tRp255
(I1
(tg8
I00
S'\xe6G0>'
tbag4
(g5
(I0
tS'b'
tRp256
(I1
(tg8
I00
S'\x0fi/>'
tbag4
(g5
(I0
tS'b'
tRp257
(I1
(tg8
I00
S'\xa4\xbf.>'
tbag4
(g5
(I0
tS'b'
tRp258
(I1
(tg8
I00
S'/(.>'
tbag4
(g5
(I0
tS'b'
tRp259
(I1
(tg8
I00
S'&Z->'
tbag4
(g5
(I0
tS'b'
tRp260
(I1
(tg8
I00
S'`\xb0,>'
tbag4
(g5
(I0
tS'b'
tRp261
(I1
(tg8
I00
S'\xfb;,>'
tbag4
(g5
(I0
tS'b'
tRp262
(I1
(tg8
I00
S'\xeb\xcb+>'
tbag4
(g5
(I0
tS'b'
tRp263
(I1
(tg8
I00
S'YG+>'
tbag4
(g5
(I0
tS'b'
tRp264
(I1
(tg8
I00
S';\xcf*>'
tbag4
(g5
(I0
tS'b'
tRp265
(I1
(tg8
I00
S'[w*>'
tbag4
(g5
(I0
tS'b'
tRp266
(I1
(tg8
I00
S'\xf6\xf7)>'
tbag4
(g5
(I0
tS'b'
tRp267
(I1
(tg8
I00
S'd\x87)>'
tbag4
(g5
(I0
tS'b'
tRp268
(I1
(tg8
I00
S'd6)>'
tbag4
(g5
(I0
tS'b'
tRp269
(I1
(tg8
I00
S'\x9b\xd4(>'
tbag4
(g5
(I0
tS'b'
tRp270
(I1
(tg8
I00
S'8x(>'
tbag4
(g5
(I0
tS'b'
tRp271
(I1
(tg8
I00
S'\xf9G(>'
tbag4
(g5
(I0
tS'b'
tRp272
(I1
(tg8
I00
S'\xd7\n(>'
tbag4
(g5
(I0
tS'b'
tRp273
(I1
(tg8
I00
S"\xe9\xa8'>"
tbag4
(g5
(I0
tS'b'
tRp274
(I1
(tg8
I00
S"=P'>"
tbag4
(g5
(I0
tS'b'
tRp275
(I1
(tg8
I00
S"\xf0+'>"
tbag4
(g5
(I0
tS'b'
tRp276
(I1
(tg8
I00
S'\xe0\xdf&>'
tbag4
(g5
(I0
tS'b'
tRp277
(I1
(tg8
I00
S'\xbb\xac&>'
tbag4
(g5
(I0
tS'b'
tRp278
(I1
(tg8
I00
S'\xe6m&>'
tbag4
(g5
(I0
tS'b'
tRp279
(I1
(tg8
I00
S'\xc16&>'
tbag4
(g5
(I0
tS'b'
tRp280
(I1
(tg8
I00
S'Y\n&>'
tbag4
(g5
(I0
tS'b'
tRp281
(I1
(tg8
I00
S'\xc5\xe2%>'
tbag4
(g5
(I0
tS'b'
tRp282
(I1
(tg8
I00
S'\xab\xae%>'
tbag4
(g5
(I0
tS'b'
tRp283
(I1
(tg8
I00
S'!\x86%>'
tbag4
(g5
(I0
tS'b'
tRp284
(I1
(tg8
I00
S'\xbeY%>'
tbag4
(g5
(I0
tS'b'
tRp285
(I1
(tg8
I00
S';6%>'
tbag4
(g5
(I0
tS'b'
tRp286
(I1
(tg8
I00
S'\xa2\x11%>'
tbag4
(g5
(I0
tS'b'
tRp287
(I1
(tg8
I00
S'B\xec$>'
tbag4
(g5
(I0
tS'b'
tRp288
(I1
(tg8
I00
S'\x1e\xbd$>'
tbag4
(g5
(I0
tS'b'
tRp289
(I1
(tg8
I00
S'\xf8\x9e$>'
tbag4
(g5
(I0
tS'b'
tRp290
(I1
(tg8
I00
S'\x87}$>'
tbag4
(g5
(I0
tS'b'
tRp291
(I1
(tg8
I00
S'og$>'
tbag4
(g5
(I0
tS'b'
tRp292
(I1
(tg8
I00
S'\xdeD$>'
tbag4
(g5
(I0
tS'b'
tRp293
(I1
(tg8
I00
S"\xea'$>"
tbag4
(g5
(I0
tS'b'
tRp294
(I1
(tg8
I00
S'&\x05$>'
tbag4
(g5
(I0
tS'b'
tRp295
(I1
(tg8
I00
S'\x16\xf3#>'
tbag4
(g5
(I0
tS'b'
tRp296
(I1
(tg8
I00
S'\xb6\xda#>'
tbag4
(g5
(I0
tS'b'
tRp297
(I1
(tg8
I00
S'u\xc5#>'
tbag4
(g5
(I0
tS'b'
tRp298
(I1
(tg8
I00
S'\xb4\xb0#>'
tbag4
(g5
(I0
tS'b'
tRp299
(I1
(tg8
I00
S'\xaa\x97#>'
tbag4
(g5
(I0
tS'b'
tRp300
(I1
(tg8
I00
S'\x9c\x82#>'
tbag4
(g5
(I0
tS'b'
tRp301
(I1
(tg8
I00
S'\xb3s#>'
tbag4
(g5
(I0
tS'b'
tRp302
(I1
(tg8
I00
S'\xa4_#>'
tbag4
(g5
(I0
tS'b'
tRp303
(I1
(tg8
I00
S'0G#>'
tbag4
(g5
(I0
tS'b'
tRp304
(I1
(tg8
I00
S'r6#>'
tbag4
(g5
(I0
tS'b'
tRp305
(I1
(tg8
I00
S'\xf8*#>'
tbag4
(g5
(I0
tS'b'
tRp306
(I1
(tg8
I00
S'M\x19#>'
tbag4
(g5
(I0
tS'b'
tRp307
(I1
(tg8
I00
S'\x9c\n#>'
tbag4
(g5
(I0
tS'b'
tRp308
(I1
(tg8
I00
S']\xf6">'
tbag4
(g5
(I0
tS'b'
tRp309
(I1
(tg8
I00
S'\xea\xe9">'
tbag4
(g5
(I0
tS'b'
tRp310
(I1
(tg8
I00
S'\xb6\xdd">'
tbag4
(g5
(I0
tS'b'
tRp311
(I1
(tg8
I00
S'\x17\xd1">'
tbag4
(g5
(I0
tS'b'
tRp312
(I1
(tg8
I00
S'E\xc6">'
tbag4
(g5
(I0
tS'b'
tRp313
(I1
(tg8
I00
S'\xd9\xbb">'
tbag4
(g5
(I0
tS'b'
tRp314
(I1
(tg8
I00
S'\xf9\xae">'
tbag4
(g5
(I0
tS'b'
tRp315
(I1
(tg8
I00
S'I\xa3">'
tbag4
(g5
(I0
tS'b'
tRp316
(I1
(tg8
I00
S'\xa6\x97">'
tbag4
(g5
(I0
tS'b'
tRp317
(I1
(tg8
I00
S'*\x90">'
tbag4
(g5
(I0
tS'b'
tRp318
(I1
(tg8
I00
S'\xe7\x87">'
tbag4
(g5
(I0
tS'b'
tRp319
(I1
(tg8
I00
S'\x0f\x7f">'
tbag4
(g5
(I0
tS'b'
tRp320
(I1
(tg8
I00
S'Vt">'
tbag4
(g5
(I0
tS'b'
tRp321
(I1
(tg8
I00
S'/m">'
tbag4
(g5
(I0
tS'b'
tRp322
(I1
(tg8
I00
S'Wf">'
tbag4
(g5
(I0
tS'b'
tRp323
(I1
(tg8
I00
S'n^">'
tbag4
(g5
(I0
tS'b'
tRp324
(I1
(tg8
I00
S'\x0eW">'
tbag4
(g5
(I0
tS'b'
tRp325
(I1
(tg8
I00
S'\xa5R">'
tbag4
(g5
(I0
tS'b'
tRp326
(I1
(tg8
I00
S'bK">'
tbag4
(g5
(I0
tS'b'
tRp327
(I1
(tg8
I00
S'\x96E">'
tbag4
(g5
(I0
tS'b'
tRp328
(I1
(tg8
I00
S'\x9a?">'
tbag4
(g5
(I0
tS'b'
tRp329
(I1
(tg8
I00
S'\xa78">'
tbag4
(g5
(I0
tS'b'
tRp330
(I1
(tg8
I00
S't4">'
tbag4
(g5
(I0
tS'b'
tRp331
(I1
(tg8
I00
S'\x060">'
tbag4
(g5
(I0
tS'b'
tRp332
(I1
(tg8
I00
S'\xc7)">'
tbag4
(g5
(I0
tS'b'
tRp333
(I1
(tg8
I00
S'-&">'
tbag4
(g5
(I0
tS'b'
tRp334
(I1
(tg8
I00
S'\xb7!">'
tbag4
(g5
(I0
tS'b'
tRp335
(I1
(tg8
I00
S'\xd4\x1c">'
tbag4
(g5
(I0
tS'b'
tRp336
(I1
(tg8
I00
S'\xb2\x19">'
tbag4
(g5
(I0
tS'b'
tRp337
(I1
(tg8
I00
S'a\x15">'
tbag4
(g5
(I0
tS'b'
tRp338
(I1
(tg8
I00
S'\xaa\x11">'
tbag4
(g5
(I0
tS'b'
tRp339
(I1
(tg8
I00
S'+\x0f">'
tbag4
(g5
(I0
tS'b'
tRp340
(I1
(tg8
I00
S'\xeb\n">'
tbag4
(g5
(I0
tS'b'
tRp341
(I1
(tg8
I00
S'\xc6\x08">'
tbag4
(g5
(I0
tS'b'
tRp342
(I1
(tg8
I00
S'd\x05">'
tbag4
(g5
(I0
tS'b'
tRp343
(I1
(tg8
I00
S'\x17\x03">'
tbag4
(g5
(I0
tS'b'
tRp344
(I1
(tg8
I00
S'\xd9\xff!>'
tbag4
(g5
(I0
tS'b'
tRp345
(I1
(tg8
I00
S'\x8b\xfd!>'
tbag4
(g5
(I0
tS'b'
tRp346
(I1
(tg8
I00
S';\xfc!>'
tbag4
(g5
(I0
tS'b'
tRp347
(I1
(tg8
I00
S'\xd9\xf9!>'
tbag4
(g5
(I0
tS'b'
tRp348
(I1
(tg8
I00
S'n\xf7!>'
tbag4
(g5
(I0
tS'b'
tRp349
(I1
(tg8
I00
S'\r\xf5!>'
tbag4
(g5
(I0
tS'b'
tRp350
(I1
(tg8
I00
S'\xa6\xf3!>'
tbag4
(g5
(I0
tS'b'
tRp351
(I1
(tg8
I00
S'\x1b\xf2!>'
tbag4
(g5
(I0
tS'b'
tRp352
(I1
(tg8
I00
S'\xf9\xef!>'
tbag4
(g5
(I0
tS'b'
tRp353
(I1
(tg8
I00
S'H\xee!>'
tbag4
(g5
(I0
tS'b'
tRp354
(I1
(tg8
I00
S'\xa6\xec!>'
tbag4
(g5
(I0
tS'b'
tRp355
(I1
(tg8
I00
S'a\xeb!>'
tbag4
(g5
(I0
tS'b'
tRp356
(I1
(tg8
I00
S'\xd6\xe9!>'
tbag4
(g5
(I0
tS'b'
tRp357
(I1
(tg8
I00
S'a\xe8!>'
tbag4
(g5
(I0
tS'b'
tRp358
(I1
(tg8
I00
S'f\xe7!>'
tbag4
(g5
(I0
tS'b'
tRp359
(I1
(tg8
I00
S'h\xe6!>'
tbag4
(g5
(I0
tS'b'
tRp360
(I1
(tg8
I00
S'\xc8\xe4!>'
tbag4
(g5
(I0
tS'b'
tRp361
(I1
(tg8
I00
S'\xe0\xe3!>'
tbag4
(g5
(I0
tS'b'
tRp362
(I1
(tg8
I00
S'\x06\xe3!>'
tbag4
(g5
(I0
tS'b'
tRp363
(I1
(tg8
I00
S'\xfc\xe1!>'
tbag4
(g5
(I0
tS'b'
tRp364
(I1
(tg8
I00
S'2\xe1!>'
tbag4
(g5
(I0
tS'b'
tRp365
(I1
(tg8
I00
S' \xe0!>'
tbag4
(g5
(I0
tS'b'
tRp366
(I1
(tg8
I00
S'P\xdf!>'
tbag4
(g5
(I0
tS'b'
tRp367
(I1
(tg8
I00
S'v\xde!>'
tbag4
(g5
(I0
tS'b'
tRp368
(I1
(tg8
I00
S'0\xde!>'
tbag4
(g5
(I0
tS'b'
tRp369
(I1
(tg8
I00
S'Z\xdd!>'
tbag4
(g5
(I0
tS'b'
tRp370
(I1
(tg8
I00
S'\x80\xdc!>'
tbag4
(g5
(I0
tS'b'
tRp371
(I1
(tg8
I00
S'\xd0\xdb!>'
tbag4
(g5
(I0
tS'b'
tRp372
(I1
(tg8
I00
S'N\xdb!>'
tbag4
(g5
(I0
tS'b'
tRp373
(I1
(tg8
I00
S'\xb4\xda!>'
tbag4
(g5
(I0
tS'b'
tRp374
(I1
(tg8
I00
S'\x01\xda!>'
tbag4
(g5
(I0
tS'b'
tRp375
(I1
(tg8
I00
S'\xb2\xd9!>'
tbag4
(g5
(I0
tS'b'
tRp376
(I1
(tg8
I00
S'9\xd9!>'
tbag4
(g5
(I0
tS'b'
tRp377
(I1
(tg8
I00
S'\x9a\xd8!>'
tbag4
(g5
(I0
tS'b'
tRp378
(I1
(tg8
I00
S'O\xd8!>'
tbag4
(g5
(I0
tS'b'
tRp379
(I1
(tg8
I00
S'\xcd\xd7!>'
tbag4
(g5
(I0
tS'b'
tRp380
(I1
(tg8
I00
S'\x84\xd7!>'
tbag4
(g5
(I0
tS'b'
tRp381
(I1
(tg8
I00
S'\x18\xd7!>'
tbag4
(g5
(I0
tS'b'
tRp382
(I1
(tg8
I00
S'\xa5\xd6!>'
tbag4
(g5
(I0
tS'b'
tRp383
(I1
(tg8
I00
S'p\xd6!>'
tbag4
(g5
(I0
tS'b'
tRp384
(I1
(tg8
I00
S'\x07\xd6!>'
tbag4
(g5
(I0
tS'b'
tRp385
(I1
(tg8
I00
S'\xcf\xd5!>'
tbag4
(g5
(I0
tS'b'
tRp386
(I1
(tg8
I00
S'x\xd5!>'
tbag4
(g5
(I0
tS'b'
tRp387
(I1
(tg8
I00
S'4\xd5!>'
tbag4
(g5
(I0
tS'b'
tRp388
(I1
(tg8
I00
S'\xe9\xd4!>'
tbag4
(g5
(I0
tS'b'
tRp389
(I1
(tg8
I00
S'\xa9\xd4!>'
tbag4
(g5
(I0
tS'b'
tRp390
(I1
(tg8
I00
S'{\xd4!>'
tbag4
(g5
(I0
tS'b'
tRp391
(I1
(tg8
I00
S'7\xd4!>'
tbag4
(g5
(I0
tS'b'
tRp392
(I1
(tg8
I00
S'\xfe\xd3!>'
tbag4
(g5
(I0
tS'b'
tRp393
(I1
(tg8
I00
S'\xc2\xd3!>'
tbag4
(g5
(I0
tS'b'
tRp394
(I1
(tg8
I00
S'\x9b\xd3!>'
tbag4
(g5
(I0
tS'b'
tRp395
(I1
(tg8
I00
S'l\xd3!>'
tbag4
(g5
(I0
tS'b'
tRp396
(I1
(tg8
I00
S'A\xd3!>'
tbag4
(g5
(I0
tS'b'
tRp397
(I1
(tg8
I00
S'\x16\xd3!>'
tbag4
(g5
(I0
tS'b'
tRp398
(I1
(tg8
I00
S'\xf6\xd2!>'
tbag4
(g5
(I0
tS'b'
tRp399
(I1
(tg8
I00
S'\xc7\xd2!>'
tbag4
(g5
(I0
tS'b'
tRp400
(I1
(tg8
I00
S'\xa6\xd2!>'
tbag4
(g5
(I0
tS'b'
tRp401
(I1
(tg8
I00
S'\x84\xd2!>'
tbag4
(g5
(I0
tS'b'
tRp402
(I1
(tg8
I00
S'f\xd2!>'
tbag4
(g5
(I0
tS'b'
tRp403
(I1
(tg8
I00
S'E\xd2!>'
tbag4
(g5
(I0
tS'b'
tRp404
(I1
(tg8
I00
S'+\xd2!>'
tbag4
(g5
(I0
tS'b'
tRp405
(I1
(tg8
I00
S'\x16\xd2!>'
tbag4
(g5
(I0
tS'b'
tRp406
(I1
(tg8
I00
S'\xf9\xd1!>'
tbag4
(g5
(I0
tS'b'
tRp407
(I1
(tg8
I00
S'\xe1\xd1!>'
tbag4
(g5
(I0
tS'b'
tRp408
(I1
(tg8
I00
S'\xc8\xd1!>'
tbag4
(g5
(I0
tS'b'
tRp409
(I1
(tg8
I00
S'\xae\xd1!>'
tbasS'val_acc'
p410
(lp411
cnumpy.core.multiarray
scalar
p412
(g7
(S'f8'
I0
I1
tRp413
(I3
S'<'
NNNI-1
I-1
I0
tbS'\x00\x00\x00\xa0\xaf\xaf\xef?'
tRp414
asS'val_loss'
p415
(lp416
g412
(g413
S'fff\xb63:\xc4?'
tRp417
as.