(dp1
S'train_acc'
p2
(lp3
cnumpy.core.multiarray
_reconstruct
p4
(cnumpy
ndarray
p5
(I0
tS'b'
tRp6
(I1
(tcnumpy
dtype
p7
(S'f4'
I0
I1
tRp8
(I3
S'<'
NNNI-1
I-1
I0
tbI00
S'\xc4\xc3\x03<'
tbag4
(g5
(I0
tS'b'
tRp9
(I1
(tg8
I00
S'\xf8\xf7w?'
tbag4
(g5
(I0
tS'b'
tRp10
(I1
(tg8
I00
S'\x92\x11y?'
tbag4
(g5
(I0
tS'b'
tRp11
(I1
(tg8
I00
S'\xac\xaby?'
tbag4
(g5
(I0
tS'b'
tRp12
(I1
(tg8
I00
S'\xa2!z?'
tbag4
(g5
(I0
tS'b'
tRp13
(I1
(tg8
I00
S'\xf9xz?'
tbag4
(g5
(I0
tS'b'
tRp14
(I1
(tg8
I00
S'\xb9\xb8z?'
tbag4
(g5
(I0
tS'b'
tRp15
(I1
(tg8
I00
S'\xef\xeez?'
tbag4
(g5
(I0
tS'b'
tRp16
(I1
(tg8
I00
S'\xc1@{?'
tbag4
(g5
(I0
tS'b'
tRp17
(I1
(tg8
I00
S'\xc5D{?'
tbag4
(g5
(I0
tS'b'
tRp18
(I1
(tg8
I00
S'\x0e\x8e{?'
tbag4
(g5
(I0
tS'b'
tRp19
(I1
(tg8
I00
S'3\xb3{?'
tbag4
(g5
(I0
tS'b'
tRp20
(I1
(tg8
I00
S'\xc6\xc5{?'
tbag4
(g5
(I0
tS'b'
tRp21
(I1
(tg8
I00
S'H\xc8{?'
tbag4
(g5
(I0
tS'b'
tRp22
(I1
(tg8
I00
S'%%|?'
tbag4
(g5
(I0
tS'b'
tRp23
(I1
(tg8
I00
S'\xc6E|?'
tbag4
(g5
(I0
tS'b'
tRp24
(I1
(tg8
I00
S'TT|?'
tbag4
(g5
(I0
tS'b'
tRp25
(I1
(tg8
I00
S'\xe6e|?'
tbag4
(g5
(I0
tS'b'
tRp26
(I1
(tg8
I00
S'pp|?'
tbag4
(g5
(I0
tS'b'
tRp27
(I1
(tg8
I00
S'\x10\x90|?'
tbag4
(g5
(I0
tS'b'
tRp28
(I1
(tg8
I00
S'\xb9\xb8|?'
tbag4
(g5
(I0
tS'b'
tRp29
(I1
(tg8
I00
S'\xb0\xaf|?'
tbag4
(g5
(I0
tS'b'
tRp30
(I1
(tg8
I00
S'\xda\xd9|?'
tbag4
(g5
(I0
tS'b'
tRp31
(I1
(tg8
I00
S'p\xf0|?'
tbag4
(g5
(I0
tS'b'
tRp32
(I1
(tg8
I00
S'u\xf5|?'
tbag4
(g5
(I0
tS'b'
tRp33
(I1
(tg8
I00
S'\xef\xee|?'
tbag4
(g5
(I0
tS'b'
tRp34
(I1
(tg8
I00
S'\x16\x16}?'
tbag4
(g5
(I0
tS'b'
tRp35
(I1
(tg8
I00
S'!!}?'
tbag4
(g5
(I0
tS'b'
tRp36
(I1
(tg8
I00
S'!!}?'
tbag4
(g5
(I0
tS'b'
tRp37
(I1
(tg8
I00
S'--}?'
tbag4
(g5
(I0
tS'b'
tRp38
(I1
(tg8
I00
S'\xb43}?'
tbag4
(g5
(I0
tS'b'
tRp39
(I1
(tg8
I00
S'CC}?'
tbag4
(g5
(I0
tS'b'
tRp40
(I1
(tg8
I00
S'QQ}?'
tbag4
(g5
(I0
tS'b'
tRp41
(I1
(tg8
I00
S'\xd4S}?'
tbag4
(g5
(I0
tS'b'
tRp42
(I1
(tg8
I00
S'XX}?'
tbag4
(g5
(I0
tS'b'
tRp43
(I1
(tg8
I00
S'\xe0_}?'
tbag4
(g5
(I0
tS'b'
tRp44
(I1
(tg8
I00
S'\xe3b}?'
tbag4
(g5
(I0
tS'b'
tRp45
(I1
(tg8
I00
S'\xeai}?'
tbag4
(g5
(I0
tS'b'
tRp46
(I1
(tg8
I00
S'\xeck}?'
tbag4
(g5
(I0
tS'b'
tRp47
(I1
(tg8
I00
S'\xeai}?'
tbag4
(g5
(I0
tS'b'
tRp48
(I1
(tg8
I00
S'\xe9h}?'
tbag4
(g5
(I0
tS'b'
tRp49
(I1
(tg8
I00
S'\xf4s}?'
tbag4
(g5
(I0
tS'b'
tRp50
(I1
(tg8
I00
S'\xf2q}?'
tbag4
(g5
(I0
tS'b'
tRp51
(I1
(tg8
I00
S'ss}?'
tbag4
(g5
(I0
tS'b'
tRp52
(I1
(tg8
I00
S'qq}?'
tbag4
(g5
(I0
tS'b'
tRp53
(I1
(tg8
I00
S'\xf1p}?'
tbag4
(g5
(I0
tS'b'
tRp54
(I1
(tg8
I00
S'oo}?'
tbag4
(g5
(I0
tS'b'
tRp55
(I1
(tg8
I00
S'qq}?'
tbag4
(g5
(I0
tS'b'
tRp56
(I1
(tg8
I00
S'\xefn}?'
tbag4
(g5
(I0
tS'b'
tRp57
(I1
(tg8
I00
S'rr}?'
tbag4
(g5
(I0
tS'b'
tRp58
(I1
(tg8
I00
S'\xefn}?'
tbag4
(g5
(I0
tS'b'
tRp59
(I1
(tg8
I00
S'rr}?'
tbag4
(g5
(I0
tS'b'
tRp60
(I1
(tg8
I00
S'\xf1p}?'
tbag4
(g5
(I0
tS'b'
tRp61
(I1
(tg8
I00
S'tt}?'
tbag4
(g5
(I0
tS'b'
tRp62
(I1
(tg8
I00
S'\xf4s}?'
tbag4
(g5
(I0
tS'b'
tRp63
(I1
(tg8
I00
S'\xfd|}?'
tbag4
(g5
(I0
tS'b'
tRp64
(I1
(tg8
I00
S'}}}?'
tbag4
(g5
(I0
tS'b'
tRp65
(I1
(tg8
I00
S'}}}?'
tbag4
(g5
(I0
tS'b'
tRp66
(I1
(tg8
I00
S'}}}?'
tbag4
(g5
(I0
tS'b'
tRp67
(I1
(tg8
I00
S'}}}?'
tbag4
(g5
(I0
tS'b'
tRp68
(I1
(tg8
I00
S'}}}?'
tbag4
(g5
(I0
tS'b'
tRp69
(I1
(tg8
I00
S'}}}?'
tbag4
(g5
(I0
tS'b'
tRp70
(I1
(tg8
I00
S'}}}?'
tbag4
(g5
(I0
tS'b'
tRp71
(I1
(tg8
I00
S'}}}?'
tbag4
(g5
(I0
tS'b'
tRp72
(I1
(tg8
I00
S'}}}?'
tbag4
(g5
(I0
tS'b'
tRp73
(I1
(tg8
I00
S'}}}?'
tbag4
(g5
(I0
tS'b'
tRp74
(I1
(tg8
I00
S'}}}?'
tbag4
(g5
(I0
tS'b'
tRp75
(I1
(tg8
I00
S'}}}?'
tbag4
(g5
(I0
tS'b'
tRp76
(I1
(tg8
I00
S'}}}?'
tbag4
(g5
(I0
tS'b'
tRp77
(I1
(tg8
I00
S'}}}?'
tbag4
(g5
(I0
tS'b'
tRp78
(I1
(tg8
I00
S'}}}?'
tbag4
(g5
(I0
tS'b'
tRp79
(I1
(tg8
I00
S'}}}?'
tbag4
(g5
(I0
tS'b'
tRp80
(I1
(tg8
I00
S'}}}?'
tbag4
(g5
(I0
tS'b'
tRp81
(I1
(tg8
I00
S'}}}?'
tbag4
(g5
(I0
tS'b'
tRp82
(I1
(tg8
I00
S'}}}?'
tbag4
(g5
(I0
tS'b'
tRp83
(I1
(tg8
I00
S'}}}?'
tbag4
(g5
(I0
tS'b'
tRp84
(I1
(tg8
I00
S'}}}?'
tbag4
(g5
(I0
tS'b'
tRp85
(I1
(tg8
I00
S'}}}?'
tbag4
(g5
(I0
tS'b'
tRp86
(I1
(tg8
I00
S'}}}?'
tbag4
(g5
(I0
tS'b'
tRp87
(I1
(tg8
I00
S'}}}?'
tbag4
(g5
(I0
tS'b'
tRp88
(I1
(tg8
I00
S'}}}?'
tbag4
(g5
(I0
tS'b'
tRp89
(I1
(tg8
I00
S'}}}?'
tbag4
(g5
(I0
tS'b'
tRp90
(I1
(tg8
I00
S'}}}?'
tbag4
(g5
(I0
tS'b'
tRp91
(I1
(tg8
I00
S'}}}?'
tbag4
(g5
(I0
tS'b'
tRp92
(I1
(tg8
I00
S'}}}?'
tbag4
(g5
(I0
tS'b'
tRp93
(I1
(tg8
I00
S'}}}?'
tbag4
(g5
(I0
tS'b'
tRp94
(I1
(tg8
I00
S'}}}?'
tbag4
(g5
(I0
tS'b'
tRp95
(I1
(tg8
I00
S'}}}?'
tbag4
(g5
(I0
tS'b'
tRp96
(I1
(tg8
I00
S'}}}?'
tbag4
(g5
(I0
tS'b'
tRp97
(I1
(tg8
I00
S'}}}?'
tbag4
(g5
(I0
tS'b'
tRp98
(I1
(tg8
I00
S'}}}?'
tbag4
(g5
(I0
tS'b'
tRp99
(I1
(tg8
I00
S'}}}?'
tbag4
(g5
(I0
tS'b'
tRp100
(I1
(tg8
I00
S'}}}?'
tbag4
(g5
(I0
tS'b'
tRp101
(I1
(tg8
I00
S'}}}?'
tbag4
(g5
(I0
tS'b'
tRp102
(I1
(tg8
I00
S'}}}?'
tbag4
(g5
(I0
tS'b'
tRp103
(I1
(tg8
I00
S'}}}?'
tbag4
(g5
(I0
tS'b'
tRp104
(I1
(tg8
I00
S'}}}?'
tbag4
(g5
(I0
tS'b'
tRp105
(I1
(tg8
I00
S'}}}?'
tbag4
(g5
(I0
tS'b'
tRp106
(I1
(tg8
I00
S'}}}?'
tbag4
(g5
(I0
tS'b'
tRp107
(I1
(tg8
I00
S'}}}?'
tbag4
(g5
(I0
tS'b'
tRp108
(I1
(tg8
I00
S'}}}?'
tbag4
(g5
(I0
tS'b'
tRp109
(I1
(tg8
I00
S'}}}?'
tbag4
(g5
(I0
tS'b'
tRp110
(I1
(tg8
I00
S'}}}?'
tbag4
(g5
(I0
tS'b'
tRp111
(I1
(tg8
I00
S'}}}?'
tbag4
(g5
(I0
tS'b'
tRp112
(I1
(tg8
I00
S'}}}?'
tbag4
(g5
(I0
tS'b'
tRp113
(I1
(tg8
I00
S'}}}?'
tbag4
(g5
(I0
tS'b'
tRp114
(I1
(tg8
I00
S'}}}?'
tbag4
(g5
(I0
tS'b'
tRp115
(I1
(tg8
I00
S'}}}?'
tbag4
(g5
(I0
tS'b'
tRp116
(I1
(tg8
I00
S'}}}?'
tbag4
(g5
(I0
tS'b'
tRp117
(I1
(tg8
I00
S'}}}?'
tbag4
(g5
(I0
tS'b'
tRp118
(I1
(tg8
I00
S'}}}?'
tbag4
(g5
(I0
tS'b'
tRp119
(I1
(tg8
I00
S'}}}?'
tbag4
(g5
(I0
tS'b'
tRp120
(I1
(tg8
I00
S'}}}?'
tbag4
(g5
(I0
tS'b'
tRp121
(I1
(tg8
I00
S'}}}?'
tbag4
(g5
(I0
tS'b'
tRp122
(I1
(tg8
I00
S'}}}?'
tbag4
(g5
(I0
tS'b'
tRp123
(I1
(tg8
I00
S'}}}?'
tbag4
(g5
(I0
tS'b'
tRp124
(I1
(tg8
I00
S'}}}?'
tbag4
(g5
(I0
tS'b'
tRp125
(I1
(tg8
I00
S'}}}?'
tbag4
(g5
(I0
tS'b'
tRp126
(I1
(tg8
I00
S'}}}?'
tbag4
(g5
(I0
tS'b'
tRp127
(I1
(tg8
I00
S'}}}?'
tbag4
(g5
(I0
tS'b'
tRp128
(I1
(tg8
I00
S'}}}?'
tbag4
(g5
(I0
tS'b'
tRp129
(I1
(tg8
I00
S'}}}?'
tbag4
(g5
(I0
tS'b'
tRp130
(I1
(tg8
I00
S'}}}?'
tbag4
(g5
(I0
tS'b'
tRp131
(I1
(tg8
I00
S'}}}?'
tbag4
(g5
(I0
tS'b'
tRp132
(I1
(tg8
I00
S'}}}?'
tbag4
(g5
(I0
tS'b'
tRp133
(I1
(tg8
I00
S'}}}?'
tbag4
(g5
(I0
tS'b'
tRp134
(I1
(tg8
I00
S'}}}?'
tbag4
(g5
(I0
tS'b'
tRp135
(I1
(tg8
I00
S'}}}?'
tbag4
(g5
(I0
tS'b'
tRp136
(I1
(tg8
I00
S'}}}?'
tbag4
(g5
(I0
tS'b'
tRp137
(I1
(tg8
I00
S'}}}?'
tbag4
(g5
(I0
tS'b'
tRp138
(I1
(tg8
I00
S'}}}?'
tbag4
(g5
(I0
tS'b'
tRp139
(I1
(tg8
I00
S'}}}?'
tbag4
(g5
(I0
tS'b'
tRp140
(I1
(tg8
I00
S'}}}?'
tbag4
(g5
(I0
tS'b'
tRp141
(I1
(tg8
I00
S'}}}?'
tbag4
(g5
(I0
tS'b'
tRp142
(I1
(tg8
I00
S'}}}?'
tbag4
(g5
(I0
tS'b'
tRp143
(I1
(tg8
I00
S'}}}?'
tbag4
(g5
(I0
tS'b'
tRp144
(I1
(tg8
I00
S'}}}?'
tbag4
(g5
(I0
tS'b'
tRp145
(I1
(tg8
I00
S'}}}?'
tbag4
(g5
(I0
tS'b'
tRp146
(I1
(tg8
I00
S'}}}?'
tbag4
(g5
(I0
tS'b'
tRp147
(I1
(tg8
I00
S'}}}?'
tbag4
(g5
(I0
tS'b'
tRp148
(I1
(tg8
I00
S'}}}?'
tbag4
(g5
(I0
tS'b'
tRp149
(I1
(tg8
I00
S'}}}?'
tbag4
(g5
(I0
tS'b'
tRp150
(I1
(tg8
I00
S'}}}?'
tbag4
(g5
(I0
tS'b'
tRp151
(I1
(tg8
I00
S'}}}?'
tbag4
(g5
(I0
tS'b'
tRp152
(I1
(tg8
I00
S'}}}?'
tbag4
(g5
(I0
tS'b'
tRp153
(I1
(tg8
I00
S'}}}?'
tbag4
(g5
(I0
tS'b'
tRp154
(I1
(tg8
I00
S'}}}?'
tbag4
(g5
(I0
tS'b'
tRp155
(I1
(tg8
I00
S'}}}?'
tbag4
(g5
(I0
tS'b'
tRp156
(I1
(tg8
I00
S'}}}?'
tbag4
(g5
(I0
tS'b'
tRp157
(I1
(tg8
I00
S'}}}?'
tbag4
(g5
(I0
tS'b'
tRp158
(I1
(tg8
I00
S'}}}?'
tbag4
(g5
(I0
tS'b'
tRp159
(I1
(tg8
I00
S'}}}?'
tbag4
(g5
(I0
tS'b'
tRp160
(I1
(tg8
I00
S'}}}?'
tbag4
(g5
(I0
tS'b'
tRp161
(I1
(tg8
I00
S'}}}?'
tbag4
(g5
(I0
tS'b'
tRp162
(I1
(tg8
I00
S'}}}?'
tbag4
(g5
(I0
tS'b'
tRp163
(I1
(tg8
I00
S'}}}?'
tbag4
(g5
(I0
tS'b'
tRp164
(I1
(tg8
I00
S'}}}?'
tbag4
(g5
(I0
tS'b'
tRp165
(I1
(tg8
I00
S'}}}?'
tbag4
(g5
(I0
tS'b'
tRp166
(I1
(tg8
I00
S'}}}?'
tbag4
(g5
(I0
tS'b'
tRp167
(I1
(tg8
I00
S'}}}?'
tbag4
(g5
(I0
tS'b'
tRp168
(I1
(tg8
I00
S'}}}?'
tbag4
(g5
(I0
tS'b'
tRp169
(I1
(tg8
I00
S'}}}?'
tbag4
(g5
(I0
tS'b'
tRp170
(I1
(tg8
I00
S'}}}?'
tbag4
(g5
(I0
tS'b'
tRp171
(I1
(tg8
I00
S'}}}?'
tbag4
(g5
(I0
tS'b'
tRp172
(I1
(tg8
I00
S'}}}?'
tbag4
(g5
(I0
tS'b'
tRp173
(I1
(tg8
I00
S'}}}?'
tbag4
(g5
(I0
tS'b'
tRp174
(I1
(tg8
I00
S'}}}?'
tbag4
(g5
(I0
tS'b'
tRp175
(I1
(tg8
I00
S'}}}?'
tbag4
(g5
(I0
tS'b'
tRp176
(I1
(tg8
I00
S'}}}?'
tbag4
(g5
(I0
tS'b'
tRp177
(I1
(tg8
I00
S'}}}?'
tbag4
(g5
(I0
tS'b'
tRp178
(I1
(tg8
I00
S'}}}?'
tbag4
(g5
(I0
tS'b'
tRp179
(I1
(tg8
I00
S'}}}?'
tbag4
(g5
(I0
tS'b'
tRp180
(I1
(tg8
I00
S'}}}?'
tbag4
(g5
(I0
tS'b'
tRp181
(I1
(tg8
I00
S'}}}?'
tbag4
(g5
(I0
tS'b'
tRp182
(I1
(tg8
I00
S'}}}?'
tbag4
(g5
(I0
tS'b'
tRp183
(I1
(tg8
I00
S'}}}?'
tbag4
(g5
(I0
tS'b'
tRp184
(I1
(tg8
I00
S'}}}?'
tbag4
(g5
(I0
tS'b'
tRp185
(I1
(tg8
I00
S'}}}?'
tbag4
(g5
(I0
tS'b'
tRp186
(I1
(tg8
I00
S'}}}?'
tbag4
(g5
(I0
tS'b'
tRp187
(I1
(tg8
I00
S'}}}?'
tbag4
(g5
(I0
tS'b'
tRp188
(I1
(tg8
I00
S'}}}?'
tbag4
(g5
(I0
tS'b'
tRp189
(I1
(tg8
I00
S'}}}?'
tbag4
(g5
(I0
tS'b'
tRp190
(I1
(tg8
I00
S'}}}?'
tbag4
(g5
(I0
tS'b'
tRp191
(I1
(tg8
I00
S'}}}?'
tbag4
(g5
(I0
tS'b'
tRp192
(I1
(tg8
I00
S'}}}?'
tbag4
(g5
(I0
tS'b'
tRp193
(I1
(tg8
I00
S'}}}?'
tbag4
(g5
(I0
tS'b'
tRp194
(I1
(tg8
I00
S'}}}?'
tbag4
(g5
(I0
tS'b'
tRp195
(I1
(tg8
I00
S'}}}?'
tbag4
(g5
(I0
tS'b'
tRp196
(I1
(tg8
I00
S'}}}?'
tbag4
(g5
(I0
tS'b'
tRp197
(I1
(tg8
I00
S'}}}?'
tbag4
(g5
(I0
tS'b'
tRp198
(I1
(tg8
I00
S'}}}?'
tbag4
(g5
(I0
tS'b'
tRp199
(I1
(tg8
I00
S'}}}?'
tbag4
(g5
(I0
tS'b'
tRp200
(I1
(tg8
I00
S'}}}?'
tbag4
(g5
(I0
tS'b'
tRp201
(I1
(tg8
I00
S'}}}?'
tbag4
(g5
(I0
tS'b'
tRp202
(I1
(tg8
I00
S'}}}?'
tbag4
(g5
(I0
tS'b'
tRp203
(I1
(tg8
I00
S'}}}?'
tbag4
(g5
(I0
tS'b'
tRp204
(I1
(tg8
I00
S'}}}?'
tbag4
(g5
(I0
tS'b'
tRp205
(I1
(tg8
I00
S'}}}?'
tbag4
(g5
(I0
tS'b'
tRp206
(I1
(tg8
I00
S'}}}?'
tbag4
(g5
(I0
tS'b'
tRp207
(I1
(tg8
I00
S'}}}?'
tbag4
(g5
(I0
tS'b'
tRp208
(I1
(tg8
I00
S'}}}?'
tbag4
(g5
(I0
tS'b'
tRp209
(I1
(tg8
I00
S'}}}?'
tbag4
(g5
(I0
tS'b'
tRp210
(I1
(tg8
I00
S'}}}?'
tbag4
(g5
(I0
tS'b'
tRp211
(I1
(tg8
I00
S'}}}?'
tbag4
(g5
(I0
tS'b'
tRp212
(I1
(tg8
I00
S'}}}?'
tbag4
(g5
(I0
tS'b'
tRp213
(I1
(tg8
I00
S'}}}?'
tbag4
(g5
(I0
tS'b'
tRp214
(I1
(tg8
I00
S'}}}?'
tbag4
(g5
(I0
tS'b'
tRp215
(I1
(tg8
I00
S'}}}?'
tbag4
(g5
(I0
tS'b'
tRp216
(I1
(tg8
I00
S'}}}?'
tbag4
(g5
(I0
tS'b'
tRp217
(I1
(tg8
I00
S'}}}?'
tbag4
(g5
(I0
tS'b'
tRp218
(I1
(tg8
I00
S'}}}?'
tbag4
(g5
(I0
tS'b'
tRp219
(I1
(tg8
I00
S'}}}?'
tbag4
(g5
(I0
tS'b'
tRp220
(I1
(tg8
I00
S'}}}?'
tbag4
(g5
(I0
tS'b'
tRp221
(I1
(tg8
I00
S'}}}?'
tbag4
(g5
(I0
tS'b'
tRp222
(I1
(tg8
I00
S'}}}?'
tbag4
(g5
(I0
tS'b'
tRp223
(I1
(tg8
I00
S'}}}?'
tbag4
(g5
(I0
tS'b'
tRp224
(I1
(tg8
I00
S'}}}?'
tbag4
(g5
(I0
tS'b'
tRp225
(I1
(tg8
I00
S'}}}?'
tbag4
(g5
(I0
tS'b'
tRp226
(I1
(tg8
I00
S'}}}?'
tbag4
(g5
(I0
tS'b'
tRp227
(I1
(tg8
I00
S'}}}?'
tbag4
(g5
(I0
tS'b'
tRp228
(I1
(tg8
I00
S'}}}?'
tbag4
(g5
(I0
tS'b'
tRp229
(I1
(tg8
I00
S'}}}?'
tbag4
(g5
(I0
tS'b'
tRp230
(I1
(tg8
I00
S'}}}?'
tbag4
(g5
(I0
tS'b'
tRp231
(I1
(tg8
I00
S'}}}?'
tbag4
(g5
(I0
tS'b'
tRp232
(I1
(tg8
I00
S'}}}?'
tbag4
(g5
(I0
tS'b'
tRp233
(I1
(tg8
I00
S'}}}?'
tbag4
(g5
(I0
tS'b'
tRp234
(I1
(tg8
I00
S'}}}?'
tbag4
(g5
(I0
tS'b'
tRp235
(I1
(tg8
I00
S'}}}?'
tbag4
(g5
(I0
tS'b'
tRp236
(I1
(tg8
I00
S'}}}?'
tbag4
(g5
(I0
tS'b'
tRp237
(I1
(tg8
I00
S'}}}?'
tbag4
(g5
(I0
tS'b'
tRp238
(I1
(tg8
I00
S'}}}?'
tbag4
(g5
(I0
tS'b'
tRp239
(I1
(tg8
I00
S'}}}?'
tbag4
(g5
(I0
tS'b'
tRp240
(I1
(tg8
I00
S'}}}?'
tbag4
(g5
(I0
tS'b'
tRp241
(I1
(tg8
I00
S'}}}?'
tbag4
(g5
(I0
tS'b'
tRp242
(I1
(tg8
I00
S'}}}?'
tbag4
(g5
(I0
tS'b'
tRp243
(I1
(tg8
I00
S'}}}?'
tbag4
(g5
(I0
tS'b'
tRp244
(I1
(tg8
I00
S'}}}?'
tbag4
(g5
(I0
tS'b'
tRp245
(I1
(tg8
I00
S'}}}?'
tbag4
(g5
(I0
tS'b'
tRp246
(I1
(tg8
I00
S'}}}?'
tbag4
(g5
(I0
tS'b'
tRp247
(I1
(tg8
I00
S'}}}?'
tbag4
(g5
(I0
tS'b'
tRp248
(I1
(tg8
I00
S'}}}?'
tbag4
(g5
(I0
tS'b'
tRp249
(I1
(tg8
I00
S'}}}?'
tbag4
(g5
(I0
tS'b'
tRp250
(I1
(tg8
I00
S'}}}?'
tbag4
(g5
(I0
tS'b'
tRp251
(I1
(tg8
I00
S'}}}?'
tbag4
(g5
(I0
tS'b'
tRp252
(I1
(tg8
I00
S'}}}?'
tbag4
(g5
(I0
tS'b'
tRp253
(I1
(tg8
I00
S'}}}?'
tbag4
(g5
(I0
tS'b'
tRp254
(I1
(tg8
I00
S'}}}?'
tbag4
(g5
(I0
tS'b'
tRp255
(I1
(tg8
I00
S'}}}?'
tbag4
(g5
(I0
tS'b'
tRp256
(I1
(tg8
I00
S'}}}?'
tbag4
(g5
(I0
tS'b'
tRp257
(I1
(tg8
I00
S'}}}?'
tbag4
(g5
(I0
tS'b'
tRp258
(I1
(tg8
I00
S'}}}?'
tbag4
(g5
(I0
tS'b'
tRp259
(I1
(tg8
I00
S'}}}?'
tbag4
(g5
(I0
tS'b'
tRp260
(I1
(tg8
I00
S'}}}?'
tbag4
(g5
(I0
tS'b'
tRp261
(I1
(tg8
I00
S'}}}?'
tbag4
(g5
(I0
tS'b'
tRp262
(I1
(tg8
I00
S'}}}?'
tbag4
(g5
(I0
tS'b'
tRp263
(I1
(tg8
I00
S'}}}?'
tbag4
(g5
(I0
tS'b'
tRp264
(I1
(tg8
I00
S'}}}?'
tbag4
(g5
(I0
tS'b'
tRp265
(I1
(tg8
I00
S'}}}?'
tbag4
(g5
(I0
tS'b'
tRp266
(I1
(tg8
I00
S'}}}?'
tbag4
(g5
(I0
tS'b'
tRp267
(I1
(tg8
I00
S'}}}?'
tbag4
(g5
(I0
tS'b'
tRp268
(I1
(tg8
I00
S'}}}?'
tbag4
(g5
(I0
tS'b'
tRp269
(I1
(tg8
I00
S'}}}?'
tbag4
(g5
(I0
tS'b'
tRp270
(I1
(tg8
I00
S'}}}?'
tbag4
(g5
(I0
tS'b'
tRp271
(I1
(tg8
I00
S'}}}?'
tbag4
(g5
(I0
tS'b'
tRp272
(I1
(tg8
I00
S'}}}?'
tbag4
(g5
(I0
tS'b'
tRp273
(I1
(tg8
I00
S'}}}?'
tbag4
(g5
(I0
tS'b'
tRp274
(I1
(tg8
I00
S'}}}?'
tbag4
(g5
(I0
tS'b'
tRp275
(I1
(tg8
I00
S'}}}?'
tbag4
(g5
(I0
tS'b'
tRp276
(I1
(tg8
I00
S'}}}?'
tbag4
(g5
(I0
tS'b'
tRp277
(I1
(tg8
I00
S'}}}?'
tbag4
(g5
(I0
tS'b'
tRp278
(I1
(tg8
I00
S'}}}?'
tbag4
(g5
(I0
tS'b'
tRp279
(I1
(tg8
I00
S'}}}?'
tbag4
(g5
(I0
tS'b'
tRp280
(I1
(tg8
I00
S'}}}?'
tbag4
(g5
(I0
tS'b'
tRp281
(I1
(tg8
I00
S'}}}?'
tbag4
(g5
(I0
tS'b'
tRp282
(I1
(tg8
I00
S'}}}?'
tbag4
(g5
(I0
tS'b'
tRp283
(I1
(tg8
I00
S'}}}?'
tbag4
(g5
(I0
tS'b'
tRp284
(I1
(tg8
I00
S'}}}?'
tbag4
(g5
(I0
tS'b'
tRp285
(I1
(tg8
I00
S'}}}?'
tbag4
(g5
(I0
tS'b'
tRp286
(I1
(tg8
I00
S'}}}?'
tbag4
(g5
(I0
tS'b'
tRp287
(I1
(tg8
I00
S'}}}?'
tbag4
(g5
(I0
tS'b'
tRp288
(I1
(tg8
I00
S'}}}?'
tbag4
(g5
(I0
tS'b'
tRp289
(I1
(tg8
I00
S'}}}?'
tbag4
(g5
(I0
tS'b'
tRp290
(I1
(tg8
I00
S'}}}?'
tbag4
(g5
(I0
tS'b'
tRp291
(I1
(tg8
I00
S'}}}?'
tbag4
(g5
(I0
tS'b'
tRp292
(I1
(tg8
I00
S'}}}?'
tbag4
(g5
(I0
tS'b'
tRp293
(I1
(tg8
I00
S'}}}?'
tbag4
(g5
(I0
tS'b'
tRp294
(I1
(tg8
I00
S'}}}?'
tbag4
(g5
(I0
tS'b'
tRp295
(I1
(tg8
I00
S'}}}?'
tbag4
(g5
(I0
tS'b'
tRp296
(I1
(tg8
I00
S'}}}?'
tbag4
(g5
(I0
tS'b'
tRp297
(I1
(tg8
I00
S'}}}?'
tbag4
(g5
(I0
tS'b'
tRp298
(I1
(tg8
I00
S'}}}?'
tbag4
(g5
(I0
tS'b'
tRp299
(I1
(tg8
I00
S'}}}?'
tbag4
(g5
(I0
tS'b'
tRp300
(I1
(tg8
I00
S'}}}?'
tbag4
(g5
(I0
tS'b'
tRp301
(I1
(tg8
I00
S'}}}?'
tbag4
(g5
(I0
tS'b'
tRp302
(I1
(tg8
I00
S'}}}?'
tbag4
(g5
(I0
tS'b'
tRp303
(I1
(tg8
I00
S'}}}?'
tbag4
(g5
(I0
tS'b'
tRp304
(I1
(tg8
I00
S'}}}?'
tbag4
(g5
(I0
tS'b'
tRp305
(I1
(tg8
I00
S'}}}?'
tbag4
(g5
(I0
tS'b'
tRp306
(I1
(tg8
I00
S'}}}?'
tbag4
(g5
(I0
tS'b'
tRp307
(I1
(tg8
I00
S'}}}?'
tbag4
(g5
(I0
tS'b'
tRp308
(I1
(tg8
I00
S'}}}?'
tbag4
(g5
(I0
tS'b'
tRp309
(I1
(tg8
I00
S'}}}?'
tbag4
(g5
(I0
tS'b'
tRp310
(I1
(tg8
I00
S'}}}?'
tbag4
(g5
(I0
tS'b'
tRp311
(I1
(tg8
I00
S'}}}?'
tbag4
(g5
(I0
tS'b'
tRp312
(I1
(tg8
I00
S'}}}?'
tbag4
(g5
(I0
tS'b'
tRp313
(I1
(tg8
I00
S'}}}?'
tbag4
(g5
(I0
tS'b'
tRp314
(I1
(tg8
I00
S'}}}?'
tbag4
(g5
(I0
tS'b'
tRp315
(I1
(tg8
I00
S'}}}?'
tbag4
(g5
(I0
tS'b'
tRp316
(I1
(tg8
I00
S'}}}?'
tbag4
(g5
(I0
tS'b'
tRp317
(I1
(tg8
I00
S'}}}?'
tbag4
(g5
(I0
tS'b'
tRp318
(I1
(tg8
I00
S'}}}?'
tbag4
(g5
(I0
tS'b'
tRp319
(I1
(tg8
I00
S'}}}?'
tbag4
(g5
(I0
tS'b'
tRp320
(I1
(tg8
I00
S'}}}?'
tbag4
(g5
(I0
tS'b'
tRp321
(I1
(tg8
I00
S'}}}?'
tbag4
(g5
(I0
tS'b'
tRp322
(I1
(tg8
I00
S'}}}?'
tbag4
(g5
(I0
tS'b'
tRp323
(I1
(tg8
I00
S'}}}?'
tbag4
(g5
(I0
tS'b'
tRp324
(I1
(tg8
I00
S'}}}?'
tbag4
(g5
(I0
tS'b'
tRp325
(I1
(tg8
I00
S'}}}?'
tbag4
(g5
(I0
tS'b'
tRp326
(I1
(tg8
I00
S'}}}?'
tbag4
(g5
(I0
tS'b'
tRp327
(I1
(tg8
I00
S'}}}?'
tbag4
(g5
(I0
tS'b'
tRp328
(I1
(tg8
I00
S'}}}?'
tbag4
(g5
(I0
tS'b'
tRp329
(I1
(tg8
I00
S'}}}?'
tbag4
(g5
(I0
tS'b'
tRp330
(I1
(tg8
I00
S'}}}?'
tbag4
(g5
(I0
tS'b'
tRp331
(I1
(tg8
I00
S'}}}?'
tbag4
(g5
(I0
tS'b'
tRp332
(I1
(tg8
I00
S'}}}?'
tbag4
(g5
(I0
tS'b'
tRp333
(I1
(tg8
I00
S'}}}?'
tbag4
(g5
(I0
tS'b'
tRp334
(I1
(tg8
I00
S'}}}?'
tbag4
(g5
(I0
tS'b'
tRp335
(I1
(tg8
I00
S'}}}?'
tbag4
(g5
(I0
tS'b'
tRp336
(I1
(tg8
I00
S'}}}?'
tbag4
(g5
(I0
tS'b'
tRp337
(I1
(tg8
I00
S'}}}?'
tbag4
(g5
(I0
tS'b'
tRp338
(I1
(tg8
I00
S'}}}?'
tbag4
(g5
(I0
tS'b'
tRp339
(I1
(tg8
I00
S'}}}?'
tbag4
(g5
(I0
tS'b'
tRp340
(I1
(tg8
I00
S'}}}?'
tbag4
(g5
(I0
tS'b'
tRp341
(I1
(tg8
I00
S'}}}?'
tbag4
(g5
(I0
tS'b'
tRp342
(I1
(tg8
I00
S'}}}?'
tbag4
(g5
(I0
tS'b'
tRp343
(I1
(tg8
I00
S'}}}?'
tbag4
(g5
(I0
tS'b'
tRp344
(I1
(tg8
I00
S'}}}?'
tbag4
(g5
(I0
tS'b'
tRp345
(I1
(tg8
I00
S'}}}?'
tbag4
(g5
(I0
tS'b'
tRp346
(I1
(tg8
I00
S'}}}?'
tbag4
(g5
(I0
tS'b'
tRp347
(I1
(tg8
I00
S'}}}?'
tbag4
(g5
(I0
tS'b'
tRp348
(I1
(tg8
I00
S'}}}?'
tbag4
(g5
(I0
tS'b'
tRp349
(I1
(tg8
I00
S'}}}?'
tbag4
(g5
(I0
tS'b'
tRp350
(I1
(tg8
I00
S'}}}?'
tbag4
(g5
(I0
tS'b'
tRp351
(I1
(tg8
I00
S'}}}?'
tbag4
(g5
(I0
tS'b'
tRp352
(I1
(tg8
I00
S'}}}?'
tbag4
(g5
(I0
tS'b'
tRp353
(I1
(tg8
I00
S'}}}?'
tbag4
(g5
(I0
tS'b'
tRp354
(I1
(tg8
I00
S'}}}?'
tbag4
(g5
(I0
tS'b'
tRp355
(I1
(tg8
I00
S'}}}?'
tbag4
(g5
(I0
tS'b'
tRp356
(I1
(tg8
I00
S'}}}?'
tbag4
(g5
(I0
tS'b'
tRp357
(I1
(tg8
I00
S'}}}?'
tbag4
(g5
(I0
tS'b'
tRp358
(I1
(tg8
I00
S'}}}?'
tbag4
(g5
(I0
tS'b'
tRp359
(I1
(tg8
I00
S'}}}?'
tbag4
(g5
(I0
tS'b'
tRp360
(I1
(tg8
I00
S'}}}?'
tbag4
(g5
(I0
tS'b'
tRp361
(I1
(tg8
I00
S'}}}?'
tbag4
(g5
(I0
tS'b'
tRp362
(I1
(tg8
I00
S'}}}?'
tbag4
(g5
(I0
tS'b'
tRp363
(I1
(tg8
I00
S'}}}?'
tbag4
(g5
(I0
tS'b'
tRp364
(I1
(tg8
I00
S'}}}?'
tbag4
(g5
(I0
tS'b'
tRp365
(I1
(tg8
I00
S'}}}?'
tbag4
(g5
(I0
tS'b'
tRp366
(I1
(tg8
I00
S'}}}?'
tbag4
(g5
(I0
tS'b'
tRp367
(I1
(tg8
I00
S'}}}?'
tbag4
(g5
(I0
tS'b'
tRp368
(I1
(tg8
I00
S'}}}?'
tbag4
(g5
(I0
tS'b'
tRp369
(I1
(tg8
I00
S'}}}?'
tbag4
(g5
(I0
tS'b'
tRp370
(I1
(tg8
I00
S'}}}?'
tbag4
(g5
(I0
tS'b'
tRp371
(I1
(tg8
I00
S'}}}?'
tbag4
(g5
(I0
tS'b'
tRp372
(I1
(tg8
I00
S'}}}?'
tbag4
(g5
(I0
tS'b'
tRp373
(I1
(tg8
I00
S'}}}?'
tbag4
(g5
(I0
tS'b'
tRp374
(I1
(tg8
I00
S'}}}?'
tbag4
(g5
(I0
tS'b'
tRp375
(I1
(tg8
I00
S'}}}?'
tbag4
(g5
(I0
tS'b'
tRp376
(I1
(tg8
I00
S'}}}?'
tbag4
(g5
(I0
tS'b'
tRp377
(I1
(tg8
I00
S'}}}?'
tbag4
(g5
(I0
tS'b'
tRp378
(I1
(tg8
I00
S'}}}?'
tbag4
(g5
(I0
tS'b'
tRp379
(I1
(tg8
I00
S'}}}?'
tbag4
(g5
(I0
tS'b'
tRp380
(I1
(tg8
I00
S'}}}?'
tbag4
(g5
(I0
tS'b'
tRp381
(I1
(tg8
I00
S'}}}?'
tbag4
(g5
(I0
tS'b'
tRp382
(I1
(tg8
I00
S'}}}?'
tbag4
(g5
(I0
tS'b'
tRp383
(I1
(tg8
I00
S'}}}?'
tbag4
(g5
(I0
tS'b'
tRp384
(I1
(tg8
I00
S'}}}?'
tbag4
(g5
(I0
tS'b'
tRp385
(I1
(tg8
I00
S'}}}?'
tbag4
(g5
(I0
tS'b'
tRp386
(I1
(tg8
I00
S'}}}?'
tbag4
(g5
(I0
tS'b'
tRp387
(I1
(tg8
I00
S'}}}?'
tbag4
(g5
(I0
tS'b'
tRp388
(I1
(tg8
I00
S'}}}?'
tbag4
(g5
(I0
tS'b'
tRp389
(I1
(tg8
I00
S'}}}?'
tbag4
(g5
(I0
tS'b'
tRp390
(I1
(tg8
I00
S'}}}?'
tbag4
(g5
(I0
tS'b'
tRp391
(I1
(tg8
I00
S'}}}?'
tbag4
(g5
(I0
tS'b'
tRp392
(I1
(tg8
I00
S'}}}?'
tbag4
(g5
(I0
tS'b'
tRp393
(I1
(tg8
I00
S'}}}?'
tbag4
(g5
(I0
tS'b'
tRp394
(I1
(tg8
I00
S'}}}?'
tbag4
(g5
(I0
tS'b'
tRp395
(I1
(tg8
I00
S'}}}?'
tbag4
(g5
(I0
tS'b'
tRp396
(I1
(tg8
I00
S'}}}?'
tbag4
(g5
(I0
tS'b'
tRp397
(I1
(tg8
I00
S'}}}?'
tbag4
(g5
(I0
tS'b'
tRp398
(I1
(tg8
I00
S'}}}?'
tbag4
(g5
(I0
tS'b'
tRp399
(I1
(tg8
I00
S'}}}?'
tbag4
(g5
(I0
tS'b'
tRp400
(I1
(tg8
I00
S'}}}?'
tbag4
(g5
(I0
tS'b'
tRp401
(I1
(tg8
I00
S'}}}?'
tbag4
(g5
(I0
tS'b'
tRp402
(I1
(tg8
I00
S'}}}?'
tbag4
(g5
(I0
tS'b'
tRp403
(I1
(tg8
I00
S'}}}?'
tbag4
(g5
(I0
tS'b'
tRp404
(I1
(tg8
I00
S'}}}?'
tbag4
(g5
(I0
tS'b'
tRp405
(I1
(tg8
I00
S'}}}?'
tbag4
(g5
(I0
tS'b'
tRp406
(I1
(tg8
I00
S'}}}?'
tbag4
(g5
(I0
tS'b'
tRp407
(I1
(tg8
I00
S'}}}?'
tbag4
(g5
(I0
tS'b'
tRp408
(I1
(tg8
I00
S'}}}?'
tbag4
(g5
(I0
tS'b'
tRp409
(I1
(tg8
I00
S'}}}?'
tbag4
(g5
(I0
tS'b'
tRp410
(I1
(tg8
I00
S'}}}?'
tbag4
(g5
(I0
tS'b'
tRp411
(I1
(tg8
I00
S'}}}?'
tbag4
(g5
(I0
tS'b'
tRp412
(I1
(tg8
I00
S'}}}?'
tbag4
(g5
(I0
tS'b'
tRp413
(I1
(tg8
I00
S'}}}?'
tbag4
(g5
(I0
tS'b'
tRp414
(I1
(tg8
I00
S'}}}?'
tbag4
(g5
(I0
tS'b'
tRp415
(I1
(tg8
I00
S'}}}?'
tbag4
(g5
(I0
tS'b'
tRp416
(I1
(tg8
I00
S'}}}?'
tbag4
(g5
(I0
tS'b'
tRp417
(I1
(tg8
I00
S'}}}?'
tbag4
(g5
(I0
tS'b'
tRp418
(I1
(tg8
I00
S'}}}?'
tbag4
(g5
(I0
tS'b'
tRp419
(I1
(tg8
I00
S'}}}?'
tbag4
(g5
(I0
tS'b'
tRp420
(I1
(tg8
I00
S'}}}?'
tbag4
(g5
(I0
tS'b'
tRp421
(I1
(tg8
I00
S'}}}?'
tbag4
(g5
(I0
tS'b'
tRp422
(I1
(tg8
I00
S'}}}?'
tbag4
(g5
(I0
tS'b'
tRp423
(I1
(tg8
I00
S'}}}?'
tbag4
(g5
(I0
tS'b'
tRp424
(I1
(tg8
I00
S'}}}?'
tbag4
(g5
(I0
tS'b'
tRp425
(I1
(tg8
I00
S'}}}?'
tbag4
(g5
(I0
tS'b'
tRp426
(I1
(tg8
I00
S'}}}?'
tbag4
(g5
(I0
tS'b'
tRp427
(I1
(tg8
I00
S'}}}?'
tbag4
(g5
(I0
tS'b'
tRp428
(I1
(tg8
I00
S'}}}?'
tbag4
(g5
(I0
tS'b'
tRp429
(I1
(tg8
I00
S'}}}?'
tbag4
(g5
(I0
tS'b'
tRp430
(I1
(tg8
I00
S'}}}?'
tbag4
(g5
(I0
tS'b'
tRp431
(I1
(tg8
I00
S'}}}?'
tbag4
(g5
(I0
tS'b'
tRp432
(I1
(tg8
I00
S'}}}?'
tbag4
(g5
(I0
tS'b'
tRp433
(I1
(tg8
I00
S'}}}?'
tbag4
(g5
(I0
tS'b'
tRp434
(I1
(tg8
I00
S'}}}?'
tbag4
(g5
(I0
tS'b'
tRp435
(I1
(tg8
I00
S'}}}?'
tbag4
(g5
(I0
tS'b'
tRp436
(I1
(tg8
I00
S'}}}?'
tbag4
(g5
(I0
tS'b'
tRp437
(I1
(tg8
I00
S'}}}?'
tbag4
(g5
(I0
tS'b'
tRp438
(I1
(tg8
I00
S'}}}?'
tbag4
(g5
(I0
tS'b'
tRp439
(I1
(tg8
I00
S'}}}?'
tbag4
(g5
(I0
tS'b'
tRp440
(I1
(tg8
I00
S'}}}?'
tbag4
(g5
(I0
tS'b'
tRp441
(I1
(tg8
I00
S'}}}?'
tbag4
(g5
(I0
tS'b'
tRp442
(I1
(tg8
I00
S'}}}?'
tbag4
(g5
(I0
tS'b'
tRp443
(I1
(tg8
I00
S'}}}?'
tbag4
(g5
(I0
tS'b'
tRp444
(I1
(tg8
I00
S'}}}?'
tbag4
(g5
(I0
tS'b'
tRp445
(I1
(tg8
I00
S'}}}?'
tbag4
(g5
(I0
tS'b'
tRp446
(I1
(tg8
I00
S'}}}?'
tbag4
(g5
(I0
tS'b'
tRp447
(I1
(tg8
I00
S'}}}?'
tbag4
(g5
(I0
tS'b'
tRp448
(I1
(tg8
I00
S'}}}?'
tbag4
(g5
(I0
tS'b'
tRp449
(I1
(tg8
I00
S'}}}?'
tbag4
(g5
(I0
tS'b'
tRp450
(I1
(tg8
I00
S'}}}?'
tbag4
(g5
(I0
tS'b'
tRp451
(I1
(tg8
I00
S'}}}?'
tbag4
(g5
(I0
tS'b'
tRp452
(I1
(tg8
I00
S'}}}?'
tbag4
(g5
(I0
tS'b'
tRp453
(I1
(tg8
I00
S'}}}?'
tbag4
(g5
(I0
tS'b'
tRp454
(I1
(tg8
I00
S'}}}?'
tbag4
(g5
(I0
tS'b'
tRp455
(I1
(tg8
I00
S'}}}?'
tbag4
(g5
(I0
tS'b'
tRp456
(I1
(tg8
I00
S'}}}?'
tbag4
(g5
(I0
tS'b'
tRp457
(I1
(tg8
I00
S'}}}?'
tbag4
(g5
(I0
tS'b'
tRp458
(I1
(tg8
I00
S'}}}?'
tbag4
(g5
(I0
tS'b'
tRp459
(I1
(tg8
I00
S'}}}?'
tbag4
(g5
(I0
tS'b'
tRp460
(I1
(tg8
I00
S'}}}?'
tbag4
(g5
(I0
tS'b'
tRp461
(I1
(tg8
I00
S'}}}?'
tbag4
(g5
(I0
tS'b'
tRp462
(I1
(tg8
I00
S'}}}?'
tbag4
(g5
(I0
tS'b'
tRp463
(I1
(tg8
I00
S'}}}?'
tbag4
(g5
(I0
tS'b'
tRp464
(I1
(tg8
I00
S'}}}?'
tbag4
(g5
(I0
tS'b'
tRp465
(I1
(tg8
I00
S'}}}?'
tbag4
(g5
(I0
tS'b'
tRp466
(I1
(tg8
I00
S'}}}?'
tbag4
(g5
(I0
tS'b'
tRp467
(I1
(tg8
I00
S'}}}?'
tbag4
(g5
(I0
tS'b'
tRp468
(I1
(tg8
I00
S'}}}?'
tbag4
(g5
(I0
tS'b'
tRp469
(I1
(tg8
I00
S'}}}?'
tbag4
(g5
(I0
tS'b'
tRp470
(I1
(tg8
I00
S'}}}?'
tbag4
(g5
(I0
tS'b'
tRp471
(I1
(tg8
I00
S'}}}?'
tbag4
(g5
(I0
tS'b'
tRp472
(I1
(tg8
I00
S'}}}?'
tbag4
(g5
(I0
tS'b'
tRp473
(I1
(tg8
I00
S'}}}?'
tbag4
(g5
(I0
tS'b'
tRp474
(I1
(tg8
I00
S'}}}?'
tbag4
(g5
(I0
tS'b'
tRp475
(I1
(tg8
I00
S'}}}?'
tbag4
(g5
(I0
tS'b'
tRp476
(I1
(tg8
I00
S'}}}?'
tbag4
(g5
(I0
tS'b'
tRp477
(I1
(tg8
I00
S'}}}?'
tbag4
(g5
(I0
tS'b'
tRp478
(I1
(tg8
I00
S'}}}?'
tbag4
(g5
(I0
tS'b'
tRp479
(I1
(tg8
I00
S'}}}?'
tbag4
(g5
(I0
tS'b'
tRp480
(I1
(tg8
I00
S'}}}?'
tbag4
(g5
(I0
tS'b'
tRp481
(I1
(tg8
I00
S'}}}?'
tbag4
(g5
(I0
tS'b'
tRp482
(I1
(tg8
I00
S'}}}?'
tbag4
(g5
(I0
tS'b'
tRp483
(I1
(tg8
I00
S'}}}?'
tbag4
(g5
(I0
tS'b'
tRp484
(I1
(tg8
I00
S'}}}?'
tbag4
(g5
(I0
tS'b'
tRp485
(I1
(tg8
I00
S'}}}?'
tbag4
(g5
(I0
tS'b'
tRp486
(I1
(tg8
I00
S'}}}?'
tbag4
(g5
(I0
tS'b'
tRp487
(I1
(tg8
I00
S'}}}?'
tbag4
(g5
(I0
tS'b'
tRp488
(I1
(tg8
I00
S'}}}?'
tbag4
(g5
(I0
tS'b'
tRp489
(I1
(tg8
I00
S'}}}?'
tbag4
(g5
(I0
tS'b'
tRp490
(I1
(tg8
I00
S'}}}?'
tbag4
(g5
(I0
tS'b'
tRp491
(I1
(tg8
I00
S'}}}?'
tbag4
(g5
(I0
tS'b'
tRp492
(I1
(tg8
I00
S'}}}?'
tbag4
(g5
(I0
tS'b'
tRp493
(I1
(tg8
I00
S'}}}?'
tbag4
(g5
(I0
tS'b'
tRp494
(I1
(tg8
I00
S'}}}?'
tbag4
(g5
(I0
tS'b'
tRp495
(I1
(tg8
I00
S'}}}?'
tbag4
(g5
(I0
tS'b'
tRp496
(I1
(tg8
I00
S'}}}?'
tbag4
(g5
(I0
tS'b'
tRp497
(I1
(tg8
I00
S'}}}?'
tbag4
(g5
(I0
tS'b'
tRp498
(I1
(tg8
I00
S'}}}?'
tbag4
(g5
(I0
tS'b'
tRp499
(I1
(tg8
I00
S'}}}?'
tbag4
(g5
(I0
tS'b'
tRp500
(I1
(tg8
I00
S'}}}?'
tbag4
(g5
(I0
tS'b'
tRp501
(I1
(tg8
I00
S'}}}?'
tbag4
(g5
(I0
tS'b'
tRp502
(I1
(tg8
I00
S'}}}?'
tbag4
(g5
(I0
tS'b'
tRp503
(I1
(tg8
I00
S'}}}?'
tbag4
(g5
(I0
tS'b'
tRp504
(I1
(tg8
I00
S'}}}?'
tbag4
(g5
(I0
tS'b'
tRp505
(I1
(tg8
I00
S'}}}?'
tbag4
(g5
(I0
tS'b'
tRp506
(I1
(tg8
I00
S'}}}?'
tbag4
(g5
(I0
tS'b'
tRp507
(I1
(tg8
I00
S'}}}?'
tbag4
(g5
(I0
tS'b'
tRp508
(I1
(tg8
I00
S'}}}?'
tbag4
(g5
(I0
tS'b'
tRp509
(I1
(tg8
I00
S'}}}?'
tbag4
(g5
(I0
tS'b'
tRp510
(I1
(tg8
I00
S'}}}?'
tbag4
(g5
(I0
tS'b'
tRp511
(I1
(tg8
I00
S'}}}?'
tbag4
(g5
(I0
tS'b'
tRp512
(I1
(tg8
I00
S'}}}?'
tbag4
(g5
(I0
tS'b'
tRp513
(I1
(tg8
I00
S'}}}?'
tbag4
(g5
(I0
tS'b'
tRp514
(I1
(tg8
I00
S'}}}?'
tbag4
(g5
(I0
tS'b'
tRp515
(I1
(tg8
I00
S'}}}?'
tbag4
(g5
(I0
tS'b'
tRp516
(I1
(tg8
I00
S'}}}?'
tbag4
(g5
(I0
tS'b'
tRp517
(I1
(tg8
I00
S'}}}?'
tbag4
(g5
(I0
tS'b'
tRp518
(I1
(tg8
I00
S'}}}?'
tbag4
(g5
(I0
tS'b'
tRp519
(I1
(tg8
I00
S'}}}?'
tbag4
(g5
(I0
tS'b'
tRp520
(I1
(tg8
I00
S'}}}?'
tbag4
(g5
(I0
tS'b'
tRp521
(I1
(tg8
I00
S'}}}?'
tbag4
(g5
(I0
tS'b'
tRp522
(I1
(tg8
I00
S'}}}?'
tbag4
(g5
(I0
tS'b'
tRp523
(I1
(tg8
I00
S'}}}?'
tbag4
(g5
(I0
tS'b'
tRp524
(I1
(tg8
I00
S'}}}?'
tbag4
(g5
(I0
tS'b'
tRp525
(I1
(tg8
I00
S'}}}?'
tbag4
(g5
(I0
tS'b'
tRp526
(I1
(tg8
I00
S'}}}?'
tbag4
(g5
(I0
tS'b'
tRp527
(I1
(tg8
I00
S'}}}?'
tbag4
(g5
(I0
tS'b'
tRp528
(I1
(tg8
I00
S'}}}?'
tbag4
(g5
(I0
tS'b'
tRp529
(I1
(tg8
I00
S'}}}?'
tbag4
(g5
(I0
tS'b'
tRp530
(I1
(tg8
I00
S'}}}?'
tbag4
(g5
(I0
tS'b'
tRp531
(I1
(tg8
I00
S'}}}?'
tbag4
(g5
(I0
tS'b'
tRp532
(I1
(tg8
I00
S'}}}?'
tbag4
(g5
(I0
tS'b'
tRp533
(I1
(tg8
I00
S'}}}?'
tbag4
(g5
(I0
tS'b'
tRp534
(I1
(tg8
I00
S'}}}?'
tbag4
(g5
(I0
tS'b'
tRp535
(I1
(tg8
I00
S'}}}?'
tbag4
(g5
(I0
tS'b'
tRp536
(I1
(tg8
I00
S'}}}?'
tbag4
(g5
(I0
tS'b'
tRp537
(I1
(tg8
I00
S'}}}?'
tbag4
(g5
(I0
tS'b'
tRp538
(I1
(tg8
I00
S'}}}?'
tbag4
(g5
(I0
tS'b'
tRp539
(I1
(tg8
I00
S'}}}?'
tbag4
(g5
(I0
tS'b'
tRp540
(I1
(tg8
I00
S'}}}?'
tbag4
(g5
(I0
tS'b'
tRp541
(I1
(tg8
I00
S'}}}?'
tbag4
(g5
(I0
tS'b'
tRp542
(I1
(tg8
I00
S'}}}?'
tbag4
(g5
(I0
tS'b'
tRp543
(I1
(tg8
I00
S'}}}?'
tbag4
(g5
(I0
tS'b'
tRp544
(I1
(tg8
I00
S'}}}?'
tbag4
(g5
(I0
tS'b'
tRp545
(I1
(tg8
I00
S'}}}?'
tbag4
(g5
(I0
tS'b'
tRp546
(I1
(tg8
I00
S'}}}?'
tbag4
(g5
(I0
tS'b'
tRp547
(I1
(tg8
I00
S'}}}?'
tbag4
(g5
(I0
tS'b'
tRp548
(I1
(tg8
I00
S'}}}?'
tbag4
(g5
(I0
tS'b'
tRp549
(I1
(tg8
I00
S'}}}?'
tbag4
(g5
(I0
tS'b'
tRp550
(I1
(tg8
I00
S'}}}?'
tbag4
(g5
(I0
tS'b'
tRp551
(I1
(tg8
I00
S'}}}?'
tbag4
(g5
(I0
tS'b'
tRp552
(I1
(tg8
I00
S'}}}?'
tbag4
(g5
(I0
tS'b'
tRp553
(I1
(tg8
I00
S'}}}?'
tbag4
(g5
(I0
tS'b'
tRp554
(I1
(tg8
I00
S'}}}?'
tbag4
(g5
(I0
tS'b'
tRp555
(I1
(tg8
I00
S'}}}?'
tbag4
(g5
(I0
tS'b'
tRp556
(I1
(tg8
I00
S'}}}?'
tbag4
(g5
(I0
tS'b'
tRp557
(I1
(tg8
I00
S'}}}?'
tbag4
(g5
(I0
tS'b'
tRp558
(I1
(tg8
I00
S'}}}?'
tbag4
(g5
(I0
tS'b'
tRp559
(I1
(tg8
I00
S'}}}?'
tbag4
(g5
(I0
tS'b'
tRp560
(I1
(tg8
I00
S'}}}?'
tbag4
(g5
(I0
tS'b'
tRp561
(I1
(tg8
I00
S'}}}?'
tbag4
(g5
(I0
tS'b'
tRp562
(I1
(tg8
I00
S'}}}?'
tbag4
(g5
(I0
tS'b'
tRp563
(I1
(tg8
I00
S'}}}?'
tbag4
(g5
(I0
tS'b'
tRp564
(I1
(tg8
I00
S' \xa0}?'
tbag4
(g5
(I0
tS'b'
tRp565
(I1
(tg8
I00
S'}}}?'
tbag4
(g5
(I0
tS'b'
tRp566
(I1
(tg8
I00
S'\x94\x93}?'
tbag4
(g5
(I0
tS'b'
tRp567
(I1
(tg8
I00
S'}}}?'
tbag4
(g5
(I0
tS'b'
tRp568
(I1
(tg8
I00
S'\x97\x96}?'
tbag4
(g5
(I0
tS'b'
tRp569
(I1
(tg8
I00
S'%\xa5}?'
tbag4
(g5
(I0
tS'b'
tRp570
(I1
(tg8
I00
S'\x1f\x9f}?'
tbag4
(g5
(I0
tS'b'
tRp571
(I1
(tg8
I00
S'\x9b\x9a}?'
tbag4
(g5
(I0
tS'b'
tRp572
(I1
(tg8
I00
S'\xa5\xa4}?'
tbag4
(g5
(I0
tS'b'
tRp573
(I1
(tg8
I00
S'\xa9\xa8}?'
tbag4
(g5
(I0
tS'b'
tRp574
(I1
(tg8
I00
S'%\xa5}?'
tbag4
(g5
(I0
tS'b'
tRp575
(I1
(tg8
I00
S'\xa0\x9f}?'
tbag4
(g5
(I0
tS'b'
tRp576
(I1
(tg8
I00
S'\xa3\xa2}?'
tbag4
(g5
(I0
tS'b'
tRp577
(I1
(tg8
I00
S'}}}?'
tbag4
(g5
(I0
tS'b'
tRp578
(I1
(tg8
I00
S'\xad\xac}?'
tbag4
(g5
(I0
tS'b'
tRp579
(I1
(tg8
I00
S'}}}?'
tbag4
(g5
(I0
tS'b'
tRp580
(I1
(tg8
I00
S'}}}?'
tbag4
(g5
(I0
tS'b'
tRp581
(I1
(tg8
I00
S'}}}?'
tbag4
(g5
(I0
tS'b'
tRp582
(I1
(tg8
I00
S'\xa7\xa6}?'
tbag4
(g5
(I0
tS'b'
tRp583
(I1
(tg8
I00
S'\xab\xaa}?'
tbag4
(g5
(I0
tS'b'
tRp584
(I1
(tg8
I00
S'}}}?'
tbag4
(g5
(I0
tS'b'
tRp585
(I1
(tg8
I00
S'\xb0\xaf}?'
tbag4
(g5
(I0
tS'b'
tRp586
(I1
(tg8
I00
S'\xa8\xa7}?'
tbag4
(g5
(I0
tS'b'
tRp587
(I1
(tg8
I00
S'+\xab}?'
tbag4
(g5
(I0
tS'b'
tRp588
(I1
(tg8
I00
S'\xaf\xae}?'
tbag4
(g5
(I0
tS'b'
tRp589
(I1
(tg8
I00
S'5\xb5}?'
tbag4
(g5
(I0
tS'b'
tRp590
(I1
(tg8
I00
S'\xb3\xb2}?'
tbag4
(g5
(I0
tS'b'
tRp591
(I1
(tg8
I00
S'\xaf\xae}?'
tbag4
(g5
(I0
tS'b'
tRp592
(I1
(tg8
I00
S',\xac}?'
tbag4
(g5
(I0
tS'b'
tRp593
(I1
(tg8
I00
S'\xaa\xa9}?'
tbag4
(g5
(I0
tS'b'
tRp594
(I1
(tg8
I00
S'\xb5\xb4}?'
tbag4
(g5
(I0
tS'b'
tRp595
(I1
(tg8
I00
S'\xb8\xb7}?'
tbag4
(g5
(I0
tS'b'
tRp596
(I1
(tg8
I00
S'\xb3\xb2}?'
tbag4
(g5
(I0
tS'b'
tRp597
(I1
(tg8
I00
S'}}}?'
tbag4
(g5
(I0
tS'b'
tRp598
(I1
(tg8
I00
S'\xb8\xb7}?'
tbag4
(g5
(I0
tS'b'
tRp599
(I1
(tg8
I00
S'\xae\xad}?'
tbag4
(g5
(I0
tS'b'
tRp600
(I1
(tg8
I00
S'\xb7\xb6}?'
tbag4
(g5
(I0
tS'b'
tRp601
(I1
(tg8
I00
S'\xaf\xae}?'
tbag4
(g5
(I0
tS'b'
tRp602
(I1
(tg8
I00
S'}}}?'
tbag4
(g5
(I0
tS'b'
tRp603
(I1
(tg8
I00
S'\xb4\xb3}?'
tbag4
(g5
(I0
tS'b'
tRp604
(I1
(tg8
I00
S'2\xb2}?'
tbag4
(g5
(I0
tS'b'
tRp605
(I1
(tg8
I00
S'\xab\xaa}?'
tbag4
(g5
(I0
tS'b'
tRp606
(I1
(tg8
I00
S'+\xab}?'
tbag4
(g5
(I0
tS'b'
tRp607
(I1
(tg8
I00
S'\xa9\xa8}?'
tbag4
(g5
(I0
tS'b'
tRp608
(I1
(tg8
I00
S'\xad\xac}?'
tbag4
(g5
(I0
tS'b'
tRp609
(I1
(tg8
I00
S'5\xb5}?'
tbag4
(g5
(I0
tS'b'
tRp610
(I1
(tg8
I00
S'0\xb0}?'
tbag4
(g5
(I0
tS'b'
tRp611
(I1
(tg8
I00
S';\xbb}?'
tbag4
(g5
(I0
tS'b'
tRp612
(I1
(tg8
I00
S'\xb4\xb3}?'
tbag4
(g5
(I0
tS'b'
tRp613
(I1
(tg8
I00
S'\xbb\xba}?'
tbag4
(g5
(I0
tS'b'
tRp614
(I1
(tg8
I00
S'6\xb6}?'
tbag4
(g5
(I0
tS'b'
tRp615
(I1
(tg8
I00
S'=\xbd}?'
tbag4
(g5
(I0
tS'b'
tRp616
(I1
(tg8
I00
S'3\xb3}?'
tbag4
(g5
(I0
tS'b'
tRp617
(I1
(tg8
I00
S'}}}?'
tbag4
(g5
(I0
tS'b'
tRp618
(I1
(tg8
I00
S'\n\x8a}?'
tbag4
(g5
(I0
tS'b'
tRp619
(I1
(tg8
I00
S'}}}?'
tbag4
(g5
(I0
tS'b'
tRp620
(I1
(tg8
I00
S'}}}?'
tbag4
(g5
(I0
tS'b'
tRp621
(I1
(tg8
I00
S'}}}?'
tbag4
(g5
(I0
tS'b'
tRp622
(I1
(tg8
I00
S'}}}?'
tbag4
(g5
(I0
tS'b'
tRp623
(I1
(tg8
I00
S'}}}?'
tbag4
(g5
(I0
tS'b'
tRp624
(I1
(tg8
I00
S'}}}?'
tbag4
(g5
(I0
tS'b'
tRp625
(I1
(tg8
I00
S'}}}?'
tbag4
(g5
(I0
tS'b'
tRp626
(I1
(tg8
I00
S'\x86\x85}?'
tbag4
(g5
(I0
tS'b'
tRp627
(I1
(tg8
I00
S'\x94\x93}?'
tbag4
(g5
(I0
tS'b'
tRp628
(I1
(tg8
I00
S'\x12\x92}?'
tbag4
(g5
(I0
tS'b'
tRp629
(I1
(tg8
I00
S'\x1f\x9f}?'
tbag4
(g5
(I0
tS'b'
tRp630
(I1
(tg8
I00
S'\xa4\xa3}?'
tbag4
(g5
(I0
tS'b'
tRp631
(I1
(tg8
I00
S'0\xb0}?'
tbag4
(g5
(I0
tS'b'
tRp632
(I1
(tg8
I00
S'\xb4\xb3}?'
tbag4
(g5
(I0
tS'b'
tRp633
(I1
(tg8
I00
S'0\xb0}?'
tbag4
(g5
(I0
tS'b'
tRp634
(I1
(tg8
I00
S'\xb8\xb7}?'
tbag4
(g5
(I0
tS'b'
tRp635
(I1
(tg8
I00
S'0\xb0}?'
tbag4
(g5
(I0
tS'b'
tRp636
(I1
(tg8
I00
S'\xb8\xb7}?'
tbag4
(g5
(I0
tS'b'
tRp637
(I1
(tg8
I00
S'\xae\xad}?'
tbag4
(g5
(I0
tS'b'
tRp638
(I1
(tg8
I00
S'\xb2\xb1}?'
tbag4
(g5
(I0
tS'b'
tRp639
(I1
(tg8
I00
S'\xae\xad}?'
tbag4
(g5
(I0
tS'b'
tRp640
(I1
(tg8
I00
S'5\xb5}?'
tbag4
(g5
(I0
tS'b'
tRp641
(I1
(tg8
I00
S'\xb9\xb8}?'
tbag4
(g5
(I0
tS'b'
tRp642
(I1
(tg8
I00
S'>\xbe}?'
tbag4
(g5
(I0
tS'b'
tRp643
(I1
(tg8
I00
S'\x84\x83}?'
tbag4
(g5
(I0
tS'b'
tRp644
(I1
(tg8
I00
S'\x1c\x1c|<'
tbag4
(g5
(I0
tS'b'
tRp645
(I1
(tg8
I00
S'\xc1@z?'
tbag4
(g5
(I0
tS'b'
tRp646
(I1
(tg8
I00
S'aa{?'
tbag4
(g5
(I0
tS'b'
tRp647
(I1
(tg8
I00
S'\x11\x91}?'
tbag4
(g5
(I0
tS'b'
tRp648
(I1
(tg8
I00
S'\xc0\xbf}?'
tbag4
(g5
(I0
tS'b'
tRp649
(I1
(tg8
I00
S'\xaf\xae}?'
tbag4
(g5
(I0
tS'b'
tRp650
(I1
(tg8
I00
S'}}}?'
tbag4
(g5
(I0
tS'b'
tRp651
(I1
(tg8
I00
S'}}}?'
tbag4
(g5
(I0
tS'b'
tRp652
(I1
(tg8
I00
S'\x0f\x8f}?'
tbag4
(g5
(I0
tS'b'
tRp653
(I1
(tg8
I00
S'\x12\x92}?'
tbag4
(g5
(I0
tS'b'
tRp654
(I1
(tg8
I00
S'\xa3\xa2}?'
tbag4
(g5
(I0
tS'b'
tRp655
(I1
(tg8
I00
S'\xa0\x9f}?'
tbag4
(g5
(I0
tS'b'
tRp656
(I1
(tg8
I00
S'*\xaa}?'
tbag4
(g5
(I0
tS'b'
tRp657
(I1
(tg8
I00
S'\xa7\xa6}?'
tbag4
(g5
(I0
tS'b'
tRp658
(I1
(tg8
I00
S'\x9f\x9e}?'
tbag4
(g5
(I0
tS'b'
tRp659
(I1
(tg8
I00
S'\xa2\xa1}?'
tbag4
(g5
(I0
tS'b'
tRp660
(I1
(tg8
I00
S'\xab\xaa}?'
tbag4
(g5
(I0
tS'b'
tRp661
(I1
(tg8
I00
S'2\xb2}?'
tbag4
(g5
(I0
tS'b'
tRp662
(I1
(tg8
I00
S'7\xb7}?'
tbag4
(g5
(I0
tS'b'
tRp663
(I1
(tg8
I00
S'7\xb7}?'
tbag4
(g5
(I0
tS'b'
tRp664
(I1
(tg8
I00
S'\xb3\xb2}?'
tbag4
(g5
(I0
tS'b'
tRp665
(I1
(tg8
I00
S'3\xb3}?'
tbag4
(g5
(I0
tS'b'
tRp666
(I1
(tg8
I00
S'\xbb\xba}?'
tbag4
(g5
(I0
tS'b'
tRp667
(I1
(tg8
I00
S':\xba}?'
tbag4
(g5
(I0
tS'b'
tRp668
(I1
(tg8
I00
S'/\xaf}?'
tbag4
(g5
(I0
tS'b'
tRp669
(I1
(tg8
I00
S'\xb0\xaf}?'
tbag4
(g5
(I0
tS'b'
tRp670
(I1
(tg8
I00
S'7\xb7}?'
tbag4
(g5
(I0
tS'b'
tRp671
(I1
(tg8
I00
S'4\xb4}?'
tbag4
(g5
(I0
tS'b'
tRp672
(I1
(tg8
I00
S'2\xb2}?'
tbag4
(g5
(I0
tS'b'
tRp673
(I1
(tg8
I00
S'2\xb2}?'
tbag4
(g5
(I0
tS'b'
tRp674
(I1
(tg8
I00
S'A\xc1}?'
tbag4
(g5
(I0
tS'b'
tRp675
(I1
(tg8
I00
S'\xb9\xb8}?'
tbag4
(g5
(I0
tS'b'
tRp676
(I1
(tg8
I00
S'F\xc6}?'
tbag4
(g5
(I0
tS'b'
tRp677
(I1
(tg8
I00
S'3\xb3}?'
tbag4
(g5
(I0
tS'b'
tRp678
(I1
(tg8
I00
S'@\xc0}?'
tbag4
(g5
(I0
tS'b'
tRp679
(I1
(tg8
I00
S'7\xb7}?'
tbag4
(g5
(I0
tS'b'
tRp680
(I1
(tg8
I00
S'E\xc5}?'
tbag4
(g5
(I0
tS'b'
tRp681
(I1
(tg8
I00
S'4\xb4}?'
tbag4
(g5
(I0
tS'b'
tRp682
(I1
(tg8
I00
S'\xc5\xc4}?'
tbag4
(g5
(I0
tS'b'
tRp683
(I1
(tg8
I00
S'\xb3\xb2}?'
tbag4
(g5
(I0
tS'b'
tRp684
(I1
(tg8
I00
S'<\xbc}?'
tbag4
(g5
(I0
tS'b'
tRp685
(I1
(tg8
I00
S'\xb7\xb6}?'
tbag4
(g5
(I0
tS'b'
tRp686
(I1
(tg8
I00
S'D\xc4}?'
tbag4
(g5
(I0
tS'b'
tRp687
(I1
(tg8
I00
S'4\xb4}?'
tbag4
(g5
(I0
tS'b'
tRp688
(I1
(tg8
I00
S'\xc5\xc4}?'
tbag4
(g5
(I0
tS'b'
tRp689
(I1
(tg8
I00
S'8\xb8}?'
tbag4
(g5
(I0
tS'b'
tRp690
(I1
(tg8
I00
S'\xb7\xb6}?'
tbag4
(g5
(I0
tS'b'
tRp691
(I1
(tg8
I00
S'?\xbf}?'
tbag4
(g5
(I0
tS'b'
tRp692
(I1
(tg8
I00
S'}}}?'
tbag4
(g5
(I0
tS'b'
tRp693
(I1
(tg8
I00
S'\xb9\xb8}?'
tbag4
(g5
(I0
tS'b'
tRp694
(I1
(tg8
I00
S':\xba}?'
tbag4
(g5
(I0
tS'b'
tRp695
(I1
(tg8
I00
S'=\xbd}?'
tbag4
(g5
(I0
tS'b'
tRp696
(I1
(tg8
I00
S'\xbf\xbe}?'
tbag4
(g5
(I0
tS'b'
tRp697
(I1
(tg8
I00
S'\xba\xb9}?'
tbag4
(g5
(I0
tS'b'
tRp698
(I1
(tg8
I00
S'\xbc\xbb}?'
tbag4
(g5
(I0
tS'b'
tRp699
(I1
(tg8
I00
S'\xbf\xbe}?'
tbag4
(g5
(I0
tS'b'
tRp700
(I1
(tg8
I00
S'?\xbf}?'
tbag4
(g5
(I0
tS'b'
tRp701
(I1
(tg8
I00
S'\xc7\xc6}?'
tbag4
(g5
(I0
tS'b'
tRp702
(I1
(tg8
I00
S'>\xbe}?'
tbag4
(g5
(I0
tS'b'
tRp703
(I1
(tg8
I00
S'A\xc1}?'
tbag4
(g5
(I0
tS'b'
tRp704
(I1
(tg8
I00
S'\xb9\xb8}?'
tbag4
(g5
(I0
tS'b'
tRp705
(I1
(tg8
I00
S'\xb5\xb4}?'
tbag4
(g5
(I0
tS'b'
tRp706
(I1
(tg8
I00
S'\xb8\xb7}?'
tbag4
(g5
(I0
tS'b'
tRp707
(I1
(tg8
I00
S'@\xc0}?'
tbag4
(g5
(I0
tS'b'
tRp708
(I1
(tg8
I00
S'\xc4\xc3}?'
tbag4
(g5
(I0
tS'b'
tRp709
(I1
(tg8
I00
S'D\xc4}?'
tbag4
(g5
(I0
tS'b'
tRp710
(I1
(tg8
I00
S'\xbb\xba}?'
tbag4
(g5
(I0
tS'b'
tRp711
(I1
(tg8
I00
S'\xb7\xb6}?'
tbag4
(g5
(I0
tS'b'
tRp712
(I1
(tg8
I00
S'D\xc4}?'
tbag4
(g5
(I0
tS'b'
tRp713
(I1
(tg8
I00
S'\xc0\xbf}?'
tbag4
(g5
(I0
tS'b'
tRp714
(I1
(tg8
I00
S'\xc4\xc3}?'
tbag4
(g5
(I0
tS'b'
tRp715
(I1
(tg8
I00
S':\xba}?'
tbag4
(g5
(I0
tS'b'
tRp716
(I1
(tg8
I00
S';\xbb}?'
tbag4
(g5
(I0
tS'b'
tRp717
(I1
(tg8
I00
S'\xbf\xbe}?'
tbag4
(g5
(I0
tS'b'
tRp718
(I1
(tg8
I00
S'\xca\xc9}?'
tbag4
(g5
(I0
tS'b'
tRp719
(I1
(tg8
I00
S'\xb5\xb4}?'
tbag4
(g5
(I0
tS'b'
tRp720
(I1
(tg8
I00
S'?\xbf}?'
tbag4
(g5
(I0
tS'b'
tRp721
(I1
(tg8
I00
S'\xc0\xbf}?'
tbag4
(g5
(I0
tS'b'
tRp722
(I1
(tg8
I00
S'\xba\xb9}?'
tbag4
(g5
(I0
tS'b'
tRp723
(I1
(tg8
I00
S'\xbb\xba}?'
tbag4
(g5
(I0
tS'b'
tRp724
(I1
(tg8
I00
S'A\xc1}?'
tbag4
(g5
(I0
tS'b'
tRp725
(I1
(tg8
I00
S'C\xc3}?'
tbag4
(g5
(I0
tS'b'
tRp726
(I1
(tg8
I00
S'@\xc0}?'
tbag4
(g5
(I0
tS'b'
tRp727
(I1
(tg8
I00
S'\xba\xb9}?'
tbag4
(g5
(I0
tS'b'
tRp728
(I1
(tg8
I00
S'\xc0\xbf}?'
tbag4
(g5
(I0
tS'b'
tRp729
(I1
(tg8
I00
S'\xba\xb9}?'
tbag4
(g5
(I0
tS'b'
tRp730
(I1
(tg8
I00
S'\xc6\xc5}?'
tbag4
(g5
(I0
tS'b'
tRp731
(I1
(tg8
I00
S'/\xaf}?'
tbag4
(g5
(I0
tS'b'
tRp732
(I1
(tg8
I00
S'7\xb7}?'
tbag4
(g5
(I0
tS'b'
tRp733
(I1
(tg8
I00
S'<\xbc}?'
tbag4
(g5
(I0
tS'b'
tRp734
(I1
(tg8
I00
S'\xba\xb9}?'
tbag4
(g5
(I0
tS'b'
tRp735
(I1
(tg8
I00
S'\xcb\xca}?'
tbag4
(g5
(I0
tS'b'
tRp736
(I1
(tg8
I00
S'\xba\xb9}?'
tbag4
(g5
(I0
tS'b'
tRp737
(I1
(tg8
I00
S'J\xca}?'
tbag4
(g5
(I0
tS'b'
tRp738
(I1
(tg8
I00
S'\xc5\xc4}?'
tbag4
(g5
(I0
tS'b'
tRp739
(I1
(tg8
I00
S'B\xc2}?'
tbag4
(g5
(I0
tS'b'
tRp740
(I1
(tg8
I00
S'$\xa4}?'
tbag4
(g5
(I0
tS'b'
tRp741
(I1
(tg8
I00
S'\xa8\xa7}?'
tbag4
(g5
(I0
tS'b'
tRp742
(I1
(tg8
I00
S'\xd8\xd7\xe7<'
tbag4
(g5
(I0
tS'b'
tRp743
(I1
(tg8
I00
S'Z\xda`?'
tbag4
(g5
(I0
tS'b'
tRp744
(I1
(tg8
I00
S'\xb3\xb2}?'
tbag4
(g5
(I0
tS'b'
tRp745
(I1
(tg8
I00
S'}}}?'
tbag4
(g5
(I0
tS'b'
tRp746
(I1
(tg8
I00
S' \xa0}?'
tbag4
(g5
(I0
tS'b'
tRp747
(I1
(tg8
I00
S'\x0e\x8e}?'
tbag4
(g5
(I0
tS'b'
tRp748
(I1
(tg8
I00
S'}}}?'
tbag4
(g5
(I0
tS'b'
tRp749
(I1
(tg8
I00
S'\xa3\xa2}?'
tbag4
(g5
(I0
tS'b'
tRp750
(I1
(tg8
I00
S'/\xaf}?'
tbag4
(g5
(I0
tS'b'
tRp751
(I1
(tg8
I00
S'3\xb3}?'
tbag4
(g5
(I0
tS'b'
tRp752
(I1
(tg8
I00
S'}}}?'
tbag4
(g5
(I0
tS'b'
tRp753
(I1
(tg8
I00
S'\x1d\x9d}?'
tbag4
(g5
(I0
tS'b'
tRp754
(I1
(tg8
I00
S'\xa3\xa2}?'
tbag4
(g5
(I0
tS'b'
tRp755
(I1
(tg8
I00
S'\xac\xab}?'
tbag4
(g5
(I0
tS'b'
tRp756
(I1
(tg8
I00
S';\xbb}?'
tbag4
(g5
(I0
tS'b'
tRp757
(I1
(tg8
I00
S'\xc2\xc1}?'
tbag4
(g5
(I0
tS'b'
tRp758
(I1
(tg8
I00
S'<\xbc}?'
tbag4
(g5
(I0
tS'b'
tRp759
(I1
(tg8
I00
S'\xb2\xb1}?'
tbag4
(g5
(I0
tS'b'
tRp760
(I1
(tg8
I00
S'\xb1\xb0}?'
tbag4
(g5
(I0
tS'b'
tRp761
(I1
(tg8
I00
S'M\xcd}?'
tbag4
(g5
(I0
tS'b'
tRp762
(I1
(tg8
I00
S'\x16\x96}?'
tbag4
(g5
(I0
tS'b'
tRp763
(I1
(tg8
I00
S',\xac}?'
tbag4
(g5
(I0
tS'b'
tRp764
(I1
(tg8
I00
S'\xb6\xb5}?'
tbag4
(g5
(I0
tS'b'
tRp765
(I1
(tg8
I00
S'\xba\xb9}?'
tbag4
(g5
(I0
tS'b'
tRp766
(I1
(tg8
I00
S'8\xb8}?'
tbag4
(g5
(I0
tS'b'
tRp767
(I1
(tg8
I00
S'\xb9\xb8}?'
tbag4
(g5
(I0
tS'b'
tRp768
(I1
(tg8
I00
S'>\xbe}?'
tbag4
(g5
(I0
tS'b'
tRp769
(I1
(tg8
I00
S'?\xbf}?'
tbag4
(g5
(I0
tS'b'
tRp770
(I1
(tg8
I00
S'\xbf\xbe}?'
tbag4
(g5
(I0
tS'b'
tRp771
(I1
(tg8
I00
S'>\xbe}?'
tbag4
(g5
(I0
tS'b'
tRp772
(I1
(tg8
I00
S'E\xc5}?'
tbag4
(g5
(I0
tS'b'
tRp773
(I1
(tg8
I00
S';\xbb}?'
tbag4
(g5
(I0
tS'b'
tRp774
(I1
(tg8
I00
S'F\xc6}?'
tbag4
(g5
(I0
tS'b'
tRp775
(I1
(tg8
I00
S'\xc4\xc3}?'
tbag4
(g5
(I0
tS'b'
tRp776
(I1
(tg8
I00
S'\xd0\xcf}?'
tbag4
(g5
(I0
tS'b'
tRp777
(I1
(tg8
I00
S'\xc5\xc4}?'
tbag4
(g5
(I0
tS'b'
tRp778
(I1
(tg8
I00
S'\xc2\xc1}?'
tbag4
(g5
(I0
tS'b'
tRp779
(I1
(tg8
I00
S'L\xcc}?'
tbag4
(g5
(I0
tS'b'
tRp780
(I1
(tg8
I00
S'C\xc3}?'
tbag4
(g5
(I0
tS'b'
tRp781
(I1
(tg8
I00
S'F\xc6}?'
tbag4
(g5
(I0
tS'b'
tRp782
(I1
(tg8
I00
S'W\xd7}?'
tbag4
(g5
(I0
tS'b'
tRp783
(I1
(tg8
I00
S'?\xbf}?'
tbag4
(g5
(I0
tS'b'
tRp784
(I1
(tg8
I00
S'\xc2\xc1}?'
tbag4
(g5
(I0
tS'b'
tRp785
(I1
(tg8
I00
S'M\xcd}?'
tbag4
(g5
(I0
tS'b'
tRp786
(I1
(tg8
I00
S'\xca\xc9}?'
tbag4
(g5
(I0
tS'b'
tRp787
(I1
(tg8
I00
S'@\xc0}?'
tbag4
(g5
(I0
tS'b'
tRp788
(I1
(tg8
I00
S'M\xcd}?'
tbag4
(g5
(I0
tS'b'
tRp789
(I1
(tg8
I00
S'I\xc9}?'
tbag4
(g5
(I0
tS'b'
tRp790
(I1
(tg8
I00
S'\xc5\xc4}?'
tbag4
(g5
(I0
tS'b'
tRp791
(I1
(tg8
I00
S'<\xbc}?'
tbag4
(g5
(I0
tS'b'
tRp792
(I1
(tg8
I00
S'Q\xd1}?'
tbag4
(g5
(I0
tS'b'
tRp793
(I1
(tg8
I00
S'L\xcc}?'
tbag4
(g5
(I0
tS'b'
tRp794
(I1
(tg8
I00
S'\xc5\xc4}?'
tbag4
(g5
(I0
tS'b'
tRp795
(I1
(tg8
I00
S'G\xc7}?'
tbag4
(g5
(I0
tS'b'
tRp796
(I1
(tg8
I00
S'B\xc2}?'
tbag4
(g5
(I0
tS'b'
tRp797
(I1
(tg8
I00
S'\xc6\xc5}?'
tbag4
(g5
(I0
tS'b'
tRp798
(I1
(tg8
I00
S'B\xc2}?'
tbag4
(g5
(I0
tS'b'
tRp799
(I1
(tg8
I00
S'\xc8\xc7}?'
tbag4
(g5
(I0
tS'b'
tRp800
(I1
(tg8
I00
S'\xc9\xc8}?'
tbag4
(g5
(I0
tS'b'
tRp801
(I1
(tg8
I00
S'F\xc6}?'
tbag4
(g5
(I0
tS'b'
tRp802
(I1
(tg8
I00
S'\xd1\xd0}?'
tbag4
(g5
(I0
tS'b'
tRp803
(I1
(tg8
I00
S'}}}?'
tbag4
(g5
(I0
tS'b'
tRp804
(I1
(tg8
I00
S'K\xcb}?'
tbag4
(g5
(I0
tS'b'
tRp805
(I1
(tg8
I00
S'\xc7\xc6}?'
tbag4
(g5
(I0
tS'b'
tRp806
(I1
(tg8
I00
S'\xc9\xc8}?'
tbag4
(g5
(I0
tS'b'
tRp807
(I1
(tg8
I00
S'F\xc6}?'
tbag4
(g5
(I0
tS'b'
tRp808
(I1
(tg8
I00
S'M\xcd}?'
tbag4
(g5
(I0
tS'b'
tRp809
(I1
(tg8
I00
S'\xc2\xc1}?'
tbag4
(g5
(I0
tS'b'
tRp810
(I1
(tg8
I00
S'\xc9\xc8}?'
tbag4
(g5
(I0
tS'b'
tRp811
(I1
(tg8
I00
S'D\xc4}?'
tbag4
(g5
(I0
tS'b'
tRp812
(I1
(tg8
I00
S'\xcc\xcb}?'
tbag4
(g5
(I0
tS'b'
tRp813
(I1
(tg8
I00
S'\xc0\xbf}?'
tbag4
(g5
(I0
tS'b'
tRp814
(I1
(tg8
I00
S'I\xc9}?'
tbag4
(g5
(I0
tS'b'
tRp815
(I1
(tg8
I00
S'=\xbd}?'
tbag4
(g5
(I0
tS'b'
tRp816
(I1
(tg8
I00
S'L\xcc}?'
tbag4
(g5
(I0
tS'b'
tRp817
(I1
(tg8
I00
S'\xc7\xc6}?'
tbag4
(g5
(I0
tS'b'
tRp818
(I1
(tg8
I00
S'=\xbd}?'
tbag4
(g5
(I0
tS'b'
tRp819
(I1
(tg8
I00
S'G\xc7}?'
tbag4
(g5
(I0
tS'b'
tRp820
(I1
(tg8
I00
S'H\xc8}?'
tbag4
(g5
(I0
tS'b'
tRp821
(I1
(tg8
I00
S'\xc3\xc2}?'
tbag4
(g5
(I0
tS'b'
tRp822
(I1
(tg8
I00
S'C\xc3}?'
tbag4
(g5
(I0
tS'b'
tRp823
(I1
(tg8
I00
S'B\xc2}?'
tbag4
(g5
(I0
tS'b'
tRp824
(I1
(tg8
I00
S'\xcf\xce}?'
tbag4
(g5
(I0
tS'b'
tRp825
(I1
(tg8
I00
S'B\xc2}?'
tbag4
(g5
(I0
tS'b'
tRp826
(I1
(tg8
I00
S'\xc6\xc5}?'
tbag4
(g5
(I0
tS'b'
tRp827
(I1
(tg8
I00
S'B\xc2}?'
tbag4
(g5
(I0
tS'b'
tRp828
(I1
(tg8
I00
S'G\xc7}?'
tbag4
(g5
(I0
tS'b'
tRp829
(I1
(tg8
I00
S'E\xc5}?'
tbag4
(g5
(I0
tS'b'
tRp830
(I1
(tg8
I00
S'\xc5\xc4}?'
tbag4
(g5
(I0
tS'b'
tRp831
(I1
(tg8
I00
S'F\xc6}?'
tbag4
(g5
(I0
tS'b'
tRp832
(I1
(tg8
I00
S'B\xc2}?'
tbag4
(g5
(I0
tS'b'
tRp833
(I1
(tg8
I00
S'F\xc6}?'
tbag4
(g5
(I0
tS'b'
tRp834
(I1
(tg8
I00
S'\xc2\xc1}?'
tbag4
(g5
(I0
tS'b'
tRp835
(I1
(tg8
I00
S'\xc3\xc2}?'
tbag4
(g5
(I0
tS'b'
tRp836
(I1
(tg8
I00
S'F\xc6}?'
tbag4
(g5
(I0
tS'b'
tRp837
(I1
(tg8
I00
S'\xc7\xc6}?'
tbag4
(g5
(I0
tS'b'
tRp838
(I1
(tg8
I00
S'C\xc3}?'
tbag4
(g5
(I0
tS'b'
tRp839
(I1
(tg8
I00
S'A\xc1}?'
tbag4
(g5
(I0
tS'b'
tRp840
(I1
(tg8
I00
S'\xc9\xc8}?'
tbag4
(g5
(I0
tS'b'
tRp841
(I1
(tg8
I00
S'0\xb0}?'
tbag4
(g5
(I0
tS'b'
tRp842
(I1
(tg8
I00
S'B\xc2}?'
tbag4
(g5
(I0
tS'b'
tRp843
(I1
(tg8
I00
S'\xc4\xc3}?'
tbag4
(g5
(I0
tS'b'
tRp844
(I1
(tg8
I00
S'B\xc2}?'
tbag4
(g5
(I0
tS'b'
tRp845
(I1
(tg8
I00
S'\xcd\xcc}?'
tbag4
(g5
(I0
tS'b'
tRp846
(I1
(tg8
I00
S'H\xc8}?'
tbag4
(g5
(I0
tS'b'
tRp847
(I1
(tg8
I00
S'\xca\xc9}?'
tbag4
(g5
(I0
tS'b'
tRp848
(I1
(tg8
I00
S'K\xcb}?'
tbag4
(g5
(I0
tS'b'
tRp849
(I1
(tg8
I00
S'H\xc8}?'
tbag4
(g5
(I0
tS'b'
tRp850
(I1
(tg8
I00
S'\xc7\xc6}?'
tbag4
(g5
(I0
tS'b'
tRp851
(I1
(tg8
I00
S'\xcb\xca}?'
tbag4
(g5
(I0
tS'b'
tRp852
(I1
(tg8
I00
S'\xd1\xd0}?'
tbag4
(g5
(I0
tS'b'
tRp853
(I1
(tg8
I00
S'C\xc3}?'
tbag4
(g5
(I0
tS'b'
tRp854
(I1
(tg8
I00
S'P\xd0}?'
tbag4
(g5
(I0
tS'b'
tRp855
(I1
(tg8
I00
S'F\xc6}?'
tbag4
(g5
(I0
tS'b'
tRp856
(I1
(tg8
I00
S'A\xc1}?'
tbag4
(g5
(I0
tS'b'
tRp857
(I1
(tg8
I00
S'D\xc4}?'
tbag4
(g5
(I0
tS'b'
tRp858
(I1
(tg8
I00
S'I\xc9}?'
tbag4
(g5
(I0
tS'b'
tRp859
(I1
(tg8
I00
S'\xc1\xc0}?'
tbag4
(g5
(I0
tS'b'
tRp860
(I1
(tg8
I00
S':\xba}?'
tbag4
(g5
(I0
tS'b'
tRp861
(I1
(tg8
I00
S'\xc8\xc7}?'
tbag4
(g5
(I0
tS'b'
tRp862
(I1
(tg8
I00
S'\xc7\xc6}?'
tbag4
(g5
(I0
tS'b'
tRp863
(I1
(tg8
I00
S'Q\xd1}?'
tbag4
(g5
(I0
tS'b'
tRp864
(I1
(tg8
I00
S'}}}?'
tbag4
(g5
(I0
tS'b'
tRp865
(I1
(tg8
I00
S'\xc3\xc2}?'
tbag4
(g5
(I0
tS'b'
tRp866
(I1
(tg8
I00
S'=\xbd}?'
tbag4
(g5
(I0
tS'b'
tRp867
(I1
(tg8
I00
S'\xc9\xc8}?'
tbag4
(g5
(I0
tS'b'
tRp868
(I1
(tg8
I00
S'\xc7\xc6}?'
tbag4
(g5
(I0
tS'b'
tRp869
(I1
(tg8
I00
S'E\xc5}?'
tbag4
(g5
(I0
tS'b'
tRp870
(I1
(tg8
I00
S'@\xc0}?'
tbag4
(g5
(I0
tS'b'
tRp871
(I1
(tg8
I00
S'C\xc3}?'
tbag4
(g5
(I0
tS'b'
tRp872
(I1
(tg8
I00
S'\xc0\xbf}?'
tbag4
(g5
(I0
tS'b'
tRp873
(I1
(tg8
I00
S'\xc5\xc4}?'
tbag4
(g5
(I0
tS'b'
tRp874
(I1
(tg8
I00
S'A\xc1}?'
tbag4
(g5
(I0
tS'b'
tRp875
(I1
(tg8
I00
S';\xbb}?'
tbag4
(g5
(I0
tS'b'
tRp876
(I1
(tg8
I00
S'\xc2\xc1}?'
tbag4
(g5
(I0
tS'b'
tRp877
(I1
(tg8
I00
S'@\xc0}?'
tbag4
(g5
(I0
tS'b'
tRp878
(I1
(tg8
I00
S'C\xc3}?'
tbag4
(g5
(I0
tS'b'
tRp879
(I1
(tg8
I00
S'H\xc8}?'
tbag4
(g5
(I0
tS'b'
tRp880
(I1
(tg8
I00
S'\xcc\xcb}?'
tbag4
(g5
(I0
tS'b'
tRp881
(I1
(tg8
I00
S'I\xc9}?'
tbag4
(g5
(I0
tS'b'
tRp882
(I1
(tg8
I00
S'H\xc8}?'
tbag4
(g5
(I0
tS'b'
tRp883
(I1
(tg8
I00
S'R\xd2}?'
tbag4
(g5
(I0
tS'b'
tRp884
(I1
(tg8
I00
S'\xcb\xca}?'
tbag4
(g5
(I0
tS'b'
tRp885
(I1
(tg8
I00
S'C\xc3}?'
tbag4
(g5
(I0
tS'b'
tRp886
(I1
(tg8
I00
S'\xc7\xc6}?'
tbag4
(g5
(I0
tS'b'
tRp887
(I1
(tg8
I00
S'C\xc3}?'
tbag4
(g5
(I0
tS'b'
tRp888
(I1
(tg8
I00
S'\xd3\xd2}?'
tbag4
(g5
(I0
tS'b'
tRp889
(I1
(tg8
I00
S'F\xc6}?'
tbag4
(g5
(I0
tS'b'
tRp890
(I1
(tg8
I00
S'C\xc3}?'
tbag4
(g5
(I0
tS'b'
tRp891
(I1
(tg8
I00
S'J\xca}?'
tbag4
(g5
(I0
tS'b'
tRp892
(I1
(tg8
I00
S'G\xc7}?'
tbag4
(g5
(I0
tS'b'
tRp893
(I1
(tg8
I00
S'E\xc5}?'
tbag4
(g5
(I0
tS'b'
tRp894
(I1
(tg8
I00
S'\xc9\xc8}?'
tbag4
(g5
(I0
tS'b'
tRp895
(I1
(tg8
I00
S'\xc6\xc5}?'
tbag4
(g5
(I0
tS'b'
tRp896
(I1
(tg8
I00
S'F\xc6}?'
tbag4
(g5
(I0
tS'b'
tRp897
(I1
(tg8
I00
S'\xc2\xc1}?'
tbag4
(g5
(I0
tS'b'
tRp898
(I1
(tg8
I00
S'\xc1\xc0}?'
tbag4
(g5
(I0
tS'b'
tRp899
(I1
(tg8
I00
S'K\xcb}?'
tbag4
(g5
(I0
tS'b'
tRp900
(I1
(tg8
I00
S'H\xc8}?'
tbag4
(g5
(I0
tS'b'
tRp901
(I1
(tg8
I00
S'\xc4\xc3}?'
tbag4
(g5
(I0
tS'b'
tRp902
(I1
(tg8
I00
S'O\xcf}?'
tbag4
(g5
(I0
tS'b'
tRp903
(I1
(tg8
I00
S'D\xc4}?'
tbag4
(g5
(I0
tS'b'
tRp904
(I1
(tg8
I00
S'G\xc7}?'
tbag4
(g5
(I0
tS'b'
tRp905
(I1
(tg8
I00
S'F\xc6}?'
tbag4
(g5
(I0
tS'b'
tRp906
(I1
(tg8
I00
S'\xc6\xc5}?'
tbag4
(g5
(I0
tS'b'
tRp907
(I1
(tg8
I00
S'J\xca}?'
tbag4
(g5
(I0
tS'b'
tRp908
(I1
(tg8
I00
S'C\xc3}?'
tbag4
(g5
(I0
tS'b'
tRp909
(I1
(tg8
I00
S'\xc8\xc7}?'
tbag4
(g5
(I0
tS'b'
tRp910
(I1
(tg8
I00
S'\xce\xcd}?'
tbag4
(g5
(I0
tS'b'
tRp911
(I1
(tg8
I00
S'L\xcc}?'
tbag4
(g5
(I0
tS'b'
tRp912
(I1
(tg8
I00
S'}}}?'
tbag4
(g5
(I0
tS'b'
tRp913
(I1
(tg8
I00
S'D\xc4}?'
tbag4
(g5
(I0
tS'b'
tRp914
(I1
(tg8
I00
S'J\xca}?'
tbag4
(g5
(I0
tS'b'
tRp915
(I1
(tg8
I00
S'A\xc1}?'
tbag4
(g5
(I0
tS'b'
tRp916
(I1
(tg8
I00
S'\xca\xc9}?'
tbag4
(g5
(I0
tS'b'
tRp917
(I1
(tg8
I00
S'\xbe\xbd}?'
tbag4
(g5
(I0
tS'b'
tRp918
(I1
(tg8
I00
S'J\xca}?'
tbag4
(g5
(I0
tS'b'
tRp919
(I1
(tg8
I00
S'H\xc8}?'
tbag4
(g5
(I0
tS'b'
tRp920
(I1
(tg8
I00
S'D\xc4}?'
tbag4
(g5
(I0
tS'b'
tRp921
(I1
(tg8
I00
S'J\xca}?'
tbag4
(g5
(I0
tS'b'
tRp922
(I1
(tg8
I00
S'\xc4\xc3}?'
tbag4
(g5
(I0
tS'b'
tRp923
(I1
(tg8
I00
S'\xc3\xc2}?'
tbag4
(g5
(I0
tS'b'
tRp924
(I1
(tg8
I00
S'I\xc9}?'
tbag4
(g5
(I0
tS'b'
tRp925
(I1
(tg8
I00
S'F\xc6}?'
tbag4
(g5
(I0
tS'b'
tRp926
(I1
(tg8
I00
S'I\xc9}?'
tbag4
(g5
(I0
tS'b'
tRp927
(I1
(tg8
I00
S'<\xbc}?'
tbag4
(g5
(I0
tS'b'
tRp928
(I1
(tg8
I00
S'?\xbf}?'
tbag4
(g5
(I0
tS'b'
tRp929
(I1
(tg8
I00
S'\xc0\xbf}?'
tbag4
(g5
(I0
tS'b'
tRp930
(I1
(tg8
I00
S'\xbf\xbe}?'
tbag4
(g5
(I0
tS'b'
tRp931
(I1
(tg8
I00
S'D\xc4}?'
tbag4
(g5
(I0
tS'b'
tRp932
(I1
(tg8
I00
S'E\xc5}?'
tbag4
(g5
(I0
tS'b'
tRp933
(I1
(tg8
I00
S'\xc5\xc4}?'
tbag4
(g5
(I0
tS'b'
tRp934
(I1
(tg8
I00
S'F\xc6}?'
tbag4
(g5
(I0
tS'b'
tRp935
(I1
(tg8
I00
S'<\xbc}?'
tbag4
(g5
(I0
tS'b'
tRp936
(I1
(tg8
I00
S'E\xc5}?'
tbag4
(g5
(I0
tS'b'
tRp937
(I1
(tg8
I00
S'L\xcc}?'
tbag4
(g5
(I0
tS'b'
tRp938
(I1
(tg8
I00
S'\xcc\xcb}?'
tbag4
(g5
(I0
tS'b'
tRp939
(I1
(tg8
I00
S'P\xd0}?'
tbag4
(g5
(I0
tS'b'
tRp940
(I1
(tg8
I00
S'\xc8\xc7}?'
tbag4
(g5
(I0
tS'b'
tRp941
(I1
(tg8
I00
S'F\xc6}?'
tbag4
(g5
(I0
tS'b'
tRp942
(I1
(tg8
I00
S'\xc0\xbf}?'
tbag4
(g5
(I0
tS'b'
tRp943
(I1
(tg8
I00
S'\xbe\xbd}?'
tbag4
(g5
(I0
tS'b'
tRp944
(I1
(tg8
I00
S'L\xcc}?'
tbag4
(g5
(I0
tS'b'
tRp945
(I1
(tg8
I00
S'C\xc3}?'
tbag4
(g5
(I0
tS'b'
tRp946
(I1
(tg8
I00
S'H\xc8}?'
tbag4
(g5
(I0
tS'b'
tRp947
(I1
(tg8
I00
S'@\xc0}?'
tbag4
(g5
(I0
tS'b'
tRp948
(I1
(tg8
I00
S'\xc6\xc5}?'
tbag4
(g5
(I0
tS'b'
tRp949
(I1
(tg8
I00
S'\xd2\xd1}?'
tbag4
(g5
(I0
tS'b'
tRp950
(I1
(tg8
I00
S'E\xc5}?'
tbag4
(g5
(I0
tS'b'
tRp951
(I1
(tg8
I00
S'D\xc4}?'
tbag4
(g5
(I0
tS'b'
tRp952
(I1
(tg8
I00
S'E\xc5}?'
tbag4
(g5
(I0
tS'b'
tRp953
(I1
(tg8
I00
S'B\xc2}?'
tbag4
(g5
(I0
tS'b'
tRp954
(I1
(tg8
I00
S'\xc2\xc1}?'
tbag4
(g5
(I0
tS'b'
tRp955
(I1
(tg8
I00
S'\xd2\xd1}?'
tbag4
(g5
(I0
tS'b'
tRp956
(I1
(tg8
I00
S'P\xd0}?'
tbag4
(g5
(I0
tS'b'
tRp957
(I1
(tg8
I00
S'\xc8\xc7}?'
tbag4
(g5
(I0
tS'b'
tRp958
(I1
(tg8
I00
S'\xc2\xc1}?'
tbag4
(g5
(I0
tS'b'
tRp959
(I1
(tg8
I00
S'\xd2\xd1}?'
tbag4
(g5
(I0
tS'b'
tRp960
(I1
(tg8
I00
S'\xbf\xbe}?'
tbag4
(g5
(I0
tS'b'
tRp961
(I1
(tg8
I00
S'\xd1\xd0}?'
tbag4
(g5
(I0
tS'b'
tRp962
(I1
(tg8
I00
S'\xc4\xc3}?'
tbag4
(g5
(I0
tS'b'
tRp963
(I1
(tg8
I00
S'\xd3\xd2}?'
tbag4
(g5
(I0
tS'b'
tRp964
(I1
(tg8
I00
S'A\xc1}?'
tbag4
(g5
(I0
tS'b'
tRp965
(I1
(tg8
I00
S'\xcb\xca}?'
tbag4
(g5
(I0
tS'b'
tRp966
(I1
(tg8
I00
S'\xc5\xc4}?'
tbag4
(g5
(I0
tS'b'
tRp967
(I1
(tg8
I00
S'B\xc2}?'
tbag4
(g5
(I0
tS'b'
tRp968
(I1
(tg8
I00
S'D\xc4}?'
tbag4
(g5
(I0
tS'b'
tRp969
(I1
(tg8
I00
S'\xba\xb9}?'
tbag4
(g5
(I0
tS'b'
tRp970
(I1
(tg8
I00
S'\xc5\xc4}?'
tbag4
(g5
(I0
tS'b'
tRp971
(I1
(tg8
I00
S'\xc9\xc8}?'
tbag4
(g5
(I0
tS'b'
tRp972
(I1
(tg8
I00
S'\xc3\xc2}?'
tbag4
(g5
(I0
tS'b'
tRp973
(I1
(tg8
I00
S'\xc5\xc4}?'
tbag4
(g5
(I0
tS'b'
tRp974
(I1
(tg8
I00
S'\xc7\xc6}?'
tbag4
(g5
(I0
tS'b'
tRp975
(I1
(tg8
I00
S'\xc8\xc7}?'
tbag4
(g5
(I0
tS'b'
tRp976
(I1
(tg8
I00
S'\xce\xcd}?'
tbag4
(g5
(I0
tS'b'
tRp977
(I1
(tg8
I00
S'\xc5\xc4}?'
tbag4
(g5
(I0
tS'b'
tRp978
(I1
(tg8
I00
S'\xc7\xc6}?'
tbag4
(g5
(I0
tS'b'
tRp979
(I1
(tg8
I00
S'Q\xd1}?'
tbag4
(g5
(I0
tS'b'
tRp980
(I1
(tg8
I00
S'U\xd5}?'
tbag4
(g5
(I0
tS'b'
tRp981
(I1
(tg8
I00
S'S\xd3}?'
tbag4
(g5
(I0
tS'b'
tRp982
(I1
(tg8
I00
S'\xc7\xc6}?'
tbag4
(g5
(I0
tS'b'
tRp983
(I1
(tg8
I00
S'\xc9\xc8}?'
tbag4
(g5
(I0
tS'b'
tRp984
(I1
(tg8
I00
S'\xc7\xc6}?'
tbag4
(g5
(I0
tS'b'
tRp985
(I1
(tg8
I00
S'\xcc\xcb}?'
tbag4
(g5
(I0
tS'b'
tRp986
(I1
(tg8
I00
S'H\xc8}?'
tbag4
(g5
(I0
tS'b'
tRp987
(I1
(tg8
I00
S'\xce\xcd}?'
tbag4
(g5
(I0
tS'b'
tRp988
(I1
(tg8
I00
S'D\xc4}?'
tbag4
(g5
(I0
tS'b'
tRp989
(I1
(tg8
I00
S'K\xcb}?'
tbag4
(g5
(I0
tS'b'
tRp990
(I1
(tg8
I00
S'\xca\xc9}?'
tbag4
(g5
(I0
tS'b'
tRp991
(I1
(tg8
I00
S'\xd9\xd8}?'
tbag4
(g5
(I0
tS'b'
tRp992
(I1
(tg8
I00
S'\xc3\xc2}?'
tbag4
(g5
(I0
tS'b'
tRp993
(I1
(tg8
I00
S'Q\xd1}?'
tbag4
(g5
(I0
tS'b'
tRp994
(I1
(tg8
I00
S'\xcd\xcc}?'
tbag4
(g5
(I0
tS'b'
tRp995
(I1
(tg8
I00
S'J\xca}?'
tbag4
(g5
(I0
tS'b'
tRp996
(I1
(tg8
I00
S';\xbb}?'
tbag4
(g5
(I0
tS'b'
tRp997
(I1
(tg8
I00
S'\xcb\xca}?'
tbag4
(g5
(I0
tS'b'
tRp998
(I1
(tg8
I00
S'\xc3\xc2}?'
tbag4
(g5
(I0
tS'b'
tRp999
(I1
(tg8
I00
S'\xc5\xc4}?'
tbag4
(g5
(I0
tS'b'
tRp1000
(I1
(tg8
I00
S'?\xbf}?'
tbag4
(g5
(I0
tS'b'
tRp1001
(I1
(tg8
I00
S'\xc3\xc2}?'
tbag4
(g5
(I0
tS'b'
tRp1002
(I1
(tg8
I00
S'=\xbd}?'
tbag4
(g5
(I0
tS'b'
tRp1003
(I1
(tg8
I00
S'\xc7\xc6}?'
tbag4
(g5
(I0
tS'b'
tRp1004
(I1
(tg8
I00
S'H\xc8}?'
tbag4
(g5
(I0
tS'b'
tRp1005
(I1
(tg8
I00
S'\xcb\xca}?'
tbag4
(g5
(I0
tS'b'
tRp1006
(I1
(tg8
I00
S'B\xc2}?'
tbag4
(g5
(I0
tS'b'
tRp1007
(I1
(tg8
I00
S'\xd0\xcf}?'
tbag4
(g5
(I0
tS'b'
tRp1008
(I1
(tg8
I00
S'?\xbf}?'
tbag4
(g5
(I0
tS'b'
tRp1009
(I1
(tg8
I00
S'H\xc8}?'
tbag4
(g5
(I0
tS'b'
tRp1010
(I1
(tg8
I00
S'K\xcb}?'
tbag4
(g5
(I0
tS'b'
tRp1011
(I1
(tg8
I00
S'D\xc4}?'
tbag4
(g5
(I0
tS'b'
tRp1012
(I1
(tg8
I00
S'G\xc7}?'
tbag4
(g5
(I0
tS'b'
tRp1013
(I1
(tg8
I00
S'P\xd0}?'
tbag4
(g5
(I0
tS'b'
tRp1014
(I1
(tg8
I00
S'\xcb\xca}?'
tbag4
(g5
(I0
tS'b'
tRp1015
(I1
(tg8
I00
S'\xd1\xd0}?'
tbag4
(g5
(I0
tS'b'
tRp1016
(I1
(tg8
I00
S'K\xcb}?'
tbag4
(g5
(I0
tS'b'
tRp1017
(I1
(tg8
I00
S'H\xc8}?'
tbag4
(g5
(I0
tS'b'
tRp1018
(I1
(tg8
I00
S'D\xc4}?'
tbag4
(g5
(I0
tS'b'
tRp1019
(I1
(tg8
I00
S'H\xc8}?'
tbag4
(g5
(I0
tS'b'
tRp1020
(I1
(tg8
I00
S'N\xce}?'
tbag4
(g5
(I0
tS'b'
tRp1021
(I1
(tg8
I00
S'T\xd4}?'
tbag4
(g5
(I0
tS'b'
tRp1022
(I1
(tg8
I00
S'K\xcb}?'
tbag4
(g5
(I0
tS'b'
tRp1023
(I1
(tg8
I00
S'R\xd2}?'
tbag4
(g5
(I0
tS'b'
tRp1024
(I1
(tg8
I00
S'\xc3\xc2}?'
tbag4
(g5
(I0
tS'b'
tRp1025
(I1
(tg8
I00
S'B\xc2}?'
tbag4
(g5
(I0
tS'b'
tRp1026
(I1
(tg8
I00
S'\xcd\xcc}?'
tbag4
(g5
(I0
tS'b'
tRp1027
(I1
(tg8
I00
S'\xca\xc9}?'
tbag4
(g5
(I0
tS'b'
tRp1028
(I1
(tg8
I00
S'\xd8\xd7}?'
tbag4
(g5
(I0
tS'b'
tRp1029
(I1
(tg8
I00
S'\xd4\xd3}?'
tbag4
(g5
(I0
tS'b'
tRp1030
(I1
(tg8
I00
S'\xc5\xc4}?'
tbag4
(g5
(I0
tS'b'
tRp1031
(I1
(tg8
I00
S'R\xd2}?'
tbag4
(g5
(I0
tS'b'
tRp1032
(I1
(tg8
I00
S'O\xcf}?'
tbag4
(g5
(I0
tS'b'
tRp1033
(I1
(tg8
I00
S'J\xca}?'
tbag4
(g5
(I0
tS'b'
tRp1034
(I1
(tg8
I00
S'\xd6\xd5}?'
tbag4
(g5
(I0
tS'b'
tRp1035
(I1
(tg8
I00
S'J\xca}?'
tbag4
(g5
(I0
tS'b'
tRp1036
(I1
(tg8
I00
S'\xcb\xca}?'
tbag4
(g5
(I0
tS'b'
tRp1037
(I1
(tg8
I00
S'\xcf\xce}?'
tbag4
(g5
(I0
tS'b'
tRp1038
(I1
(tg8
I00
S'O\xcf}?'
tbag4
(g5
(I0
tS'b'
tRp1039
(I1
(tg8
I00
S'P\xd0}?'
tbag4
(g5
(I0
tS'b'
tRp1040
(I1
(tg8
I00
S'H\xc8}?'
tbag4
(g5
(I0
tS'b'
tRp1041
(I1
(tg8
I00
S'\xda\xd9}?'
tbag4
(g5
(I0
tS'b'
tRp1042
(I1
(tg8
I00
S'\xc9\xc8}?'
tbag4
(g5
(I0
tS'b'
tRp1043
(I1
(tg8
I00
S'\xd4\xd3}?'
tbag4
(g5
(I0
tS'b'
tRp1044
(I1
(tg8
I00
S'\xcd\xcc}?'
tbag4
(g5
(I0
tS'b'
tRp1045
(I1
(tg8
I00
S'Y\xd9}?'
tbag4
(g5
(I0
tS'b'
tRp1046
(I1
(tg8
I00
S'H\xc8}?'
tbag4
(g5
(I0
tS'b'
tRp1047
(I1
(tg8
I00
S'\xd6\xd5}?'
tbag4
(g5
(I0
tS'b'
tRp1048
(I1
(tg8
I00
S'K\xcb}?'
tbag4
(g5
(I0
tS'b'
tRp1049
(I1
(tg8
I00
S'H\xc8}?'
tbag4
(g5
(I0
tS'b'
tRp1050
(I1
(tg8
I00
S'N\xce}?'
tbag4
(g5
(I0
tS'b'
tRp1051
(I1
(tg8
I00
S'O\xcf}?'
tbag4
(g5
(I0
tS'b'
tRp1052
(I1
(tg8
I00
S'\xd2\xd1}?'
tbag4
(g5
(I0
tS'b'
tRp1053
(I1
(tg8
I00
S'M\xcd}?'
tbag4
(g5
(I0
tS'b'
tRp1054
(I1
(tg8
I00
S'\xd0\xcf}?'
tbag4
(g5
(I0
tS'b'
tRp1055
(I1
(tg8
I00
S'\xc8\xc7}?'
tbag4
(g5
(I0
tS'b'
tRp1056
(I1
(tg8
I00
S'\xcf\xce}?'
tbag4
(g5
(I0
tS'b'
tRp1057
(I1
(tg8
I00
S'I\xc9}?'
tbag4
(g5
(I0
tS'b'
tRp1058
(I1
(tg8
I00
S'\xc3\xc2}?'
tbag4
(g5
(I0
tS'b'
tRp1059
(I1
(tg8
I00
S'\xd1\xd0}?'
tbag4
(g5
(I0
tS'b'
tRp1060
(I1
(tg8
I00
S'\xcc\xcb}?'
tbag4
(g5
(I0
tS'b'
tRp1061
(I1
(tg8
I00
S'\xcc\xcb}?'
tbag4
(g5
(I0
tS'b'
tRp1062
(I1
(tg8
I00
S'\xc9\xc8}?'
tbag4
(g5
(I0
tS'b'
tRp1063
(I1
(tg8
I00
S'I\xc9}?'
tbag4
(g5
(I0
tS'b'
tRp1064
(I1
(tg8
I00
S'L\xcc}?'
tbag4
(g5
(I0
tS'b'
tRp1065
(I1
(tg8
I00
S'\xd1\xd0}?'
tbag4
(g5
(I0
tS'b'
tRp1066
(I1
(tg8
I00
S'\xd4\xd3}?'
tbag4
(g5
(I0
tS'b'
tRp1067
(I1
(tg8
I00
S'\xc8\xc7}?'
tbag4
(g5
(I0
tS'b'
tRp1068
(I1
(tg8
I00
S'N\xce}?'
tbag4
(g5
(I0
tS'b'
tRp1069
(I1
(tg8
I00
S'B\xc2}?'
tbag4
(g5
(I0
tS'b'
tRp1070
(I1
(tg8
I00
S'N\xce}?'
tbag4
(g5
(I0
tS'b'
tRp1071
(I1
(tg8
I00
S'\xd3\xd2}?'
tbag4
(g5
(I0
tS'b'
tRp1072
(I1
(tg8
I00
S'\xcf\xce}?'
tbag4
(g5
(I0
tS'b'
tRp1073
(I1
(tg8
I00
S'L\xcc}?'
tbag4
(g5
(I0
tS'b'
tRp1074
(I1
(tg8
I00
S'\xc9\xc8}?'
tbag4
(g5
(I0
tS'b'
tRp1075
(I1
(tg8
I00
S'G\xc7}?'
tbag4
(g5
(I0
tS'b'
tRp1076
(I1
(tg8
I00
S'G\xc7}?'
tbag4
(g5
(I0
tS'b'
tRp1077
(I1
(tg8
I00
S'I\xc9}?'
tbag4
(g5
(I0
tS'b'
tRp1078
(I1
(tg8
I00
S'P\xd0}?'
tbag4
(g5
(I0
tS'b'
tRp1079
(I1
(tg8
I00
S'I\xc9}?'
tbag4
(g5
(I0
tS'b'
tRp1080
(I1
(tg8
I00
S'\xc9\xc8}?'
tbag4
(g5
(I0
tS'b'
tRp1081
(I1
(tg8
I00
S'P\xd0}?'
tbag4
(g5
(I0
tS'b'
tRp1082
(I1
(tg8
I00
S'\xca\xc9}?'
tbag4
(g5
(I0
tS'b'
tRp1083
(I1
(tg8
I00
S'\xc3\xc2}?'
tbag4
(g5
(I0
tS'b'
tRp1084
(I1
(tg8
I00
S'\xc5\xc4}?'
tbag4
(g5
(I0
tS'b'
tRp1085
(I1
(tg8
I00
S'C\xc3}?'
tbag4
(g5
(I0
tS'b'
tRp1086
(I1
(tg8
I00
S'\xc7\xc6}?'
tbag4
(g5
(I0
tS'b'
tRp1087
(I1
(tg8
I00
S'@\xc0}?'
tbag4
(g5
(I0
tS'b'
tRp1088
(I1
(tg8
I00
S'R\xd2}?'
tbag4
(g5
(I0
tS'b'
tRp1089
(I1
(tg8
I00
S'\xbd\xbc}?'
tbag4
(g5
(I0
tS'b'
tRp1090
(I1
(tg8
I00
S'\xc8\xc7}?'
tbag4
(g5
(I0
tS'b'
tRp1091
(I1
(tg8
I00
S'G\xc7}?'
tbag4
(g5
(I0
tS'b'
tRp1092
(I1
(tg8
I00
S'\xc4\xc3}?'
tbag4
(g5
(I0
tS'b'
tRp1093
(I1
(tg8
I00
S'\xc6\xc5}?'
tbag4
(g5
(I0
tS'b'
tRp1094
(I1
(tg8
I00
S':\xba}?'
tbag4
(g5
(I0
tS'b'
tRp1095
(I1
(tg8
I00
S'\xbc\xbb}?'
tbag4
(g5
(I0
tS'b'
tRp1096
(I1
(tg8
I00
S'\xc4\xc3}?'
tbag4
(g5
(I0
tS'b'
tRp1097
(I1
(tg8
I00
S'D\xc4}?'
tbag4
(g5
(I0
tS'b'
tRp1098
(I1
(tg8
I00
S'V\xd6}?'
tbag4
(g5
(I0
tS'b'
tRp1099
(I1
(tg8
I00
S'\xcc\xcb}?'
tbag4
(g5
(I0
tS'b'
tRp1100
(I1
(tg8
I00
S'\xd0\xcf}?'
tbag4
(g5
(I0
tS'b'
tRp1101
(I1
(tg8
I00
S'\xc5\xc4}?'
tbag4
(g5
(I0
tS'b'
tRp1102
(I1
(tg8
I00
S'B\xc2}?'
tbag4
(g5
(I0
tS'b'
tRp1103
(I1
(tg8
I00
S'D\xc4}?'
tbag4
(g5
(I0
tS'b'
tRp1104
(I1
(tg8
I00
S'P\xd0}?'
tbag4
(g5
(I0
tS'b'
tRp1105
(I1
(tg8
I00
S'\xd4\xd3}?'
tbag4
(g5
(I0
tS'b'
tRp1106
(I1
(tg8
I00
S'\xca\xc9}?'
tbag4
(g5
(I0
tS'b'
tRp1107
(I1
(tg8
I00
S'\xcb\xca}?'
tbag4
(g5
(I0
tS'b'
tRp1108
(I1
(tg8
I00
S'\xd3\xd2}?'
tbag4
(g5
(I0
tS'b'
tRp1109
(I1
(tg8
I00
S'[\xdb}?'
tbag4
(g5
(I0
tS'b'
tRp1110
(I1
(tg8
I00
S'M\xcd}?'
tbag4
(g5
(I0
tS'b'
tRp1111
(I1
(tg8
I00
S'G\xc7}?'
tbag4
(g5
(I0
tS'b'
tRp1112
(I1
(tg8
I00
S'M\xcd}?'
tbag4
(g5
(I0
tS'b'
tRp1113
(I1
(tg8
I00
S'\xf6\xf5}?'
tbag4
(g5
(I0
tS'b'
tRp1114
(I1
(tg8
I00
S'\xd3\xd2}?'
tbag4
(g5
(I0
tS'b'
tRp1115
(I1
(tg8
I00
S'\xd8\xd7}?'
tbag4
(g5
(I0
tS'b'
tRp1116
(I1
(tg8
I00
S'I\xc9}?'
tbag4
(g5
(I0
tS'b'
tRp1117
(I1
(tg8
I00
S'O\xcf}?'
tbag4
(g5
(I0
tS'b'
tRp1118
(I1
(tg8
I00
S'M\xcd}?'
tbag4
(g5
(I0
tS'b'
tRp1119
(I1
(tg8
I00
S'\xd3\xd2}?'
tbag4
(g5
(I0
tS'b'
tRp1120
(I1
(tg8
I00
S'I\xc9}?'
tbag4
(g5
(I0
tS'b'
tRp1121
(I1
(tg8
I00
S'\xcc\xcb}?'
tbag4
(g5
(I0
tS'b'
tRp1122
(I1
(tg8
I00
S'L\xcc}?'
tbag4
(g5
(I0
tS'b'
tRp1123
(I1
(tg8
I00
S'\xc9\xc8}?'
tbag4
(g5
(I0
tS'b'
tRp1124
(I1
(tg8
I00
S'N\xce}?'
tbag4
(g5
(I0
tS'b'
tRp1125
(I1
(tg8
I00
S'\xcc\xcb}?'
tbag4
(g5
(I0
tS'b'
tRp1126
(I1
(tg8
I00
S'\xd3\xd2}?'
tbag4
(g5
(I0
tS'b'
tRp1127
(I1
(tg8
I00
S'\xd4\xd3}?'
tbag4
(g5
(I0
tS'b'
tRp1128
(I1
(tg8
I00
S'\xcc\xcb}?'
tbag4
(g5
(I0
tS'b'
tRp1129
(I1
(tg8
I00
S'\xca\xc9}?'
tbag4
(g5
(I0
tS'b'
tRp1130
(I1
(tg8
I00
S'H\xc8}?'
tbag4
(g5
(I0
tS'b'
tRp1131
(I1
(tg8
I00
S'\xde\xdd}?'
tbag4
(g5
(I0
tS'b'
tRp1132
(I1
(tg8
I00
S'\xcc\xcb}?'
tbag4
(g5
(I0
tS'b'
tRp1133
(I1
(tg8
I00
S'B\xc2}?'
tbag4
(g5
(I0
tS'b'
tRp1134
(I1
(tg8
I00
S'U\xd5}?'
tbag4
(g5
(I0
tS'b'
tRp1135
(I1
(tg8
I00
S'P\xd0}?'
tbag4
(g5
(I0
tS'b'
tRp1136
(I1
(tg8
I00
S'N\xce}?'
tbag4
(g5
(I0
tS'b'
tRp1137
(I1
(tg8
I00
S'\xca\xc9}?'
tbag4
(g5
(I0
tS'b'
tRp1138
(I1
(tg8
I00
S'\xd2\xd1}?'
tbag4
(g5
(I0
tS'b'
tRp1139
(I1
(tg8
I00
S'\xcd\xcc}?'
tbag4
(g5
(I0
tS'b'
tRp1140
(I1
(tg8
I00
S'\xcc\xcb}?'
tbag4
(g5
(I0
tS'b'
tRp1141
(I1
(tg8
I00
S'C\xc3}?'
tbag4
(g5
(I0
tS'b'
tRp1142
(I1
(tg8
I00
S'\xcf\xce}?'
tbag4
(g5
(I0
tS'b'
tRp1143
(I1
(tg8
I00
S'O\xcf}?'
tbag4
(g5
(I0
tS'b'
tRp1144
(I1
(tg8
I00
S'\xd0\xcf}?'
tbag4
(g5
(I0
tS'b'
tRp1145
(I1
(tg8
I00
S'\xc6\xc5}?'
tbag4
(g5
(I0
tS'b'
tRp1146
(I1
(tg8
I00
S'\xce\xcd}?'
tbag4
(g5
(I0
tS'b'
tRp1147
(I1
(tg8
I00
S'L\xcc}?'
tbag4
(g5
(I0
tS'b'
tRp1148
(I1
(tg8
I00
S'P\xd0}?'
tbag4
(g5
(I0
tS'b'
tRp1149
(I1
(tg8
I00
S'F\xc6}?'
tbag4
(g5
(I0
tS'b'
tRp1150
(I1
(tg8
I00
S'D\xc4}?'
tbag4
(g5
(I0
tS'b'
tRp1151
(I1
(tg8
I00
S'\xdd\xdc}?'
tbag4
(g5
(I0
tS'b'
tRp1152
(I1
(tg8
I00
S'N\xce}?'
tbag4
(g5
(I0
tS'b'
tRp1153
(I1
(tg8
I00
S'U\xd5}?'
tbag4
(g5
(I0
tS'b'
tRp1154
(I1
(tg8
I00
S'\xcb\xca}?'
tbag4
(g5
(I0
tS'b'
tRp1155
(I1
(tg8
I00
S'\xce\xcd}?'
tbag4
(g5
(I0
tS'b'
tRp1156
(I1
(tg8
I00
S'\xce\xcd}?'
tbag4
(g5
(I0
tS'b'
tRp1157
(I1
(tg8
I00
S'\xc7\xc6}?'
tbag4
(g5
(I0
tS'b'
tRp1158
(I1
(tg8
I00
S'J\xca}?'
tbag4
(g5
(I0
tS'b'
tRp1159
(I1
(tg8
I00
S'\xd0\xcf}?'
tbag4
(g5
(I0
tS'b'
tRp1160
(I1
(tg8
I00
S'M\xcd}?'
tbag4
(g5
(I0
tS'b'
tRp1161
(I1
(tg8
I00
S'R\xd2}?'
tbag4
(g5
(I0
tS'b'
tRp1162
(I1
(tg8
I00
S'\xd4\xd3}?'
tbag4
(g5
(I0
tS'b'
tRp1163
(I1
(tg8
I00
S'O\xcf}?'
tbag4
(g5
(I0
tS'b'
tRp1164
(I1
(tg8
I00
S'\xd2\xd1}?'
tbag4
(g5
(I0
tS'b'
tRp1165
(I1
(tg8
I00
S'J\xca}?'
tbag4
(g5
(I0
tS'b'
tRp1166
(I1
(tg8
I00
S'D\xc4}?'
tbag4
(g5
(I0
tS'b'
tRp1167
(I1
(tg8
I00
S'\xc5\xc4}?'
tbag4
(g5
(I0
tS'b'
tRp1168
(I1
(tg8
I00
S'\xa6\xa5}?'
tbag4
(g5
(I0
tS'b'
tRp1169
(I1
(tg8
I00
S'J\xca}?'
tbag4
(g5
(I0
tS'b'
tRp1170
(I1
(tg8
I00
S'\xd1\xd0}?'
tbag4
(g5
(I0
tS'b'
tRp1171
(I1
(tg8
I00
S'Y\xd9}?'
tbag4
(g5
(I0
tS'b'
tRp1172
(I1
(tg8
I00
S'G\xc7}?'
tbag4
(g5
(I0
tS'b'
tRp1173
(I1
(tg8
I00
S'\xd2\xd1}?'
tbag4
(g5
(I0
tS'b'
tRp1174
(I1
(tg8
I00
S'\xce\xcd}?'
tbag4
(g5
(I0
tS'b'
tRp1175
(I1
(tg8
I00
S'\xcd\xcc}?'
tbag4
(g5
(I0
tS'b'
tRp1176
(I1
(tg8
I00
S'\xce\xcd}?'
tbag4
(g5
(I0
tS'b'
tRp1177
(I1
(tg8
I00
S'\xcf\xce}?'
tbag4
(g5
(I0
tS'b'
tRp1178
(I1
(tg8
I00
S'\xd9\xd8}?'
tbag4
(g5
(I0
tS'b'
tRp1179
(I1
(tg8
I00
S'\xd0\xcf}?'
tbag4
(g5
(I0
tS'b'
tRp1180
(I1
(tg8
I00
S'N\xce}?'
tbag4
(g5
(I0
tS'b'
tRp1181
(I1
(tg8
I00
S'\xd0\xcf}?'
tbag4
(g5
(I0
tS'b'
tRp1182
(I1
(tg8
I00
S'\xc8\xc7}?'
tbag4
(g5
(I0
tS'b'
tRp1183
(I1
(tg8
I00
S'\xcb\xca}?'
tbag4
(g5
(I0
tS'b'
tRp1184
(I1
(tg8
I00
S'O\xcf}?'
tbag4
(g5
(I0
tS'b'
tRp1185
(I1
(tg8
I00
S'\xcb\xca}?'
tbag4
(g5
(I0
tS'b'
tRp1186
(I1
(tg8
I00
S'P\xd0}?'
tbag4
(g5
(I0
tS'b'
tRp1187
(I1
(tg8
I00
S'M\xcd}?'
tbag4
(g5
(I0
tS'b'
tRp1188
(I1
(tg8
I00
S'O\xcf}?'
tbag4
(g5
(I0
tS'b'
tRp1189
(I1
(tg8
I00
S'\xc3\xc2}?'
tbag4
(g5
(I0
tS'b'
tRp1190
(I1
(tg8
I00
S'H\xc8}?'
tbag4
(g5
(I0
tS'b'
tRp1191
(I1
(tg8
I00
S'W\xd7}?'
tbag4
(g5
(I0
tS'b'
tRp1192
(I1
(tg8
I00
S'\xd6\xd5}?'
tbag4
(g5
(I0
tS'b'
tRp1193
(I1
(tg8
I00
S'\xd5\xd4}?'
tbag4
(g5
(I0
tS'b'
tRp1194
(I1
(tg8
I00
S'T\xd4}?'
tbag4
(g5
(I0
tS'b'
tRp1195
(I1
(tg8
I00
S'\xcf\xce}?'
tbag4
(g5
(I0
tS'b'
tRp1196
(I1
(tg8
I00
S'\xcf\xce}?'
tbag4
(g5
(I0
tS'b'
tRp1197
(I1
(tg8
I00
S'Q\xd1}?'
tbag4
(g5
(I0
tS'b'
tRp1198
(I1
(tg8
I00
S'\xc7\xc6}?'
tbag4
(g5
(I0
tS'b'
tRp1199
(I1
(tg8
I00
S'\xd4\xd3}?'
tbag4
(g5
(I0
tS'b'
tRp1200
(I1
(tg8
I00
S'T\xd4}?'
tbag4
(g5
(I0
tS'b'
tRp1201
(I1
(tg8
I00
S'\xce\xcd}?'
tbag4
(g5
(I0
tS'b'
tRp1202
(I1
(tg8
I00
S'I\xc9}?'
tbag4
(g5
(I0
tS'b'
tRp1203
(I1
(tg8
I00
S'I\xc9}?'
tbag4
(g5
(I0
tS'b'
tRp1204
(I1
(tg8
I00
S'\xd6\xd5}?'
tbag4
(g5
(I0
tS'b'
tRp1205
(I1
(tg8
I00
S'\xd6\xd5}?'
tbag4
(g5
(I0
tS'b'
tRp1206
(I1
(tg8
I00
S'K\xcb}?'
tbag4
(g5
(I0
tS'b'
tRp1207
(I1
(tg8
I00
S'\xce\xcd}?'
tbag4
(g5
(I0
tS'b'
tRp1208
(I1
(tg8
I00
S'R\xd2}?'
tbag4
(g5
(I0
tS'b'
tRp1209
(I1
(tg8
I00
S'\xcd\xcc}?'
tbag4
(g5
(I0
tS'b'
tRp1210
(I1
(tg8
I00
S'P\xd0}?'
tbag4
(g5
(I0
tS'b'
tRp1211
(I1
(tg8
I00
S'Q\xd1}?'
tbag4
(g5
(I0
tS'b'
tRp1212
(I1
(tg8
I00
S'\xca\xc9}?'
tbag4
(g5
(I0
tS'b'
tRp1213
(I1
(tg8
I00
S'\xc9\xc8}?'
tbag4
(g5
(I0
tS'b'
tRp1214
(I1
(tg8
I00
S'\xd0\xcf}?'
tbag4
(g5
(I0
tS'b'
tRp1215
(I1
(tg8
I00
S'\xc6\xc5}?'
tbag4
(g5
(I0
tS'b'
tRp1216
(I1
(tg8
I00
S'\xd6\xd5}?'
tbag4
(g5
(I0
tS'b'
tRp1217
(I1
(tg8
I00
S'H\xc8}?'
tbag4
(g5
(I0
tS'b'
tRp1218
(I1
(tg8
I00
S'M\xcd}?'
tbag4
(g5
(I0
tS'b'
tRp1219
(I1
(tg8
I00
S'D\xc4}?'
tbag4
(g5
(I0
tS'b'
tRp1220
(I1
(tg8
I00
S'N\xce}?'
tbag4
(g5
(I0
tS'b'
tRp1221
(I1
(tg8
I00
S'C\xc3}?'
tbag4
(g5
(I0
tS'b'
tRp1222
(I1
(tg8
I00
S'R\xd2}?'
tbag4
(g5
(I0
tS'b'
tRp1223
(I1
(tg8
I00
S'V\xd6}?'
tbag4
(g5
(I0
tS'b'
tRp1224
(I1
(tg8
I00
S'W\xd7}?'
tbag4
(g5
(I0
tS'b'
tRp1225
(I1
(tg8
I00
S'\xc4\xc3}?'
tbag4
(g5
(I0
tS'b'
tRp1226
(I1
(tg8
I00
S'F\xc6}?'
tbag4
(g5
(I0
tS'b'
tRp1227
(I1
(tg8
I00
S'A\xc1}?'
tbag4
(g5
(I0
tS'b'
tRp1228
(I1
(tg8
I00
S'\xca\xc9}?'
tbag4
(g5
(I0
tS'b'
tRp1229
(I1
(tg8
I00
S'L\xcc}?'
tbag4
(g5
(I0
tS'b'
tRp1230
(I1
(tg8
I00
S'P\xd0}?'
tbag4
(g5
(I0
tS'b'
tRp1231
(I1
(tg8
I00
S'L\xcc}?'
tbag4
(g5
(I0
tS'b'
tRp1232
(I1
(tg8
I00
S']\xdd}?'
tbag4
(g5
(I0
tS'b'
tRp1233
(I1
(tg8
I00
S'S\xd3}?'
tbag4
(g5
(I0
tS'b'
tRp1234
(I1
(tg8
I00
S'G\xc7}?'
tbag4
(g5
(I0
tS'b'
tRp1235
(I1
(tg8
I00
S'K\xcb}?'
tbag4
(g5
(I0
tS'b'
tRp1236
(I1
(tg8
I00
S'N\xce}?'
tbag4
(g5
(I0
tS'b'
tRp1237
(I1
(tg8
I00
S'\xce\xcd}?'
tbag4
(g5
(I0
tS'b'
tRp1238
(I1
(tg8
I00
S'\xd5\xd4}?'
tbag4
(g5
(I0
tS'b'
tRp1239
(I1
(tg8
I00
S'\xcb\xca}?'
tbag4
(g5
(I0
tS'b'
tRp1240
(I1
(tg8
I00
S'J\xca}?'
tbag4
(g5
(I0
tS'b'
tRp1241
(I1
(tg8
I00
S'\xd0\xcf}?'
tbag4
(g5
(I0
tS'b'
tRp1242
(I1
(tg8
I00
S'\xc8\xc7}?'
tbag4
(g5
(I0
tS'b'
tRp1243
(I1
(tg8
I00
S'\xc0\xbf}?'
tbag4
(g5
(I0
tS'b'
tRp1244
(I1
(tg8
I00
S'\xd3\xd2}?'
tbag4
(g5
(I0
tS'b'
tRp1245
(I1
(tg8
I00
S'\xca\xc9}?'
tbag4
(g5
(I0
tS'b'
tRp1246
(I1
(tg8
I00
S'N\xce}?'
tbag4
(g5
(I0
tS'b'
tRp1247
(I1
(tg8
I00
S'\xcb\xca}?'
tbag4
(g5
(I0
tS'b'
tRp1248
(I1
(tg8
I00
S'L\xcc}?'
tbag4
(g5
(I0
tS'b'
tRp1249
(I1
(tg8
I00
S'G\xc7}?'
tbag4
(g5
(I0
tS'b'
tRp1250
(I1
(tg8
I00
S'E\xc5}?'
tbag4
(g5
(I0
tS'b'
tRp1251
(I1
(tg8
I00
S'\xc5\xc4}?'
tbag4
(g5
(I0
tS'b'
tRp1252
(I1
(tg8
I00
S'\xca\xc9}?'
tbag4
(g5
(I0
tS'b'
tRp1253
(I1
(tg8
I00
S'J\xca}?'
tbag4
(g5
(I0
tS'b'
tRp1254
(I1
(tg8
I00
S'\xcb\xca}?'
tbag4
(g5
(I0
tS'b'
tRp1255
(I1
(tg8
I00
S'\\\xdc}?'
tbag4
(g5
(I0
tS'b'
tRp1256
(I1
(tg8
I00
S'?\xbf}?'
tbag4
(g5
(I0
tS'b'
tRp1257
(I1
(tg8
I00
S'A\xc1}?'
tbag4
(g5
(I0
tS'b'
tRp1258
(I1
(tg8
I00
S'C\xc3}?'
tbag4
(g5
(I0
tS'b'
tRp1259
(I1
(tg8
I00
S'\xcc\xcb}?'
tbag4
(g5
(I0
tS'b'
tRp1260
(I1
(tg8
I00
S'P\xd0}?'
tbag4
(g5
(I0
tS'b'
tRp1261
(I1
(tg8
I00
S'\xca\xc9}?'
tbag4
(g5
(I0
tS'b'
tRp1262
(I1
(tg8
I00
S'M\xcd}?'
tbag4
(g5
(I0
tS'b'
tRp1263
(I1
(tg8
I00
S'Q\xd1}?'
tbag4
(g5
(I0
tS'b'
tRp1264
(I1
(tg8
I00
S'\xdd\xdc}?'
tbag4
(g5
(I0
tS'b'
tRp1265
(I1
(tg8
I00
S'\xd5\xd4}?'
tbag4
(g5
(I0
tS'b'
tRp1266
(I1
(tg8
I00
S'\xd9\xd8}?'
tbag4
(g5
(I0
tS'b'
tRp1267
(I1
(tg8
I00
S'\xd1\xd0}?'
tbag4
(g5
(I0
tS'b'
tRp1268
(I1
(tg8
I00
S'C\xc3}?'
tbag4
(g5
(I0
tS'b'
tRp1269
(I1
(tg8
I00
S'L\xcc}?'
tbag4
(g5
(I0
tS'b'
tRp1270
(I1
(tg8
I00
S'G\xc7}?'
tbag4
(g5
(I0
tS'b'
tRp1271
(I1
(tg8
I00
S'\xea\xe9}?'
tbag4
(g5
(I0
tS'b'
tRp1272
(I1
(tg8
I00
S'O\xcf}?'
tbag4
(g5
(I0
tS'b'
tRp1273
(I1
(tg8
I00
S'\xcc\xcb}?'
tbag4
(g5
(I0
tS'b'
tRp1274
(I1
(tg8
I00
S'G\xc7}?'
tbag4
(g5
(I0
tS'b'
tRp1275
(I1
(tg8
I00
S'R\xd2}?'
tbag4
(g5
(I0
tS'b'
tRp1276
(I1
(tg8
I00
S'N\xce}?'
tbag4
(g5
(I0
tS'b'
tRp1277
(I1
(tg8
I00
S'H\xc8}?'
tbag4
(g5
(I0
tS'b'
tRp1278
(I1
(tg8
I00
S'\xd4\xd3}?'
tbag4
(g5
(I0
tS'b'
tRp1279
(I1
(tg8
I00
S'L\xcc}?'
tbag4
(g5
(I0
tS'b'
tRp1280
(I1
(tg8
I00
S'\xcb\xca}?'
tbag4
(g5
(I0
tS'b'
tRp1281
(I1
(tg8
I00
S'\xcb\xca}?'
tbag4
(g5
(I0
tS'b'
tRp1282
(I1
(tg8
I00
S'Q\xd1}?'
tbag4
(g5
(I0
tS'b'
tRp1283
(I1
(tg8
I00
S'\xcf\xce}?'
tbag4
(g5
(I0
tS'b'
tRp1284
(I1
(tg8
I00
S'\xd5\xd4}?'
tbag4
(g5
(I0
tS'b'
tRp1285
(I1
(tg8
I00
S'R\xd2}?'
tbag4
(g5
(I0
tS'b'
tRp1286
(I1
(tg8
I00
S'\xc8\xc7}?'
tbag4
(g5
(I0
tS'b'
tRp1287
(I1
(tg8
I00
S'I\xc9}?'
tbag4
(g5
(I0
tS'b'
tRp1288
(I1
(tg8
I00
S'O\xcf}?'
tbag4
(g5
(I0
tS'b'
tRp1289
(I1
(tg8
I00
S'L\xcc}?'
tbag4
(g5
(I0
tS'b'
tRp1290
(I1
(tg8
I00
S'I\xc9}?'
tbag4
(g5
(I0
tS'b'
tRp1291
(I1
(tg8
I00
S'W\xd7}?'
tbag4
(g5
(I0
tS'b'
tRp1292
(I1
(tg8
I00
S'M\xcd}?'
tbag4
(g5
(I0
tS'b'
tRp1293
(I1
(tg8
I00
S'\xd7\xd6}?'
tbag4
(g5
(I0
tS'b'
tRp1294
(I1
(tg8
I00
S'\xcd\xcc}?'
tbag4
(g5
(I0
tS'b'
tRp1295
(I1
(tg8
I00
S'N\xce}?'
tbag4
(g5
(I0
tS'b'
tRp1296
(I1
(tg8
I00
S'\xca\xc9}?'
tbag4
(g5
(I0
tS'b'
tRp1297
(I1
(tg8
I00
S'\xd2\xd1}?'
tbag4
(g5
(I0
tS'b'
tRp1298
(I1
(tg8
I00
S'H\xc8}?'
tbag4
(g5
(I0
tS'b'
tRp1299
(I1
(tg8
I00
S'\xcb\xca}?'
tbag4
(g5
(I0
tS'b'
tRp1300
(I1
(tg8
I00
S'Z\xda}?'
tbag4
(g5
(I0
tS'b'
tRp1301
(I1
(tg8
I00
S'S\xd3}?'
tbag4
(g5
(I0
tS'b'
tRp1302
(I1
(tg8
I00
S'S\xd3}?'
tbag4
(g5
(I0
tS'b'
tRp1303
(I1
(tg8
I00
S'I\xc9}?'
tbag4
(g5
(I0
tS'b'
tRp1304
(I1
(tg8
I00
S'\xc7\xc6}?'
tbag4
(g5
(I0
tS'b'
tRp1305
(I1
(tg8
I00
S'\xd8\xd7}?'
tbag4
(g5
(I0
tS'b'
tRp1306
(I1
(tg8
I00
S'F\xc6}?'
tbag4
(g5
(I0
tS'b'
tRp1307
(I1
(tg8
I00
S'U\xd5}?'
tbag4
(g5
(I0
tS'b'
tRp1308
(I1
(tg8
I00
S'R\xd2}?'
tbag4
(g5
(I0
tS'b'
tRp1309
(I1
(tg8
I00
S'P\xd0}?'
tbag4
(g5
(I0
tS'b'
tRp1310
(I1
(tg8
I00
S'J\xca}?'
tbag4
(g5
(I0
tS'b'
tRp1311
(I1
(tg8
I00
S'\xcd\xcc}?'
tbag4
(g5
(I0
tS'b'
tRp1312
(I1
(tg8
I00
S'\xcf\xce}?'
tbag4
(g5
(I0
tS'b'
tRp1313
(I1
(tg8
I00
S'N\xce}?'
tbag4
(g5
(I0
tS'b'
tRp1314
(I1
(tg8
I00
S'\xc6\xc5}?'
tbag4
(g5
(I0
tS'b'
tRp1315
(I1
(tg8
I00
S'M\xcd}?'
tbag4
(g5
(I0
tS'b'
tRp1316
(I1
(tg8
I00
S'\xc8\xc7}?'
tbag4
(g5
(I0
tS'b'
tRp1317
(I1
(tg8
I00
S'Q\xd1}?'
tbag4
(g5
(I0
tS'b'
tRp1318
(I1
(tg8
I00
S'=\xbd}?'
tbag4
(g5
(I0
tS'b'
tRp1319
(I1
(tg8
I00
S'\xc7\xc6}?'
tbag4
(g5
(I0
tS'b'
tRp1320
(I1
(tg8
I00
S'K\xcb}?'
tbag4
(g5
(I0
tS'b'
tRp1321
(I1
(tg8
I00
S'\xd0\xcf}?'
tbag4
(g5
(I0
tS'b'
tRp1322
(I1
(tg8
I00
S'P\xd0}?'
tbag4
(g5
(I0
tS'b'
tRp1323
(I1
(tg8
I00
S'H\xc8}?'
tbag4
(g5
(I0
tS'b'
tRp1324
(I1
(tg8
I00
S'L\xcc}?'
tbag4
(g5
(I0
tS'b'
tRp1325
(I1
(tg8
I00
S'I\xc9}?'
tbag4
(g5
(I0
tS'b'
tRp1326
(I1
(tg8
I00
S'\xd1\xd0}?'
tbag4
(g5
(I0
tS'b'
tRp1327
(I1
(tg8
I00
S'V\xd6}?'
tbag4
(g5
(I0
tS'b'
tRp1328
(I1
(tg8
I00
S'Q\xd1}?'
tbag4
(g5
(I0
tS'b'
tRp1329
(I1
(tg8
I00
S'U\xd5}?'
tbag4
(g5
(I0
tS'b'
tRp1330
(I1
(tg8
I00
S'\xd8\xd7}?'
tbag4
(g5
(I0
tS'b'
tRp1331
(I1
(tg8
I00
S'K\xcb}?'
tbag4
(g5
(I0
tS'b'
tRp1332
(I1
(tg8
I00
S'\xcd\xcc}?'
tbag4
(g5
(I0
tS'b'
tRp1333
(I1
(tg8
I00
S'V\xd6}?'
tbag4
(g5
(I0
tS'b'
tRp1334
(I1
(tg8
I00
S'G\xc7}?'
tbag4
(g5
(I0
tS'b'
tRp1335
(I1
(tg8
I00
S'\xd0\xcf}?'
tbag4
(g5
(I0
tS'b'
tRp1336
(I1
(tg8
I00
S'K\xcb}?'
tbag4
(g5
(I0
tS'b'
tRp1337
(I1
(tg8
I00
S'\xc9\xc8}?'
tbag4
(g5
(I0
tS'b'
tRp1338
(I1
(tg8
I00
S'\xc5\xc4}?'
tbag4
(g5
(I0
tS'b'
tRp1339
(I1
(tg8
I00
S'\xd1\xd0}?'
tbag4
(g5
(I0
tS'b'
tRp1340
(I1
(tg8
I00
S'O\xcf}?'
tbag4
(g5
(I0
tS'b'
tRp1341
(I1
(tg8
I00
S'\xcb\xca}?'
tbag4
(g5
(I0
tS'b'
tRp1342
(I1
(tg8
I00
S'\xc4\xc3}?'
tbag4
(g5
(I0
tS'b'
tRp1343
(I1
(tg8
I00
S'J\xca}?'
tbag4
(g5
(I0
tS'b'
tRp1344
(I1
(tg8
I00
S'L\xcc}?'
tbag4
(g5
(I0
tS'b'
tRp1345
(I1
(tg8
I00
S'G\xc7}?'
tbag4
(g5
(I0
tS'b'
tRp1346
(I1
(tg8
I00
S'V\xd6}?'
tbag4
(g5
(I0
tS'b'
tRp1347
(I1
(tg8
I00
S'G\xc7}?'
tbag4
(g5
(I0
tS'b'
tRp1348
(I1
(tg8
I00
S'L\xcc}?'
tbag4
(g5
(I0
tS'b'
tRp1349
(I1
(tg8
I00
S'P\xd0}?'
tbag4
(g5
(I0
tS'b'
tRp1350
(I1
(tg8
I00
S'\xca\xc9}?'
tbag4
(g5
(I0
tS'b'
tRp1351
(I1
(tg8
I00
S'J\xca}?'
tbag4
(g5
(I0
tS'b'
tRp1352
(I1
(tg8
I00
S'O\xcf}?'
tbag4
(g5
(I0
tS'b'
tRp1353
(I1
(tg8
I00
S'I\xc9}?'
tbag4
(g5
(I0
tS'b'
tRp1354
(I1
(tg8
I00
S'\xd3\xd2}?'
tbag4
(g5
(I0
tS'b'
tRp1355
(I1
(tg8
I00
S'Q\xd1}?'
tbag4
(g5
(I0
tS'b'
tRp1356
(I1
(tg8
I00
S'V\xd6}?'
tbag4
(g5
(I0
tS'b'
tRp1357
(I1
(tg8
I00
S'J\xca}?'
tbag4
(g5
(I0
tS'b'
tRp1358
(I1
(tg8
I00
S'P\xd0}?'
tbag4
(g5
(I0
tS'b'
tRp1359
(I1
(tg8
I00
S'\xd1\xd0}?'
tbag4
(g5
(I0
tS'b'
tRp1360
(I1
(tg8
I00
S'\xd0\xcf}?'
tbag4
(g5
(I0
tS'b'
tRp1361
(I1
(tg8
I00
S'\xc5\xc4}?'
tbag4
(g5
(I0
tS'b'
tRp1362
(I1
(tg8
I00
S'\xd7\xd6}?'
tbag4
(g5
(I0
tS'b'
tRp1363
(I1
(tg8
I00
S'\xcf\xce}?'
tbag4
(g5
(I0
tS'b'
tRp1364
(I1
(tg8
I00
S'\xd2\xd1}?'
tbag4
(g5
(I0
tS'b'
tRp1365
(I1
(tg8
I00
S'\xdc\xdb}?'
tbag4
(g5
(I0
tS'b'
tRp1366
(I1
(tg8
I00
S'S\xd3}?'
tbag4
(g5
(I0
tS'b'
tRp1367
(I1
(tg8
I00
S'\xdc\xdb}?'
tbag4
(g5
(I0
tS'b'
tRp1368
(I1
(tg8
I00
S'\xc8\xc7}?'
tbag4
(g5
(I0
tS'b'
tRp1369
(I1
(tg8
I00
S'\xdb\xda}?'
tbag4
(g5
(I0
tS'b'
tRp1370
(I1
(tg8
I00
S'B\xc2}?'
tbag4
(g5
(I0
tS'b'
tRp1371
(I1
(tg8
I00
S'\xce\xcd}?'
tbag4
(g5
(I0
tS'b'
tRp1372
(I1
(tg8
I00
S'I\xc9}?'
tbag4
(g5
(I0
tS'b'
tRp1373
(I1
(tg8
I00
S'Q\xd1}?'
tbag4
(g5
(I0
tS'b'
tRp1374
(I1
(tg8
I00
S'W\xd7}?'
tbag4
(g5
(I0
tS'b'
tRp1375
(I1
(tg8
I00
S'\xd5\xd4}?'
tbag4
(g5
(I0
tS'b'
tRp1376
(I1
(tg8
I00
S'P\xd0}?'
tbag4
(g5
(I0
tS'b'
tRp1377
(I1
(tg8
I00
S'\xd6\xd5}?'
tbag4
(g5
(I0
tS'b'
tRp1378
(I1
(tg8
I00
S'M\xcd}?'
tbag4
(g5
(I0
tS'b'
tRp1379
(I1
(tg8
I00
S'K\xcb}?'
tbag4
(g5
(I0
tS'b'
tRp1380
(I1
(tg8
I00
S'R\xd2}?'
tbag4
(g5
(I0
tS'b'
tRp1381
(I1
(tg8
I00
S'\xc2\xc1}?'
tbag4
(g5
(I0
tS'b'
tRp1382
(I1
(tg8
I00
S'\xc8\xc7}?'
tbag4
(g5
(I0
tS'b'
tRp1383
(I1
(tg8
I00
S'\xcd\xcc}?'
tbag4
(g5
(I0
tS'b'
tRp1384
(I1
(tg8
I00
S'\xcb\xca}?'
tbag4
(g5
(I0
tS'b'
tRp1385
(I1
(tg8
I00
S'\xca\xc9}?'
tbag4
(g5
(I0
tS'b'
tRp1386
(I1
(tg8
I00
S'Q\xd1}?'
tbag4
(g5
(I0
tS'b'
tRp1387
(I1
(tg8
I00
S'\xcd\xcc}?'
tbag4
(g5
(I0
tS'b'
tRp1388
(I1
(tg8
I00
S'F\xc6}?'
tbag4
(g5
(I0
tS'b'
tRp1389
(I1
(tg8
I00
S'\xc3\xc2}?'
tbag4
(g5
(I0
tS'b'
tRp1390
(I1
(tg8
I00
S'\xcf\xce}?'
tbag4
(g5
(I0
tS'b'
tRp1391
(I1
(tg8
I00
S'\xc6\xc5}?'
tbag4
(g5
(I0
tS'b'
tRp1392
(I1
(tg8
I00
S'F\xc6}?'
tbag4
(g5
(I0
tS'b'
tRp1393
(I1
(tg8
I00
S'E\xc5}?'
tbag4
(g5
(I0
tS'b'
tRp1394
(I1
(tg8
I00
S'I\xc9}?'
tbag4
(g5
(I0
tS'b'
tRp1395
(I1
(tg8
I00
S'\xd0\xcf}?'
tbag4
(g5
(I0
tS'b'
tRp1396
(I1
(tg8
I00
S'K\xcb}?'
tbag4
(g5
(I0
tS'b'
tRp1397
(I1
(tg8
I00
S'E\xc5}?'
tbag4
(g5
(I0
tS'b'
tRp1398
(I1
(tg8
I00
S'\xd0\xcf}?'
tbag4
(g5
(I0
tS'b'
tRp1399
(I1
(tg8
I00
S'J\xca}?'
tbag4
(g5
(I0
tS'b'
tRp1400
(I1
(tg8
I00
S'\\\xdc}?'
tbag4
(g5
(I0
tS'b'
tRp1401
(I1
(tg8
I00
S'\xde\xdd}?'
tbag4
(g5
(I0
tS'b'
tRp1402
(I1
(tg8
I00
S'\xd0\xcf}?'
tbag4
(g5
(I0
tS'b'
tRp1403
(I1
(tg8
I00
S'C\xc3}?'
tbag4
(g5
(I0
tS'b'
tRp1404
(I1
(tg8
I00
S'J\xca}?'
tbag4
(g5
(I0
tS'b'
tRp1405
(I1
(tg8
I00
S'K\xcb}?'
tbag4
(g5
(I0
tS'b'
tRp1406
(I1
(tg8
I00
S'\xd1\xd0}?'
tbag4
(g5
(I0
tS'b'
tRp1407
(I1
(tg8
I00
S'\xd1\xd0}?'
tbag4
(g5
(I0
tS'b'
tRp1408
(I1
(tg8
I00
S'U\xd5}?'
tbag4
(g5
(I0
tS'b'
tRp1409
(I1
(tg8
I00
S'I\xc9}?'
tbag4
(g5
(I0
tS'b'
tRp1410
(I1
(tg8
I00
S'\xce\xcd}?'
tbag4
(g5
(I0
tS'b'
tRp1411
(I1
(tg8
I00
S'P\xd0}?'
tbag4
(g5
(I0
tS'b'
tRp1412
(I1
(tg8
I00
S'\xc9\xc8}?'
tbag4
(g5
(I0
tS'b'
tRp1413
(I1
(tg8
I00
S'G\xc7}?'
tbag4
(g5
(I0
tS'b'
tRp1414
(I1
(tg8
I00
S'I\xc9}?'
tbag4
(g5
(I0
tS'b'
tRp1415
(I1
(tg8
I00
S'\xd4\xd3}?'
tbag4
(g5
(I0
tS'b'
tRp1416
(I1
(tg8
I00
S'S\xd3}?'
tbag4
(g5
(I0
tS'b'
tRp1417
(I1
(tg8
I00
S'G\xc7}?'
tbag4
(g5
(I0
tS'b'
tRp1418
(I1
(tg8
I00
S'\xcf\xce}?'
tbag4
(g5
(I0
tS'b'
tRp1419
(I1
(tg8
I00
S'\xc8\xc7}?'
tbag4
(g5
(I0
tS'b'
tRp1420
(I1
(tg8
I00
S'O\xcf}?'
tbag4
(g5
(I0
tS'b'
tRp1421
(I1
(tg8
I00
S'\xd4\xd3}?'
tbag4
(g5
(I0
tS'b'
tRp1422
(I1
(tg8
I00
S'Q\xd1}?'
tbag4
(g5
(I0
tS'b'
tRp1423
(I1
(tg8
I00
S'G\xc7}?'
tbag4
(g5
(I0
tS'b'
tRp1424
(I1
(tg8
I00
S'\xd1\xd0}?'
tbag4
(g5
(I0
tS'b'
tRp1425
(I1
(tg8
I00
S'D\xc4}?'
tbag4
(g5
(I0
tS'b'
tRp1426
(I1
(tg8
I00
S'\xd6\xd5}?'
tbag4
(g5
(I0
tS'b'
tRp1427
(I1
(tg8
I00
S'\xd1\xd0}?'
tbag4
(g5
(I0
tS'b'
tRp1428
(I1
(tg8
I00
S'\xcb\xca}?'
tbag4
(g5
(I0
tS'b'
tRp1429
(I1
(tg8
I00
S'\xc6\xc5}?'
tbag4
(g5
(I0
tS'b'
tRp1430
(I1
(tg8
I00
S'\xce\xcd}?'
tbag4
(g5
(I0
tS'b'
tRp1431
(I1
(tg8
I00
S'\xd2\xd1}?'
tbag4
(g5
(I0
tS'b'
tRp1432
(I1
(tg8
I00
S'\xc3\xc2}?'
tbag4
(g5
(I0
tS'b'
tRp1433
(I1
(tg8
I00
S'\xca\xc9}?'
tbag4
(g5
(I0
tS'b'
tRp1434
(I1
(tg8
I00
S'Q\xd1}?'
tbag4
(g5
(I0
tS'b'
tRp1435
(I1
(tg8
I00
S'J\xca}?'
tbag4
(g5
(I0
tS'b'
tRp1436
(I1
(tg8
I00
S'\xd3\xd2}?'
tbag4
(g5
(I0
tS'b'
tRp1437
(I1
(tg8
I00
S'R\xd2}?'
tbag4
(g5
(I0
tS'b'
tRp1438
(I1
(tg8
I00
S'O\xcf}?'
tbag4
(g5
(I0
tS'b'
tRp1439
(I1
(tg8
I00
S'R\xd2}?'
tbag4
(g5
(I0
tS'b'
tRp1440
(I1
(tg8
I00
S'\xce\xcd}?'
tbag4
(g5
(I0
tS'b'
tRp1441
(I1
(tg8
I00
S'Y\xd9}?'
tbag4
(g5
(I0
tS'b'
tRp1442
(I1
(tg8
I00
S'M\xcd}?'
tbag4
(g5
(I0
tS'b'
tRp1443
(I1
(tg8
I00
S'H\xc8}?'
tbag4
(g5
(I0
tS'b'
tRp1444
(I1
(tg8
I00
S'M\xcd}?'
tbag4
(g5
(I0
tS'b'
tRp1445
(I1
(tg8
I00
S'\xd3\xd2}?'
tbag4
(g5
(I0
tS'b'
tRp1446
(I1
(tg8
I00
S'O\xcf}?'
tbag4
(g5
(I0
tS'b'
tRp1447
(I1
(tg8
I00
S'\xc2\xc1}?'
tbag4
(g5
(I0
tS'b'
tRp1448
(I1
(tg8
I00
S'K\xcb}?'
tbag4
(g5
(I0
tS'b'
tRp1449
(I1
(tg8
I00
S'\xcc\xcb}?'
tbag4
(g5
(I0
tS'b'
tRp1450
(I1
(tg8
I00
S'S\xd3}?'
tbag4
(g5
(I0
tS'b'
tRp1451
(I1
(tg8
I00
S'P\xd0}?'
tbag4
(g5
(I0
tS'b'
tRp1452
(I1
(tg8
I00
S'V\xd6}?'
tbag4
(g5
(I0
tS'b'
tRp1453
(I1
(tg8
I00
S'\xcd\xcc}?'
tbag4
(g5
(I0
tS'b'
tRp1454
(I1
(tg8
I00
S'\xc4\xc3}?'
tbag4
(g5
(I0
tS'b'
tRp1455
(I1
(tg8
I00
S'S\xd3}?'
tbag4
(g5
(I0
tS'b'
tRp1456
(I1
(tg8
I00
S'\xcd\xcc}?'
tbag4
(g5
(I0
tS'b'
tRp1457
(I1
(tg8
I00
S'\xc3\xc2}?'
tbag4
(g5
(I0
tS'b'
tRp1458
(I1
(tg8
I00
S'\xcc\xcb}?'
tbag4
(g5
(I0
tS'b'
tRp1459
(I1
(tg8
I00
S'N\xce}?'
tbag4
(g5
(I0
tS'b'
tRp1460
(I1
(tg8
I00
S'S\xd3}?'
tbag4
(g5
(I0
tS'b'
tRp1461
(I1
(tg8
I00
S'K\xcb}?'
tbag4
(g5
(I0
tS'b'
tRp1462
(I1
(tg8
I00
S'L\xcc}?'
tbag4
(g5
(I0
tS'b'
tRp1463
(I1
(tg8
I00
S'H\xc8}?'
tbag4
(g5
(I0
tS'b'
tRp1464
(I1
(tg8
I00
S'T\xd4}?'
tbag4
(g5
(I0
tS'b'
tRp1465
(I1
(tg8
I00
S'\xca\xc9}?'
tbag4
(g5
(I0
tS'b'
tRp1466
(I1
(tg8
I00
S'M\xcd}?'
tbag4
(g5
(I0
tS'b'
tRp1467
(I1
(tg8
I00
S'X\xd8}?'
tbag4
(g5
(I0
tS'b'
tRp1468
(I1
(tg8
I00
S'\xd0\xcf}?'
tbag4
(g5
(I0
tS'b'
tRp1469
(I1
(tg8
I00
S'I\xc9}?'
tbag4
(g5
(I0
tS'b'
tRp1470
(I1
(tg8
I00
S'I\xc9}?'
tbag4
(g5
(I0
tS'b'
tRp1471
(I1
(tg8
I00
S'Y\xd9}?'
tbag4
(g5
(I0
tS'b'
tRp1472
(I1
(tg8
I00
S'L\xcc}?'
tbag4
(g5
(I0
tS'b'
tRp1473
(I1
(tg8
I00
S'\xca\xc9}?'
tbag4
(g5
(I0
tS'b'
tRp1474
(I1
(tg8
I00
S'M\xcd}?'
tbag4
(g5
(I0
tS'b'
tRp1475
(I1
(tg8
I00
S'J\xca}?'
tbag4
(g5
(I0
tS'b'
tRp1476
(I1
(tg8
I00
S'\xc7\xc6}?'
tbag4
(g5
(I0
tS'b'
tRp1477
(I1
(tg8
I00
S'\xd0\xcf}?'
tbag4
(g5
(I0
tS'b'
tRp1478
(I1
(tg8
I00
S'S\xd3}?'
tbag4
(g5
(I0
tS'b'
tRp1479
(I1
(tg8
I00
S'N\xce}?'
tbag4
(g5
(I0
tS'b'
tRp1480
(I1
(tg8
I00
S'F\xc6}?'
tbag4
(g5
(I0
tS'b'
tRp1481
(I1
(tg8
I00
S'Q\xd1}?'
tbag4
(g5
(I0
tS'b'
tRp1482
(I1
(tg8
I00
S'S\xd3}?'
tbag4
(g5
(I0
tS'b'
tRp1483
(I1
(tg8
I00
S'\xcf\xce}?'
tbag4
(g5
(I0
tS'b'
tRp1484
(I1
(tg8
I00
S'Q\xd1}?'
tbag4
(g5
(I0
tS'b'
tRp1485
(I1
(tg8
I00
S'R\xd2}?'
tbag4
(g5
(I0
tS'b'
tRp1486
(I1
(tg8
I00
S'I\xc9}?'
tbag4
(g5
(I0
tS'b'
tRp1487
(I1
(tg8
I00
S'\xcb\xca}?'
tbag4
(g5
(I0
tS'b'
tRp1488
(I1
(tg8
I00
S'\xd7\xd6}?'
tbag4
(g5
(I0
tS'b'
tRp1489
(I1
(tg8
I00
S'T\xd4}?'
tbag4
(g5
(I0
tS'b'
tRp1490
(I1
(tg8
I00
S'G\xc7}?'
tbag4
(g5
(I0
tS'b'
tRp1491
(I1
(tg8
I00
S'\xd2\xd1}?'
tbag4
(g5
(I0
tS'b'
tRp1492
(I1
(tg8
I00
S'Q\xd1}?'
tbag4
(g5
(I0
tS'b'
tRp1493
(I1
(tg8
I00
S'\xca\xc9}?'
tbag4
(g5
(I0
tS'b'
tRp1494
(I1
(tg8
I00
S'D\xc4}?'
tbag4
(g5
(I0
tS'b'
tRp1495
(I1
(tg8
I00
S'\xdb\xda}?'
tbag4
(g5
(I0
tS'b'
tRp1496
(I1
(tg8
I00
S'U\xd5}?'
tbag4
(g5
(I0
tS'b'
tRp1497
(I1
(tg8
I00
S'N\xce}?'
tbag4
(g5
(I0
tS'b'
tRp1498
(I1
(tg8
I00
S'\xca\xc9}?'
tbag4
(g5
(I0
tS'b'
tRp1499
(I1
(tg8
I00
S'\xcc\xcb}?'
tbag4
(g5
(I0
tS'b'
tRp1500
(I1
(tg8
I00
S'\xce\xcd}?'
tbag4
(g5
(I0
tS'b'
tRp1501
(I1
(tg8
I00
S'\xcf\xce}?'
tbag4
(g5
(I0
tS'b'
tRp1502
(I1
(tg8
I00
S'\xcb\xca}?'
tbag4
(g5
(I0
tS'b'
tRp1503
(I1
(tg8
I00
S'I\xc9}?'
tbag4
(g5
(I0
tS'b'
tRp1504
(I1
(tg8
I00
S'I\xc9}?'
tbag4
(g5
(I0
tS'b'
tRp1505
(I1
(tg8
I00
S'\xd0\xcf}?'
tbag4
(g5
(I0
tS'b'
tRp1506
(I1
(tg8
I00
S'?\xbf}?'
tbag4
(g5
(I0
tS'b'
tRp1507
(I1
(tg8
I00
S'\xc7\xc6}?'
tbag4
(g5
(I0
tS'b'
tRp1508
(I1
(tg8
I00
S'\xde\xdd}?'
tbasS'train_loss'
p1509
(lp1510
g4
(g5
(I0
tS'b'
tRp1511
(I1
(tg8
I00
S'\xc3\xbc\x00@'
tbag4
(g5
(I0
tS'b'
tRp1512
(I1
(tg8
I00
S'\xf8\xf1\xdc?'
tbag4
(g5
(I0
tS'b'
tRp1513
(I1
(tg8
I00
S'\x85h\xc5?'
tbag4
(g5
(I0
tS'b'
tRp1514
(I1
(tg8
I00
S'\x8d\xd4\xb1?'
tbag4
(g5
(I0
tS'b'
tRp1515
(I1
(tg8
I00
S'\xb5"\xa0?'
tbag4
(g5
(I0
tS'b'
tRp1516
(I1
(tg8
I00
S'\xab\xdb\x8f?'
tbag4
(g5
(I0
tS'b'
tRp1517
(I1
(tg8
I00
S'\x03/\x81?'
tbag4
(g5
(I0
tS'b'
tRp1518
(I1
(tg8
I00
S'\xb6kh?'
tbag4
(g5
(I0
tS'b'
tRp1519
(I1
(tg8
I00
S'K(Q?'
tbag4
(g5
(I0
tS'b'
tRp1520
(I1
(tg8
I00
S'\xf5\xb2<?'
tbag4
(g5
(I0
tS'b'
tRp1521
(I1
(tg8
I00
S'\x08\x0f*?'
tbag4
(g5
(I0
tS'b'
tRp1522
(I1
(tg8
I00
S'\xc6P\x19?'
tbag4
(g5
(I0
tS'b'
tRp1523
(I1
(tg8
I00
S'\xfe9\n?'
tbag4
(g5
(I0
tS'b'
tRp1524
(I1
(tg8
I00
S'\x07@\xf9>'
tbag4
(g5
(I0
tS'b'
tRp1525
(I1
(tg8
I00
S'q\x1d\xe0>'
tbag4
(g5
(I0
tS'b'
tRp1526
(I1
(tg8
I00
S'\x94Z\xca>'
tbag4
(g5
(I0
tS'b'
tRp1527
(I1
(tg8
I00
S'\x0b\xe6\xb6>'
tbag4
(g5
(I0
tS'b'
tRp1528
(I1
(tg8
I00
S'r\xb4\xa5>'
tbag4
(g5
(I0
tS'b'
tRp1529
(I1
(tg8
I00
S'\xb7\x9a\x97>'
tbag4
(g5
(I0
tS'b'
tRp1530
(I1
(tg8
I00
S'>\x94\x8b>'
tbag4
(g5
(I0
tS'b'
tRp1531
(I1
(tg8
I00
S'\x1d\x1b\x81>'
tbag4
(g5
(I0
tS'b'
tRp1532
(I1
(tg8
I00
S'\xf1\xb9p>'
tbag4
(g5
(I0
tS'b'
tRp1533
(I1
(tg8
I00
S'\xec\xf3`>'
tbag4
(g5
(I0
tS'b'
tRp1534
(I1
(tg8
I00
S'\x1a\xa2Q>'
tbag4
(g5
(I0
tS'b'
tRp1535
(I1
(tg8
I00
S'N\xd1D>'
tbag4
(g5
(I0
tS'b'
tRp1536
(I1
(tg8
I00
S'\x0c\xf98>'
tbag4
(g5
(I0
tS'b'
tRp1537
(I1
(tg8
I00
S'\xcb\xcd.>'
tbag4
(g5
(I0
tS'b'
tRp1538
(I1
(tg8
I00
S'\x15\x1a&>'
tbag4
(g5
(I0
tS'b'
tRp1539
(I1
(tg8
I00
S'\x16\xbe\x1e>'
tbag4
(g5
(I0
tS'b'
tRp1540
(I1
(tg8
I00
S'\xddj\x18>'
tbag4
(g5
(I0
tS'b'
tRp1541
(I1
(tg8
I00
S'{\xaf\x12>'
tbag4
(g5
(I0
tS'b'
tRp1542
(I1
(tg8
I00
S'\xd8\x11\r>'
tbag4
(g5
(I0
tS'b'
tRp1543
(I1
(tg8
I00
S't\x94\x08>'
tbag4
(g5
(I0
tS'b'
tRp1544
(I1
(tg8
I00
S'~\x1b\x04>'
tbag4
(g5
(I0
tS'b'
tRp1545
(I1
(tg8
I00
S'\xca\x8e\x00>'
tbag4
(g5
(I0
tS'b'
tRp1546
(I1
(tg8
I00
S'\xa1>\xfa='
tbag4
(g5
(I0
tS'b'
tRp1547
(I1
(tg8
I00
S'\xe1\xdb\xf6='
tbag4
(g5
(I0
tS'b'
tRp1548
(I1
(tg8
I00
S'\xd7l\xef='
tbag4
(g5
(I0
tS'b'
tRp1549
(I1
(tg8
I00
S'\xfa\x10\xea='
tbag4
(g5
(I0
tS'b'
tRp1550
(I1
(tg8
I00
S'^\xea\xe4='
tbag4
(g5
(I0
tS'b'
tRp1551
(I1
(tg8
I00
S'q\x0b\xe1='
tbag4
(g5
(I0
tS'b'
tRp1552
(I1
(tg8
I00
S'\xd1w\xdd='
tbag4
(g5
(I0
tS'b'
tRp1553
(I1
(tg8
I00
S'7\x85\xd8='
tbag4
(g5
(I0
tS'b'
tRp1554
(I1
(tg8
I00
S'\xe3\xa1\xd4='
tbag4
(g5
(I0
tS'b'
tRp1555
(I1
(tg8
I00
S'\x86^\xd2='
tbag4
(g5
(I0
tS'b'
tRp1556
(I1
(tg8
I00
S'\xeb\xfb\xce='
tbag4
(g5
(I0
tS'b'
tRp1557
(I1
(tg8
I00
S'K\x1d\xce='
tbag4
(g5
(I0
tS'b'
tRp1558
(I1
(tg8
I00
S'WO\xca='
tbag4
(g5
(I0
tS'b'
tRp1559
(I1
(tg8
I00
S'\xaeK\xc8='
tbag4
(g5
(I0
tS'b'
tRp1560
(I1
(tg8
I00
S'\xdbK\xc6='
tbag4
(g5
(I0
tS'b'
tRp1561
(I1
(tg8
I00
S'\x81Q\xc4='
tbag4
(g5
(I0
tS'b'
tRp1562
(I1
(tg8
I00
S'\x07\x90\xc2='
tbag4
(g5
(I0
tS'b'
tRp1563
(I1
(tg8
I00
S'\xa9\xa1\xc0='
tbag4
(g5
(I0
tS'b'
tRp1564
(I1
(tg8
I00
S'\x9d$\xca='
tbag4
(g5
(I0
tS'b'
tRp1565
(I1
(tg8
I00
S'j\xae\xc0='
tbag4
(g5
(I0
tS'b'
tRp1566
(I1
(tg8
I00
S'\x8c\xe8\xbe='
tbag4
(g5
(I0
tS'b'
tRp1567
(I1
(tg8
I00
S'\xddo\xbd='
tbag4
(g5
(I0
tS'b'
tRp1568
(I1
(tg8
I00
S'Hi\xbc='
tbag4
(g5
(I0
tS'b'
tRp1569
(I1
(tg8
I00
S'\xf9g\xba='
tbag4
(g5
(I0
tS'b'
tRp1570
(I1
(tg8
I00
S'\xf2\xfb\xb9='
tbag4
(g5
(I0
tS'b'
tRp1571
(I1
(tg8
I00
S'p\x84\xb9='
tbag4
(g5
(I0
tS'b'
tRp1572
(I1
(tg8
I00
S'K:\xb8='
tbag4
(g5
(I0
tS'b'
tRp1573
(I1
(tg8
I00
S'\x18\xc1\xb7='
tbag4
(g5
(I0
tS'b'
tRp1574
(I1
(tg8
I00
S'\xb2\xb0\xb6='
tbag4
(g5
(I0
tS'b'
tRp1575
(I1
(tg8
I00
S'\x11\xa3\xb5='
tbag4
(g5
(I0
tS'b'
tRp1576
(I1
(tg8
I00
S'\xbe[\xb5='
tbag4
(g5
(I0
tS'b'
tRp1577
(I1
(tg8
I00
S'Fn\xb4='
tbag4
(g5
(I0
tS'b'
tRp1578
(I1
(tg8
I00
S'2\xf9\xb3='
tbag4
(g5
(I0
tS'b'
tRp1579
(I1
(tg8
I00
S'\xce\xab\xb3='
tbag4
(g5
(I0
tS'b'
tRp1580
(I1
(tg8
I00
S'\x0fU\xb3='
tbag4
(g5
(I0
tS'b'
tRp1581
(I1
(tg8
I00
S'y%\xb2='
tbag4
(g5
(I0
tS'b'
tRp1582
(I1
(tg8
I00
S'\x8aM\xb2='
tbag4
(g5
(I0
tS'b'
tRp1583
(I1
(tg8
I00
S'\x95K\xb1='
tbag4
(g5
(I0
tS'b'
tRp1584
(I1
(tg8
I00
S'\xd0\xcf\xb0='
tbag4
(g5
(I0
tS'b'
tRp1585
(I1
(tg8
I00
S'\x1fV\xb0='
tbag4
(g5
(I0
tS'b'
tRp1586
(I1
(tg8
I00
S'\x0c\x8c\xaf='
tbag4
(g5
(I0
tS'b'
tRp1587
(I1
(tg8
I00
S'\xc1h\xaf='
tbag4
(g5
(I0
tS'b'
tRp1588
(I1
(tg8
I00
S'J\xc4\xae='
tbag4
(g5
(I0
tS'b'
tRp1589
(I1
(tg8
I00
S'\x05\xda\xae='
tbag4
(g5
(I0
tS'b'
tRp1590
(I1
(tg8
I00
S'\x17\t\xaf='
tbag4
(g5
(I0
tS'b'
tRp1591
(I1
(tg8
I00
S'\xfbN\xae='
tbag4
(g5
(I0
tS'b'
tRp1592
(I1
(tg8
I00
S'\xf3\xa2\xad='
tbag4
(g5
(I0
tS'b'
tRp1593
(I1
(tg8
I00
S'\x846\xad='
tbag4
(g5
(I0
tS'b'
tRp1594
(I1
(tg8
I00
S'\xe2\xd3\xac='
tbag4
(g5
(I0
tS'b'
tRp1595
(I1
(tg8
I00
S'\xaa\x9e\xac='
tbag4
(g5
(I0
tS'b'
tRp1596
(I1
(tg8
I00
S'\x0e\xa1\xac='
tbag4
(g5
(I0
tS'b'
tRp1597
(I1
(tg8
I00
S'C\xe8\xab='
tbag4
(g5
(I0
tS'b'
tRp1598
(I1
(tg8
I00
S'\xb9\x9e\xab='
tbag4
(g5
(I0
tS'b'
tRp1599
(I1
(tg8
I00
S'U"\xab='
tbag4
(g5
(I0
tS'b'
tRp1600
(I1
(tg8
I00
S'*\xf5\xaa='
tbag4
(g5
(I0
tS'b'
tRp1601
(I1
(tg8
I00
S'\x13\xb2\xaa='
tbag4
(g5
(I0
tS'b'
tRp1602
(I1
(tg8
I00
S'w\x95\xaa='
tbag4
(g5
(I0
tS'b'
tRp1603
(I1
(tg8
I00
S'\x18\xea\xa9='
tbag4
(g5
(I0
tS'b'
tRp1604
(I1
(tg8
I00
S'\x8a\xf8\xa9='
tbag4
(g5
(I0
tS'b'
tRp1605
(I1
(tg8
I00
S'\x90\xc8\xa9='
tbag4
(g5
(I0
tS'b'
tRp1606
(I1
(tg8
I00
S'\xc6\x96\xa9='
tbag4
(g5
(I0
tS'b'
tRp1607
(I1
(tg8
I00
S'\x1c\x0f\xa9='
tbag4
(g5
(I0
tS'b'
tRp1608
(I1
(tg8
I00
S'\xdb\x03\xa9='
tbag4
(g5
(I0
tS'b'
tRp1609
(I1
(tg8
I00
S'\xf5\xb1\xa8='
tbag4
(g5
(I0
tS'b'
tRp1610
(I1
(tg8
I00
S'R\x93\xa8='
tbag4
(g5
(I0
tS'b'
tRp1611
(I1
(tg8
I00
S'ie\xa8='
tbag4
(g5
(I0
tS'b'
tRp1612
(I1
(tg8
I00
S'\xe3\x19\xa8='
tbag4
(g5
(I0
tS'b'
tRp1613
(I1
(tg8
I00
S'$\xc3\xa7='
tbag4
(g5
(I0
tS'b'
tRp1614
(I1
(tg8
I00
S'C\x93\xa7='
tbag4
(g5
(I0
tS'b'
tRp1615
(I1
(tg8
I00
S',S\xa7='
tbag4
(g5
(I0
tS'b'
tRp1616
(I1
(tg8
I00
S'\xb1\x06\xa7='
tbag4
(g5
(I0
tS'b'
tRp1617
(I1
(tg8
I00
S'*\xe7\xa6='
tbag4
(g5
(I0
tS'b'
tRp1618
(I1
(tg8
I00
S')\xc7\xa6='
tbag4
(g5
(I0
tS'b'
tRp1619
(I1
(tg8
I00
S'\xaap\xa6='
tbag4
(g5
(I0
tS'b'
tRp1620
(I1
(tg8
I00
S'V,\xa6='
tbag4
(g5
(I0
tS'b'
tRp1621
(I1
(tg8
I00
S'2\x1b\xa6='
tbag4
(g5
(I0
tS'b'
tRp1622
(I1
(tg8
I00
S'\x18\xe2\xa5='
tbag4
(g5
(I0
tS'b'
tRp1623
(I1
(tg8
I00
S'\x1a\xaf\xa5='
tbag4
(g5
(I0
tS'b'
tRp1624
(I1
(tg8
I00
S'"\x84\xa5='
tbag4
(g5
(I0
tS'b'
tRp1625
(I1
(tg8
I00
S'\xb5L\xa5='
tbag4
(g5
(I0
tS'b'
tRp1626
(I1
(tg8
I00
S'\xb4\xd5\xa4='
tbag4
(g5
(I0
tS'b'
tRp1627
(I1
(tg8
I00
S'a\xc9\xa4='
tbag4
(g5
(I0
tS'b'
tRp1628
(I1
(tg8
I00
S'\x87\xb3\xa4='
tbag4
(g5
(I0
tS'b'
tRp1629
(I1
(tg8
I00
S'/\x82\xa4='
tbag4
(g5
(I0
tS'b'
tRp1630
(I1
(tg8
I00
S'\x7f\x10\xa4='
tbag4
(g5
(I0
tS'b'
tRp1631
(I1
(tg8
I00
S'I\xb4\xa3='
tbag4
(g5
(I0
tS'b'
tRp1632
(I1
(tg8
I00
S'ux\xa3='
tbag4
(g5
(I0
tS'b'
tRp1633
(I1
(tg8
I00
S'jv\xa3='
tbag4
(g5
(I0
tS'b'
tRp1634
(I1
(tg8
I00
S'\x0f\xc6\xa2='
tbag4
(g5
(I0
tS'b'
tRp1635
(I1
(tg8
I00
S'\x9cR\xa2='
tbag4
(g5
(I0
tS'b'
tRp1636
(I1
(tg8
I00
S'\xba\xe7\xa1='
tbag4
(g5
(I0
tS'b'
tRp1637
(I1
(tg8
I00
S'}\xa4\xa1='
tbag4
(g5
(I0
tS'b'
tRp1638
(I1
(tg8
I00
S'>k\xa1='
tbag4
(g5
(I0
tS'b'
tRp1639
(I1
(tg8
I00
S'\xf1\xf4\xa1='
tbag4
(g5
(I0
tS'b'
tRp1640
(I1
(tg8
I00
S'\x7f\xaa\xa0='
tbag4
(g5
(I0
tS'b'
tRp1641
(I1
(tg8
I00
S'\xa9L\xa0='
tbag4
(g5
(I0
tS'b'
tRp1642
(I1
(tg8
I00
S'=\xe6\x9f='
tbag4
(g5
(I0
tS'b'
tRp1643
(I1
(tg8
I00
S'\xa5M\xa0='
tbag4
(g5
(I0
tS'b'
tRp1644
(I1
(tg8
I00
S'\xecL\x9f='
tbag4
(g5
(I0
tS'b'
tRp1645
(I1
(tg8
I00
S"'\xfe\x9f="
tbag4
(g5
(I0
tS'b'
tRp1646
(I1
(tg8
I00
S'\xbb\xb3\x9e='
tbag4
(g5
(I0
tS'b'
tRp1647
(I1
(tg8
I00
S'\x9e`\x9e='
tbag4
(g5
(I0
tS'b'
tRp1648
(I1
(tg8
I00
S'\xf7\xa3\x9e='
tbag4
(g5
(I0
tS'b'
tRp1649
(I1
(tg8
I00
S'\x1b\xd8\x9e='
tbag4
(g5
(I0
tS'b'
tRp1650
(I1
(tg8
I00
S'\xac\xfe\x9c='
tbag4
(g5
(I0
tS'b'
tRp1651
(I1
(tg8
I00
S'L\xd6\x9c='
tbag4
(g5
(I0
tS'b'
tRp1652
(I1
(tg8
I00
S'\xc6N\x9c='
tbag4
(g5
(I0
tS'b'
tRp1653
(I1
(tg8
I00
S'\xa1,\x9d='
tbag4
(g5
(I0
tS'b'
tRp1654
(I1
(tg8
I00
S'U\x00\x9b='
tbag4
(g5
(I0
tS'b'
tRp1655
(I1
(tg8
I00
S'\x8cf\x9b='
tbag4
(g5
(I0
tS'b'
tRp1656
(I1
(tg8
I00
S'oo\x9b='
tbag4
(g5
(I0
tS'b'
tRp1657
(I1
(tg8
I00
S'\xce\xe0\x9a='
tbag4
(g5
(I0
tS'b'
tRp1658
(I1
(tg8
I00
S'\r\x8d\x99='
tbag4
(g5
(I0
tS'b'
tRp1659
(I1
(tg8
I00
S'O<\x98='
tbag4
(g5
(I0
tS'b'
tRp1660
(I1
(tg8
I00
S'\x120\x97='
tbag4
(g5
(I0
tS'b'
tRp1661
(I1
(tg8
I00
S'0\xe0\x9e='
tbag4
(g5
(I0
tS'b'
tRp1662
(I1
(tg8
I00
S'\xf5\x9d\x9a='
tbag4
(g5
(I0
tS'b'
tRp1663
(I1
(tg8
I00
S'\xf3%\x9a='
tbag4
(g5
(I0
tS'b'
tRp1664
(I1
(tg8
I00
S'w\x98\x99='
tbag4
(g5
(I0
tS'b'
tRp1665
(I1
(tg8
I00
S'6\x10\x99='
tbag4
(g5
(I0
tS'b'
tRp1666
(I1
(tg8
I00
S'`\xb7\x98='
tbag4
(g5
(I0
tS'b'
tRp1667
(I1
(tg8
I00
S'a/\x98='
tbag4
(g5
(I0
tS'b'
tRp1668
(I1
(tg8
I00
S'\xd4z\x97='
tbag4
(g5
(I0
tS'b'
tRp1669
(I1
(tg8
I00
S'\x1f!\x97='
tbag4
(g5
(I0
tS'b'
tRp1670
(I1
(tg8
I00
S'j|\x96='
tbag4
(g5
(I0
tS'b'
tRp1671
(I1
(tg8
I00
S'\x0c\xad\x95='
tbag4
(g5
(I0
tS'b'
tRp1672
(I1
(tg8
I00
S'\x14\xe5\x94='
tbag4
(g5
(I0
tS'b'
tRp1673
(I1
(tg8
I00
S'\xad,\x94='
tbag4
(g5
(I0
tS'b'
tRp1674
(I1
(tg8
I00
S'{~\x95='
tbag4
(g5
(I0
tS'b'
tRp1675
(I1
(tg8
I00
S'\x89B\x97='
tbag4
(g5
(I0
tS'b'
tRp1676
(I1
(tg8
I00
S'\xad\xd4\x95='
tbag4
(g5
(I0
tS'b'
tRp1677
(I1
(tg8
I00
S'\xa5;\x9e='
tbag4
(g5
(I0
tS'b'
tRp1678
(I1
(tg8
I00
S'\x8d-\x92='
tbag4
(g5
(I0
tS'b'
tRp1679
(I1
(tg8
I00
S'T\xb6\x97='
tbag4
(g5
(I0
tS'b'
tRp1680
(I1
(tg8
I00
S'\x08\xc5\x97='
tbag4
(g5
(I0
tS'b'
tRp1681
(I1
(tg8
I00
S'-b\x93='
tbag4
(g5
(I0
tS'b'
tRp1682
(I1
(tg8
I00
S'o\xc8\x90='
tbag4
(g5
(I0
tS'b'
tRp1683
(I1
(tg8
I00
S'Ob\x8f='
tbag4
(g5
(I0
tS'b'
tRp1684
(I1
(tg8
I00
S'Z\xba\x8e='
tbag4
(g5
(I0
tS'b'
tRp1685
(I1
(tg8
I00
S'C\xf2\x8d='
tbag4
(g5
(I0
tS'b'
tRp1686
(I1
(tg8
I00
S's:\x8d='
tbag4
(g5
(I0
tS'b'
tRp1687
(I1
(tg8
I00
S'\x1f\xbd\x8c='
tbag4
(g5
(I0
tS'b'
tRp1688
(I1
(tg8
I00
S'\xca\xeb\x8b='
tbag4
(g5
(I0
tS'b'
tRp1689
(I1
(tg8
I00
S'\xc9\x80\x9c='
tbag4
(g5
(I0
tS'b'
tRp1690
(I1
(tg8
I00
S'\xa8E\xab='
tbag4
(g5
(I0
tS'b'
tRp1691
(I1
(tg8
I00
S'\xa3\x7f\xd9='
tbag4
(g5
(I0
tS'b'
tRp1692
(I1
(tg8
I00
S'`\xe0\xc1='
tbag4
(g5
(I0
tS'b'
tRp1693
(I1
(tg8
I00
S'\x13A\xb5='
tbag4
(g5
(I0
tS'b'
tRp1694
(I1
(tg8
I00
S'\x85\x80\xab='
tbag4
(g5
(I0
tS'b'
tRp1695
(I1
(tg8
I00
S'h\x85\x96='
tbag4
(g5
(I0
tS'b'
tRp1696
(I1
(tg8
I00
S'\x1d\x9a\x95='
tbag4
(g5
(I0
tS'b'
tRp1697
(I1
(tg8
I00
S'\x12\x19\x99='
tbag4
(g5
(I0
tS'b'
tRp1698
(I1
(tg8
I00
S'\x7f\x9d\x97='
tbag4
(g5
(I0
tS'b'
tRp1699
(I1
(tg8
I00
S'\xd0=\x96='
tbag4
(g5
(I0
tS'b'
tRp1700
(I1
(tg8
I00
S'\x908\x95='
tbag4
(g5
(I0
tS'b'
tRp1701
(I1
(tg8
I00
S'H\x1a\x94='
tbag4
(g5
(I0
tS'b'
tRp1702
(I1
(tg8
I00
S'[S\x93='
tbag4
(g5
(I0
tS'b'
tRp1703
(I1
(tg8
I00
S'4e\x92='
tbag4
(g5
(I0
tS'b'
tRp1704
(I1
(tg8
I00
S'g\x87\x93='
tbag4
(g5
(I0
tS'b'
tRp1705
(I1
(tg8
I00
S'h\xbf\x9c='
tbag4
(g5
(I0
tS'b'
tRp1706
(I1
(tg8
I00
S'\n\xde\x94='
tbag4
(g5
(I0
tS'b'
tRp1707
(I1
(tg8
I00
S'-\xca\x93='
tbag4
(g5
(I0
tS'b'
tRp1708
(I1
(tg8
I00
S'\x8f\x0f\x93='
tbag4
(g5
(I0
tS'b'
tRp1709
(I1
(tg8
I00
S'H\x13\x92='
tbag4
(g5
(I0
tS'b'
tRp1710
(I1
(tg8
I00
S'W\x9c\x91='
tbag4
(g5
(I0
tS'b'
tRp1711
(I1
(tg8
I00
S'\xfc\xda\x90='
tbag4
(g5
(I0
tS'b'
tRp1712
(I1
(tg8
I00
S'\\^\x90='
tbag4
(g5
(I0
tS'b'
tRp1713
(I1
(tg8
I00
S'\x07o\x8f='
tbag4
(g5
(I0
tS'b'
tRp1714
(I1
(tg8
I00
S'\xae\xd1\x8e='
tbag4
(g5
(I0
tS'b'
tRp1715
(I1
(tg8
I00
S'\xcd\x1c\x8e='
tbag4
(g5
(I0
tS'b'
tRp1716
(I1
(tg8
I00
S'\x8f\xb3\x8d='
tbag4
(g5
(I0
tS'b'
tRp1717
(I1
(tg8
I00
S'\xd6\xf8\x8c='
tbag4
(g5
(I0
tS'b'
tRp1718
(I1
(tg8
I00
S'Jq\x8c='
tbag4
(g5
(I0
tS'b'
tRp1719
(I1
(tg8
I00
S'\xa2\x9d\x8b='
tbag4
(g5
(I0
tS'b'
tRp1720
(I1
(tg8
I00
S'd\\\x8b='
tbag4
(g5
(I0
tS'b'
tRp1721
(I1
(tg8
I00
S'\x1bt\x9e='
tbag4
(g5
(I0
tS'b'
tRp1722
(I1
(tg8
I00
S'J\x95\x95='
tbag4
(g5
(I0
tS'b'
tRp1723
(I1
(tg8
I00
S'U\x03\x8e='
tbag4
(g5
(I0
tS'b'
tRp1724
(I1
(tg8
I00
S'\xe6M\x8d='
tbag4
(g5
(I0
tS'b'
tRp1725
(I1
(tg8
I00
S'\xe3\xcf\x8c='
tbag4
(g5
(I0
tS'b'
tRp1726
(I1
(tg8
I00
S'x\xd3\x8b='
tbag4
(g5
(I0
tS'b'
tRp1727
(I1
(tg8
I00
S'\x99Y\x8b='
tbag4
(g5
(I0
tS'b'
tRp1728
(I1
(tg8
I00
S'\x95K\x8a='
tbag4
(g5
(I0
tS'b'
tRp1729
(I1
(tg8
I00
S'\xea,\x8a='
tbag4
(g5
(I0
tS'b'
tRp1730
(I1
(tg8
I00
S'\xa5\xc4\x8c='
tbag4
(g5
(I0
tS'b'
tRp1731
(I1
(tg8
I00
S'\xd8V\x95='
tbag4
(g5
(I0
tS'b'
tRp1732
(I1
(tg8
I00
S'\xc8\x94\x89='
tbag4
(g5
(I0
tS'b'
tRp1733
(I1
(tg8
I00
S'P\x0b\x89='
tbag4
(g5
(I0
tS'b'
tRp1734
(I1
(tg8
I00
S'\x12#\x89='
tbag4
(g5
(I0
tS'b'
tRp1735
(I1
(tg8
I00
S'\x1a\xeb\x8b='
tbag4
(g5
(I0
tS'b'
tRp1736
(I1
(tg8
I00
S'\xc3{\x8f='
tbag4
(g5
(I0
tS'b'
tRp1737
(I1
(tg8
I00
S'\xbb\x17\x90='
tbag4
(g5
(I0
tS'b'
tRp1738
(I1
(tg8
I00
S'j\xb2\x88='
tbag4
(g5
(I0
tS'b'
tRp1739
(I1
(tg8
I00
S'\xdf\x0b\x88='
tbag4
(g5
(I0
tS'b'
tRp1740
(I1
(tg8
I00
S'\xbd\xcd\x86='
tbag4
(g5
(I0
tS'b'
tRp1741
(I1
(tg8
I00
S'\x0bP\x86='
tbag4
(g5
(I0
tS'b'
tRp1742
(I1
(tg8
I00
S'\x1a>\x85='
tbag4
(g5
(I0
tS'b'
tRp1743
(I1
(tg8
I00
S'\nG\x84='
tbag4
(g5
(I0
tS'b'
tRp1744
(I1
(tg8
I00
S'~\x16\x83='
tbag4
(g5
(I0
tS'b'
tRp1745
(I1
(tg8
I00
S'\xd3\xfd\x81='
tbag4
(g5
(I0
tS'b'
tRp1746
(I1
(tg8
I00
S"'\xf8\x80="
tbag4
(g5
(I0
tS'b'
tRp1747
(I1
(tg8
I00
S'\n\x87\x84='
tbag4
(g5
(I0
tS'b'
tRp1748
(I1
(tg8
I00
S'D\x1c\xa9='
tbag4
(g5
(I0
tS'b'
tRp1749
(I1
(tg8
I00
S'\n\x17\x87='
tbag4
(g5
(I0
tS'b'
tRp1750
(I1
(tg8
I00
S'k\x06\x96='
tbag4
(g5
(I0
tS'b'
tRp1751
(I1
(tg8
I00
S'\x83\x10\x89='
tbag4
(g5
(I0
tS'b'
tRp1752
(I1
(tg8
I00
S'\xad\x91\x83='
tbag4
(g5
(I0
tS'b'
tRp1753
(I1
(tg8
I00
S'\xbd:\x82='
tbag4
(g5
(I0
tS'b'
tRp1754
(I1
(tg8
I00
S';k\x81='
tbag4
(g5
(I0
tS'b'
tRp1755
(I1
(tg8
I00
S'\xd7\xa4\x80='
tbag4
(g5
(I0
tS'b'
tRp1756
(I1
(tg8
I00
S'4H\x7f='
tbag4
(g5
(I0
tS'b'
tRp1757
(I1
(tg8
I00
S'nb}='
tbag4
(g5
(I0
tS'b'
tRp1758
(I1
(tg8
I00
S'*l{='
tbag4
(g5
(I0
tS'b'
tRp1759
(I1
(tg8
I00
S'D_y='
tbag4
(g5
(I0
tS'b'
tRp1760
(I1
(tg8
I00
S'z&w='
tbag4
(g5
(I0
tS'b'
tRp1761
(I1
(tg8
I00
S'/"u='
tbag4
(g5
(I0
tS'b'
tRp1762
(I1
(tg8
I00
S'W+x='
tbag4
(g5
(I0
tS'b'
tRp1763
(I1
(tg8
I00
S'\xc5\xa5\x96='
tbag4
(g5
(I0
tS'b'
tRp1764
(I1
(tg8
I00
S'\x92\xc4\x83='
tbag4
(g5
(I0
tS'b'
tRp1765
(I1
(tg8
I00
S'\x83\x1e|='
tbag4
(g5
(I0
tS'b'
tRp1766
(I1
(tg8
I00
S'c?z='
tbag4
(g5
(I0
tS'b'
tRp1767
(I1
(tg8
I00
S'\xc6\xe3w='
tbag4
(g5
(I0
tS'b'
tRp1768
(I1
(tg8
I00
S'=\xaez='
tbag4
(g5
(I0
tS'b'
tRp1769
(I1
(tg8
I00
S"'\xcf\x82="
tbag4
(g5
(I0
tS'b'
tRp1770
(I1
(tg8
I00
S'R\xb3\x82='
tbag4
(g5
(I0
tS'b'
tRp1771
(I1
(tg8
I00
S'e\xf9z='
tbag4
(g5
(I0
tS'b'
tRp1772
(I1
(tg8
I00
S'\x16Lz='
tbag4
(g5
(I0
tS'b'
tRp1773
(I1
(tg8
I00
S'y\xf7v='
tbag4
(g5
(I0
tS'b'
tRp1774
(I1
(tg8
I00
S'\xe3\xcav='
tbag4
(g5
(I0
tS'b'
tRp1775
(I1
(tg8
I00
S'\x9c3v='
tbag4
(g5
(I0
tS'b'
tRp1776
(I1
(tg8
I00
S'\xcdb}='
tbag4
(g5
(I0
tS'b'
tRp1777
(I1
(tg8
I00
S'\xf0B}='
tbag4
(g5
(I0
tS'b'
tRp1778
(I1
(tg8
I00
S'>\xc2\x87='
tbag4
(g5
(I0
tS'b'
tRp1779
(I1
(tg8
I00
S'\t\x87k='
tbag4
(g5
(I0
tS'b'
tRp1780
(I1
(tg8
I00
S'E\x12\x81='
tbag4
(g5
(I0
tS'b'
tRp1781
(I1
(tg8
I00
S'\xa4[o='
tbag4
(g5
(I0
tS'b'
tRp1782
(I1
(tg8
I00
S'l\xbcm='
tbag4
(g5
(I0
tS'b'
tRp1783
(I1
(tg8
I00
S'\x08rk='
tbag4
(g5
(I0
tS'b'
tRp1784
(I1
(tg8
I00
S'9\xfei='
tbag4
(g5
(I0
tS'b'
tRp1785
(I1
(tg8
I00
S'\x8a\xd3h='
tbag4
(g5
(I0
tS'b'
tRp1786
(I1
(tg8
I00
S'&\xafn='
tbag4
(g5
(I0
tS'b'
tRp1787
(I1
(tg8
I00
S'(ft='
tbag4
(g5
(I0
tS'b'
tRp1788
(I1
(tg8
I00
S'\x9c\xf5\x87='
tbag4
(g5
(I0
tS'b'
tRp1789
(I1
(tg8
I00
S'\xbb;b='
tbag4
(g5
(I0
tS'b'
tRp1790
(I1
(tg8
I00
S'\xcc\xca_='
tbag4
(g5
(I0
tS'b'
tRp1791
(I1
(tg8
I00
S'+\x0b^='
tbag4
(g5
(I0
tS'b'
tRp1792
(I1
(tg8
I00
S'\xd2\t[='
tbag4
(g5
(I0
tS'b'
tRp1793
(I1
(tg8
I00
S'T&Y='
tbag4
(g5
(I0
tS'b'
tRp1794
(I1
(tg8
I00
S'55V='
tbag4
(g5
(I0
tS'b'
tRp1795
(I1
(tg8
I00
S'\x1a\x90T='
tbag4
(g5
(I0
tS'b'
tRp1796
(I1
(tg8
I00
S'+#s='
tbag4
(g5
(I0
tS'b'
tRp1797
(I1
(tg8
I00
S'\xd4\x9d\xa2='
tbag4
(g5
(I0
tS'b'
tRp1798
(I1
(tg8
I00
S'\xc5\xdb9>'
tbag4
(g5
(I0
tS'b'
tRp1799
(I1
(tg8
I00
S';K\x8c='
tbag4
(g5
(I0
tS'b'
tRp1800
(I1
(tg8
I00
S'\xb1\xe8\xa2='
tbag4
(g5
(I0
tS'b'
tRp1801
(I1
(tg8
I00
S'\x12\x01\x82='
tbag4
(g5
(I0
tS'b'
tRp1802
(I1
(tg8
I00
S'\x1e\xc5x='
tbag4
(g5
(I0
tS'b'
tRp1803
(I1
(tg8
I00
S'\xc6p\x90='
tbag4
(g5
(I0
tS'b'
tRp1804
(I1
(tg8
I00
S'R\x18\x90='
tbag4
(g5
(I0
tS'b'
tRp1805
(I1
(tg8
I00
S'\x93\xcb[='
tbag4
(g5
(I0
tS'b'
tRp1806
(I1
(tg8
I00
S'\x856Y='
tbag4
(g5
(I0
tS'b'
tRp1807
(I1
(tg8
I00
S'\x1d*V='
tbag4
(g5
(I0
tS'b'
tRp1808
(I1
(tg8
I00
S'O\xdfT='
tbag4
(g5
(I0
tS'b'
tRp1809
(I1
(tg8
I00
S'L\x14T='
tbag4
(g5
(I0
tS'b'
tRp1810
(I1
(tg8
I00
S'\xa3\x15W='
tbag4
(g5
(I0
tS'b'
tRp1811
(I1
(tg8
I00
S'\xf8\xf2a='
tbag4
(g5
(I0
tS'b'
tRp1812
(I1
(tg8
I00
S'm\x8b~='
tbag4
(g5
(I0
tS'b'
tRp1813
(I1
(tg8
I00
S'\xe0*f='
tbag4
(g5
(I0
tS'b'
tRp1814
(I1
(tg8
I00
S'Gw\x1f>'
tbag4
(g5
(I0
tS'b'
tRp1815
(I1
(tg8
I00
S'k\x8e\x9f='
tbag4
(g5
(I0
tS'b'
tRp1816
(I1
(tg8
I00
S')A\xab='
tbag4
(g5
(I0
tS'b'
tRp1817
(I1
(tg8
I00
S'\xa2\x1f\xa6='
tbag4
(g5
(I0
tS'b'
tRp1818
(I1
(tg8
I00
S'\xdd%\xa3='
tbag4
(g5
(I0
tS'b'
tRp1819
(I1
(tg8
I00
S'?\xb0\xa1='
tbag4
(g5
(I0
tS'b'
tRp1820
(I1
(tg8
I00
S'#\x1c\xa0='
tbag4
(g5
(I0
tS'b'
tRp1821
(I1
(tg8
I00
S'\x06\x0f\x9f='
tbag4
(g5
(I0
tS'b'
tRp1822
(I1
(tg8
I00
S'v\xf3\x9d='
tbag4
(g5
(I0
tS'b'
tRp1823
(I1
(tg8
I00
S'U \x9d='
tbag4
(g5
(I0
tS'b'
tRp1824
(I1
(tg8
I00
S'\x1cr\x9c='
tbag4
(g5
(I0
tS'b'
tRp1825
(I1
(tg8
I00
S'%\xb7\x9b='
tbag4
(g5
(I0
tS'b'
tRp1826
(I1
(tg8
I00
S'D\xdd\x9a='
tbag4
(g5
(I0
tS'b'
tRp1827
(I1
(tg8
I00
S'\xe3\xef\x99='
tbag4
(g5
(I0
tS'b'
tRp1828
(I1
(tg8
I00
S'\xba\xfc\x98='
tbag4
(g5
(I0
tS'b'
tRp1829
(I1
(tg8
I00
S'\x97\xa6\x98='
tbag4
(g5
(I0
tS'b'
tRp1830
(I1
(tg8
I00
S'\xd7\xe6\x97='
tbag4
(g5
(I0
tS'b'
tRp1831
(I1
(tg8
I00
S'\xd4|\x97='
tbag4
(g5
(I0
tS'b'
tRp1832
(I1
(tg8
I00
S'\xb3\x06\x96='
tbag4
(g5
(I0
tS'b'
tRp1833
(I1
(tg8
I00
S'\x18\xc0^='
tbag4
(g5
(I0
tS'b'
tRp1834
(I1
(tg8
I00
S'\x83\xd6|='
tbag4
(g5
(I0
tS'b'
tRp1835
(I1
(tg8
I00
S'Q\xa8\xdc='
tbag4
(g5
(I0
tS'b'
tRp1836
(I1
(tg8
I00
S'\x83\x9fh='
tbag4
(g5
(I0
tS'b'
tRp1837
(I1
(tg8
I00
S'\x8d\x82\xa5='
tbag4
(g5
(I0
tS'b'
tRp1838
(I1
(tg8
I00
S'\x8f\xe8\xa2='
tbag4
(g5
(I0
tS'b'
tRp1839
(I1
(tg8
I00
S'\xe2\xcd\xc1='
tbag4
(g5
(I0
tS'b'
tRp1840
(I1
(tg8
I00
S'\x0c\xb2\xdf='
tbag4
(g5
(I0
tS'b'
tRp1841
(I1
(tg8
I00
S'rx\xce='
tbag4
(g5
(I0
tS'b'
tRp1842
(I1
(tg8
I00
S'\xd6\xd2\x9f='
tbag4
(g5
(I0
tS'b'
tRp1843
(I1
(tg8
I00
S'\x10}\x9d='
tbag4
(g5
(I0
tS'b'
tRp1844
(I1
(tg8
I00
S'\xa1\xd4\x9b='
tbag4
(g5
(I0
tS'b'
tRp1845
(I1
(tg8
I00
S'\x88\x80\x8d='
tbag4
(g5
(I0
tS'b'
tRp1846
(I1
(tg8
I00
S'\xec\xb7\x9c='
tbag4
(g5
(I0
tS'b'
tRp1847
(I1
(tg8
I00
S'U>\x9c='
tbag4
(g5
(I0
tS'b'
tRp1848
(I1
(tg8
I00
S'\x13\x86\x9b='
tbag4
(g5
(I0
tS'b'
tRp1849
(I1
(tg8
I00
S'\xaf\x0e\x9b='
tbag4
(g5
(I0
tS'b'
tRp1850
(I1
(tg8
I00
S'yh\x9a='
tbag4
(g5
(I0
tS'b'
tRp1851
(I1
(tg8
I00
S'7\x1a\x9a='
tbag4
(g5
(I0
tS'b'
tRp1852
(I1
(tg8
I00
S'\xa6\xe7\x99='
tbag4
(g5
(I0
tS'b'
tRp1853
(I1
(tg8
I00
S'\xefZ\x99='
tbag4
(g5
(I0
tS'b'
tRp1854
(I1
(tg8
I00
S'\xe5\xd5\x98='
tbag4
(g5
(I0
tS'b'
tRp1855
(I1
(tg8
I00
S"='\x99="
tbag4
(g5
(I0
tS'b'
tRp1856
(I1
(tg8
I00
S'\xaf\xdd\x9b='
tbag4
(g5
(I0
tS'b'
tRp1857
(I1
(tg8
I00
S'b\x02\x99='
tbag4
(g5
(I0
tS'b'
tRp1858
(I1
(tg8
I00
S'\x01\xe9\x96='
tbag4
(g5
(I0
tS'b'
tRp1859
(I1
(tg8
I00
S'M\x87\x95='
tbag4
(g5
(I0
tS'b'
tRp1860
(I1
(tg8
I00
S'2\x89\x94='
tbag4
(g5
(I0
tS'b'
tRp1861
(I1
(tg8
I00
S'C\x7f\x9a='
tbag4
(g5
(I0
tS'b'
tRp1862
(I1
(tg8
I00
S'2\x1d\x97='
tbag4
(g5
(I0
tS'b'
tRp1863
(I1
(tg8
I00
S'b\xe6\x91='
tbag4
(g5
(I0
tS'b'
tRp1864
(I1
(tg8
I00
S'\xdd\xd3w='
tbag4
(g5
(I0
tS'b'
tRp1865
(I1
(tg8
I00
S'\x93,\x95='
tbag4
(g5
(I0
tS'b'
tRp1866
(I1
(tg8
I00
S'Ii|='
tbag4
(g5
(I0
tS'b'
tRp1867
(I1
(tg8
I00
S'\x94\xc8\x99='
tbag4
(g5
(I0
tS'b'
tRp1868
(I1
(tg8
I00
S'\xafP\x95='
tbag4
(g5
(I0
tS'b'
tRp1869
(I1
(tg8
I00
S'1\xc4\x8c='
tbag4
(g5
(I0
tS'b'
tRp1870
(I1
(tg8
I00
S'\x97k}='
tbag4
(g5
(I0
tS'b'
tRp1871
(I1
(tg8
I00
S'\xdaV\x93='
tbag4
(g5
(I0
tS'b'
tRp1872
(I1
(tg8
I00
S'\x1bI\x8b='
tbag4
(g5
(I0
tS'b'
tRp1873
(I1
(tg8
I00
S'\xd6\x86s='
tbag4
(g5
(I0
tS'b'
tRp1874
(I1
(tg8
I00
S'\xfc\x14n='
tbag4
(g5
(I0
tS'b'
tRp1875
(I1
(tg8
I00
S'\xc2mj='
tbag4
(g5
(I0
tS'b'
tRp1876
(I1
(tg8
I00
S'\x8dPn='
tbag4
(g5
(I0
tS'b'
tRp1877
(I1
(tg8
I00
S';\x03\x95='
tbag4
(g5
(I0
tS'b'
tRp1878
(I1
(tg8
I00
S'\x96a\x85='
tbag4
(g5
(I0
tS'b'
tRp1879
(I1
(tg8
I00
S'\xb0\x1d\x82='
tbag4
(g5
(I0
tS'b'
tRp1880
(I1
(tg8
I00
S'\x078\x83='
tbag4
(g5
(I0
tS'b'
tRp1881
(I1
(tg8
I00
S'v\xa1t='
tbag4
(g5
(I0
tS'b'
tRp1882
(I1
(tg8
I00
S'\x04\x83g='
tbag4
(g5
(I0
tS'b'
tRp1883
(I1
(tg8
I00
S'Aiv='
tbag4
(g5
(I0
tS'b'
tRp1884
(I1
(tg8
I00
S'\xb4\xf7}='
tbag4
(g5
(I0
tS'b'
tRp1885
(I1
(tg8
I00
S"@'k="
tbag4
(g5
(I0
tS'b'
tRp1886
(I1
(tg8
I00
S'\x7fGb='
tbag4
(g5
(I0
tS'b'
tRp1887
(I1
(tg8
I00
S'\xd1\xa7a='
tbag4
(g5
(I0
tS'b'
tRp1888
(I1
(tg8
I00
S'\x83\xf6l='
tbag4
(g5
(I0
tS'b'
tRp1889
(I1
(tg8
I00
S't\xe2c='
tbag4
(g5
(I0
tS'b'
tRp1890
(I1
(tg8
I00
S'\x00\xa7\\='
tbag4
(g5
(I0
tS'b'
tRp1891
(I1
(tg8
I00
S'\xc5^X='
tbag4
(g5
(I0
tS'b'
tRp1892
(I1
(tg8
I00
S'\x17f\xa5='
tbag4
(g5
(I0
tS'b'
tRp1893
(I1
(tg8
I00
S'\x0c\xf6R='
tbag4
(g5
(I0
tS'b'
tRp1894
(I1
(tg8
I00
S'a\x13P='
tbag4
(g5
(I0
tS'b'
tRp1895
(I1
(tg8
I00
S'\x83cS='
tbag4
(g5
(I0
tS'b'
tRp1896
(I1
(tg8
I00
S'\x1a8_='
tbag4
(g5
(I0
tS'b'
tRp1897
(I1
(tg8
I00
S'\x06Lq='
tbag4
(g5
(I0
tS'b'
tRp1898
(I1
(tg8
I00
S'\r?X='
tbag4
(g5
(I0
tS'b'
tRp1899
(I1
(tg8
I00
S'\x9c\xcdK='
tbag4
(g5
(I0
tS'b'
tRp1900
(I1
(tg8
I00
S'\xb5\xeeI='
tbag4
(g5
(I0
tS'b'
tRp1901
(I1
(tg8
I00
S'&\x03O='
tbag4
(g5
(I0
tS'b'
tRp1902
(I1
(tg8
I00
S'\x9e\xc9S='
tbag4
(g5
(I0
tS'b'
tRp1903
(I1
(tg8
I00
S'\xaeAj='
tbag4
(g5
(I0
tS'b'
tRp1904
(I1
(tg8
I00
S'\xc6\xfaO='
tbag4
(g5
(I0
tS'b'
tRp1905
(I1
(tg8
I00
S')\xdbY='
tbag4
(g5
(I0
tS'b'
tRp1906
(I1
(tg8
I00
S'\x9f\x81E='
tbag4
(g5
(I0
tS'b'
tRp1907
(I1
(tg8
I00
S'\xeehA='
tbag4
(g5
(I0
tS'b'
tRp1908
(I1
(tg8
I00
S'\xb5u=='
tbag4
(g5
(I0
tS'b'
tRp1909
(I1
(tg8
I00
S'PX;='
tbag4
(g5
(I0
tS'b'
tRp1910
(I1
(tg8
I00
S',,:='
tbag4
(g5
(I0
tS'b'
tRp1911
(I1
(tg8
I00
S'>\xb6A='
tbag4
(g5
(I0
tS'b'
tRp1912
(I1
(tg8
I00
S'p\x15\x91='
tbag4
(g5
(I0
tS'b'
tRp1913
(I1
(tg8
I00
S'\x06WE='
tbag4
(g5
(I0
tS'b'
tRp1914
(I1
(tg8
I00
S'$iV='
tbag4
(g5
(I0
tS'b'
tRp1915
(I1
(tg8
I00
S'\xb7K=='
tbag4
(g5
(I0
tS'b'
tRp1916
(I1
(tg8
I00
S'\x8f57='
tbag4
(g5
(I0
tS'b'
tRp1917
(I1
(tg8
I00
S'VL3='
tbag4
(g5
(I0
tS'b'
tRp1918
(I1
(tg8
I00
S'z\xfb0='
tbag4
(g5
(I0
tS'b'
tRp1919
(I1
(tg8
I00
S'\r\x140='
tbag4
(g5
(I0
tS'b'
tRp1920
(I1
(tg8
I00
S'\x03\x879='
tbag4
(g5
(I0
tS'b'
tRp1921
(I1
(tg8
I00
S'\xa1O\x99='
tbag4
(g5
(I0
tS'b'
tRp1922
(I1
(tg8
I00
S'=\x06\x8a='
tbag4
(g5
(I0
tS'b'
tRp1923
(I1
(tg8
I00
S's\xbb\xd5='
tbag4
(g5
(I0
tS'b'
tRp1924
(I1
(tg8
I00
S'\x86\xa1^='
tbag4
(g5
(I0
tS'b'
tRp1925
(I1
(tg8
I00
S'\xeb\x87\x86='
tbag4
(g5
(I0
tS'b'
tRp1926
(I1
(tg8
I00
S'\xc7\x9bc='
tbag4
(g5
(I0
tS'b'
tRp1927
(I1
(tg8
I00
S'4\xcaw='
tbag4
(g5
(I0
tS'b'
tRp1928
(I1
(tg8
I00
S'K1\\='
tbag4
(g5
(I0
tS'b'
tRp1929
(I1
(tg8
I00
S'\n\xef^='
tbag4
(g5
(I0
tS'b'
tRp1930
(I1
(tg8
I00
S'\xe8%W='
tbag4
(g5
(I0
tS'b'
tRp1931
(I1
(tg8
I00
S'\x9a\xb0O='
tbag4
(g5
(I0
tS'b'
tRp1932
(I1
(tg8
I00
S'0DT='
tbag4
(g5
(I0
tS'b'
tRp1933
(I1
(tg8
I00
S't\xdfB='
tbag4
(g5
(I0
tS'b'
tRp1934
(I1
(tg8
I00
S'G\x08Q='
tbag4
(g5
(I0
tS'b'
tRp1935
(I1
(tg8
I00
S'(\x9b6='
tbag4
(g5
(I0
tS'b'
tRp1936
(I1
(tg8
I00
S'{\x9dM='
tbag4
(g5
(I0
tS'b'
tRp1937
(I1
(tg8
I00
S'\xf7\x150='
tbag4
(g5
(I0
tS'b'
tRp1938
(I1
(tg8
I00
S'\x0ej,='
tbag4
(g5
(I0
tS'b'
tRp1939
(I1
(tg8
I00
S"\xda\xc2'="
tbag4
(g5
(I0
tS'b'
tRp1940
(I1
(tg8
I00
S'\xc5#%='
tbag4
(g5
(I0
tS'b'
tRp1941
(I1
(tg8
I00
S'2\x02#='
tbag4
(g5
(I0
tS'b'
tRp1942
(I1
(tg8
I00
S'\xd8k!='
tbag4
(g5
(I0
tS'b'
tRp1943
(I1
(tg8
I00
S'd\x12#='
tbag4
(g5
(I0
tS'b'
tRp1944
(I1
(tg8
I00
S'd\xbe8='
tbag4
(g5
(I0
tS'b'
tRp1945
(I1
(tg8
I00
S'\x94_\x98='
tbag4
(g5
(I0
tS'b'
tRp1946
(I1
(tg8
I00
S'\xb4=^='
tbag4
(g5
(I0
tS'b'
tRp1947
(I1
(tg8
I00
S'c\xbe&='
tbag4
(g5
(I0
tS'b'
tRp1948
(I1
(tg8
I00
S'h\xc4\x1f='
tbag4
(g5
(I0
tS'b'
tRp1949
(I1
(tg8
I00
S'\xf9\x9a\x1d='
tbag4
(g5
(I0
tS'b'
tRp1950
(I1
(tg8
I00
S'\x85\xf4\x1b='
tbag4
(g5
(I0
tS'b'
tRp1951
(I1
(tg8
I00
S'\xb9\x83\x1a='
tbag4
(g5
(I0
tS'b'
tRp1952
(I1
(tg8
I00
S'F\xda\x18='
tbag4
(g5
(I0
tS'b'
tRp1953
(I1
(tg8
I00
S'\xa3Z\x18='
tbag4
(g5
(I0
tS'b'
tRp1954
(I1
(tg8
I00
S'I+\x18='
tbag4
(g5
(I0
tS'b'
tRp1955
(I1
(tg8
I00
S'\xa8\xc1&='
tbag4
(g5
(I0
tS'b'
tRp1956
(I1
(tg8
I00
S'\xd0\xcc\xbf='
tbag4
(g5
(I0
tS'b'
tRp1957
(I1
(tg8
I00
S'\x0cJJ='
tbag4
(g5
(I0
tS'b'
tRp1958
(I1
(tg8
I00
S's\xdf\x1c='
tbag4
(g5
(I0
tS'b'
tRp1959
(I1
(tg8
I00
S'S\x17\x19='
tbag4
(g5
(I0
tS'b'
tRp1960
(I1
(tg8
I00
S'(\xed7='
tbag4
(g5
(I0
tS'b'
tRp1961
(I1
(tg8
I00
S'`\x8e(='
tbag4
(g5
(I0
tS'b'
tRp1962
(I1
(tg8
I00
S'w\xa9+='
tbag4
(g5
(I0
tS'b'
tRp1963
(I1
(tg8
I00
S'\x8b\xea\x1a='
tbag4
(g5
(I0
tS'b'
tRp1964
(I1
(tg8
I00
S'E\x1d\x18='
tbag4
(g5
(I0
tS'b'
tRp1965
(I1
(tg8
I00
S'V\x94\x12='
tbag4
(g5
(I0
tS'b'
tRp1966
(I1
(tg8
I00
S'\x12\xc3\x12='
tbag4
(g5
(I0
tS'b'
tRp1967
(I1
(tg8
I00
S'`c\x10='
tbag4
(g5
(I0
tS'b'
tRp1968
(I1
(tg8
I00
S'\xa6q\x0f='
tbag4
(g5
(I0
tS'b'
tRp1969
(I1
(tg8
I00
S'\xa6\xe4\r='
tbag4
(g5
(I0
tS'b'
tRp1970
(I1
(tg8
I00
S'\xc2B\r='
tbag4
(g5
(I0
tS'b'
tRp1971
(I1
(tg8
I00
S'\x0b\x00\r='
tbag4
(g5
(I0
tS'b'
tRp1972
(I1
(tg8
I00
S'S\xc7\x0e='
tbag4
(g5
(I0
tS'b'
tRp1973
(I1
(tg8
I00
S'`\xbc\x18='
tbag4
(g5
(I0
tS'b'
tRp1974
(I1
(tg8
I00
S'\xd4\xc8\x82='
tbag4
(g5
(I0
tS'b'
tRp1975
(I1
(tg8
I00
S'AG\r='
tbag4
(g5
(I0
tS'b'
tRp1976
(I1
(tg8
I00
S'\xea\xec-='
tbag4
(g5
(I0
tS'b'
tRp1977
(I1
(tg8
I00
S'\xf7|\x11='
tbag4
(g5
(I0
tS'b'
tRp1978
(I1
(tg8
I00
S'\x9c\xc8\x0b='
tbag4
(g5
(I0
tS'b'
tRp1979
(I1
(tg8
I00
S'w\xfd\x08='
tbag4
(g5
(I0
tS'b'
tRp1980
(I1
(tg8
I00
S'P\xe5\x07='
tbag4
(g5
(I0
tS'b'
tRp1981
(I1
(tg8
I00
S'\xeb\xe2\n='
tbag4
(g5
(I0
tS'b'
tRp1982
(I1
(tg8
I00
S'S\xc8\x0c='
tbag4
(g5
(I0
tS'b'
tRp1983
(I1
(tg8
I00
S'r\xa7\r='
tbag4
(g5
(I0
tS'b'
tRp1984
(I1
(tg8
I00
S'\xd2m\x1c='
tbag4
(g5
(I0
tS'b'
tRp1985
(I1
(tg8
I00
S'O$\x1d='
tbag4
(g5
(I0
tS'b'
tRp1986
(I1
(tg8
I00
S'\x0b\xc3 ='
tbag4
(g5
(I0
tS'b'
tRp1987
(I1
(tg8
I00
S'T\x18\x10='
tbag4
(g5
(I0
tS'b'
tRp1988
(I1
(tg8
I00
S'cL\x07='
tbag4
(g5
(I0
tS'b'
tRp1989
(I1
(tg8
I00
S'L\xf5\x05='
tbag4
(g5
(I0
tS'b'
tRp1990
(I1
(tg8
I00
S'e\x01\x05='
tbag4
(g5
(I0
tS'b'
tRp1991
(I1
(tg8
I00
S'\x149\x04='
tbag4
(g5
(I0
tS'b'
tRp1992
(I1
(tg8
I00
S'\x14-\x03='
tbag4
(g5
(I0
tS'b'
tRp1993
(I1
(tg8
I00
S'\x91\x7f\x02='
tbag4
(g5
(I0
tS'b'
tRp1994
(I1
(tg8
I00
S'\x8d.\x02='
tbag4
(g5
(I0
tS'b'
tRp1995
(I1
(tg8
I00
S'\xe6P\x01='
tbag4
(g5
(I0
tS'b'
tRp1996
(I1
(tg8
I00
S'\xfa\xa8\x00='
tbag4
(g5
(I0
tS'b'
tRp1997
(I1
(tg8
I00
S'\x1b\x83\x00='
tbag4
(g5
(I0
tS'b'
tRp1998
(I1
(tg8
I00
S'!\x96\x04='
tbag4
(g5
(I0
tS'b'
tRp1999
(I1
(tg8
I00
S'\x9f\xa9|='
tbag4
(g5
(I0
tS'b'
tRp2000
(I1
(tg8
I00
S'\xf3Kp='
tbag4
(g5
(I0
tS'b'
tRp2001
(I1
(tg8
I00
S'\x93\x8d\x07='
tbag4
(g5
(I0
tS'b'
tRp2002
(I1
(tg8
I00
S'\xd2D\x01='
tbag4
(g5
(I0
tS'b'
tRp2003
(I1
(tg8
I00
S"'\xc1\x00="
tbag4
(g5
(I0
tS'b'
tRp2004
(I1
(tg8
I00
S'G6\xfd<'
tbag4
(g5
(I0
tS'b'
tRp2005
(I1
(tg8
I00
S'LQ\xfc<'
tbag4
(g5
(I0
tS'b'
tRp2006
(I1
(tg8
I00
S'\x88\xb5\xfa<'
tbag4
(g5
(I0
tS'b'
tRp2007
(I1
(tg8
I00
S'R\xf7\xfd<'
tbag4
(g5
(I0
tS'b'
tRp2008
(I1
(tg8
I00
S'n\x80\x00='
tbag4
(g5
(I0
tS'b'
tRp2009
(I1
(tg8
I00
S'x\xdb\x05='
tbag4
(g5
(I0
tS'b'
tRp2010
(I1
(tg8
I00
S'LI\x14='
tbag4
(g5
(I0
tS'b'
tRp2011
(I1
(tg8
I00
S'\x910\x16='
tbag4
(g5
(I0
tS'b'
tRp2012
(I1
(tg8
I00
S'\xf3W\x17='
tbag4
(g5
(I0
tS'b'
tRp2013
(I1
(tg8
I00
S'\xa7\t\x05='
tbag4
(g5
(I0
tS'b'
tRp2014
(I1
(tg8
I00
S'\xdbT\xae>'
tbag4
(g5
(I0
tS'b'
tRp2015
(I1
(tg8
I00
S'W\x9d\x9a='
tbag4
(g5
(I0
tS'b'
tRp2016
(I1
(tg8
I00
S'(~>>'
tbag4
(g5
(I0
tS'b'
tRp2017
(I1
(tg8
I00
S'y\xdc\xb9>'
tbag4
(g5
(I0
tS'b'
tRp2018
(I1
(tg8
I00
S'\xb48\x98>'
tbag4
(g5
(I0
tS'b'
tRp2019
(I1
(tg8
I00
S'\xf2K&='
tbag4
(g5
(I0
tS'b'
tRp2020
(I1
(tg8
I00
S'\xd0\xb4%='
tbag4
(g5
(I0
tS'b'
tRp2021
(I1
(tg8
I00
S'n\xd0\t='
tbag4
(g5
(I0
tS'b'
tRp2022
(I1
(tg8
I00
S'F\x83\x02='
tbag4
(g5
(I0
tS'b'
tRp2023
(I1
(tg8
I00
S'\xc8b\xfe<'
tbag4
(g5
(I0
tS'b'
tRp2024
(I1
(tg8
I00
S'\x98A\xfb<'
tbag4
(g5
(I0
tS'b'
tRp2025
(I1
(tg8
I00
S'\x05\xcd\xf9<'
tbag4
(g5
(I0
tS'b'
tRp2026
(I1
(tg8
I00
S'f\xd3\xf7<'
tbag4
(g5
(I0
tS'b'
tRp2027
(I1
(tg8
I00
S'\xf2`\xf6<'
tbag4
(g5
(I0
tS'b'
tRp2028
(I1
(tg8
I00
S'\x03\x89\xf5<'
tbag4
(g5
(I0
tS'b'
tRp2029
(I1
(tg8
I00
S'\xcf\xe5\xf4<'
tbag4
(g5
(I0
tS'b'
tRp2030
(I1
(tg8
I00
S'\xd0X\xf3<'
tbag4
(g5
(I0
tS'b'
tRp2031
(I1
(tg8
I00
S'\x0c\x0b\xf3<'
tbag4
(g5
(I0
tS'b'
tRp2032
(I1
(tg8
I00
S'\xf6\x88\xf1<'
tbag4
(g5
(I0
tS'b'
tRp2033
(I1
(tg8
I00
S'C}\xf0<'
tbag4
(g5
(I0
tS'b'
tRp2034
(I1
(tg8
I00
S'\xbc\xff\xee<'
tbag4
(g5
(I0
tS'b'
tRp2035
(I1
(tg8
I00
S'\xf5\xc6\xee<'
tbag4
(g5
(I0
tS'b'
tRp2036
(I1
(tg8
I00
S'+\x0e\xed<'
tbag4
(g5
(I0
tS'b'
tRp2037
(I1
(tg8
I00
S'D\xb3\xec<'
tbag4
(g5
(I0
tS'b'
tRp2038
(I1
(tg8
I00
S'\x9a\r\xec<'
tbag4
(g5
(I0
tS'b'
tRp2039
(I1
(tg8
I00
S'\xee/\xeb<'
tbag4
(g5
(I0
tS'b'
tRp2040
(I1
(tg8
I00
S'-d\xed<'
tbag4
(g5
(I0
tS'b'
tRp2041
(I1
(tg8
I00
S'\x9bX5='
tbag4
(g5
(I0
tS'b'
tRp2042
(I1
(tg8
I00
S'\xf4D,='
tbag4
(g5
(I0
tS'b'
tRp2043
(I1
(tg8
I00
S'e}\xfc<'
tbag4
(g5
(I0
tS'b'
tRp2044
(I1
(tg8
I00
S'qe\xeb<'
tbag4
(g5
(I0
tS'b'
tRp2045
(I1
(tg8
I00
S'\x9fB\xe9<'
tbag4
(g5
(I0
tS'b'
tRp2046
(I1
(tg8
I00
S'-\x9d\xe8<'
tbag4
(g5
(I0
tS'b'
tRp2047
(I1
(tg8
I00
S'n)\xe7<'
tbag4
(g5
(I0
tS'b'
tRp2048
(I1
(tg8
I00
S'\xd9L\xe6<'
tbag4
(g5
(I0
tS'b'
tRp2049
(I1
(tg8
I00
S'\x9c\xef\xe5<'
tbag4
(g5
(I0
tS'b'
tRp2050
(I1
(tg8
I00
S'\x0b\xb4\xe4<'
tbag4
(g5
(I0
tS'b'
tRp2051
(I1
(tg8
I00
S'\xaf3\xe4<'
tbag4
(g5
(I0
tS'b'
tRp2052
(I1
(tg8
I00
S'C\x16\xe4<'
tbag4
(g5
(I0
tS'b'
tRp2053
(I1
(tg8
I00
S'<\xf1\xe7<'
tbag4
(g5
(I0
tS'b'
tRp2054
(I1
(tg8
I00
S'r#\xf1<'
tbag4
(g5
(I0
tS'b'
tRp2055
(I1
(tg8
I00
S'|\xbd\x11='
tbag4
(g5
(I0
tS'b'
tRp2056
(I1
(tg8
I00
S'\xb7/s='
tbag4
(g5
(I0
tS'b'
tRp2057
(I1
(tg8
I00
S'x\xad\xfc<'
tbag4
(g5
(I0
tS'b'
tRp2058
(I1
(tg8
I00
S'a\x99\xe6<'
tbag4
(g5
(I0
tS'b'
tRp2059
(I1
(tg8
I00
S'\\\xb6\xe3<'
tbag4
(g5
(I0
tS'b'
tRp2060
(I1
(tg8
I00
S'\x83\xa6\xe1<'
tbag4
(g5
(I0
tS'b'
tRp2061
(I1
(tg8
I00
S'JN\xe0<'
tbag4
(g5
(I0
tS'b'
tRp2062
(I1
(tg8
I00
S'\\\xf3\xdf<'
tbag4
(g5
(I0
tS'b'
tRp2063
(I1
(tg8
I00
S'5\xdb\xe0<'
tbag4
(g5
(I0
tS'b'
tRp2064
(I1
(tg8
I00
S"''\xdf<"
tbag4
(g5
(I0
tS'b'
tRp2065
(I1
(tg8
I00
S'\x8a\xfe\xde<'
tbag4
(g5
(I0
tS'b'
tRp2066
(I1
(tg8
I00
S'\x86\x98\xde<'
tbag4
(g5
(I0
tS'b'
tRp2067
(I1
(tg8
I00
S'8\xf8\xe1<'
tbag4
(g5
(I0
tS'b'
tRp2068
(I1
(tg8
I00
S'\x97\xac\xf4<'
tbag4
(g5
(I0
tS'b'
tRp2069
(I1
(tg8
I00
S'\x94\xe1\xec<'
tbag4
(g5
(I0
tS'b'
tRp2070
(I1
(tg8
I00
S'\xba?\xe3<'
tbag4
(g5
(I0
tS'b'
tRp2071
(I1
(tg8
I00
S'8z\xdd<'
tbag4
(g5
(I0
tS'b'
tRp2072
(I1
(tg8
I00
S'@\xb0\xdb<'
tbag4
(g5
(I0
tS'b'
tRp2073
(I1
(tg8
I00
S'\xdd\x10\xdb<'
tbag4
(g5
(I0
tS'b'
tRp2074
(I1
(tg8
I00
S'_\xe6\xd9<'
tbag4
(g5
(I0
tS'b'
tRp2075
(I1
(tg8
I00
S'\xe2i\xd9<'
tbag4
(g5
(I0
tS'b'
tRp2076
(I1
(tg8
I00
S'\t\xe3\xd8<'
tbag4
(g5
(I0
tS'b'
tRp2077
(I1
(tg8
I00
S'):\xd8<'
tbag4
(g5
(I0
tS'b'
tRp2078
(I1
(tg8
I00
S'\xb4Q\xd9<'
tbag4
(g5
(I0
tS'b'
tRp2079
(I1
(tg8
I00
S'\x83!\xe1<'
tbag4
(g5
(I0
tS'b'
tRp2080
(I1
(tg8
I00
S'k\xbc\x01='
tbag4
(g5
(I0
tS'b'
tRp2081
(I1
(tg8
I00
S'O\xe8\xfc<'
tbag4
(g5
(I0
tS'b'
tRp2082
(I1
(tg8
I00
S'\x81\x0b\xec<'
tbag4
(g5
(I0
tS'b'
tRp2083
(I1
(tg8
I00
S'H!\xda<'
tbag4
(g5
(I0
tS'b'
tRp2084
(I1
(tg8
I00
S'RN\xe3<'
tbag4
(g5
(I0
tS'b'
tRp2085
(I1
(tg8
I00
S'\xb1\xf8\xd7<'
tbag4
(g5
(I0
tS'b'
tRp2086
(I1
(tg8
I00
S'\xc2\xf0\xd7<'
tbag4
(g5
(I0
tS'b'
tRp2087
(I1
(tg8
I00
S'\xe3\x02\xe8<'
tbag4
(g5
(I0
tS'b'
tRp2088
(I1
(tg8
I00
S'A\x98\xd4<'
tbag4
(g5
(I0
tS'b'
tRp2089
(I1
(tg8
I00
S'\xa9\xbf\xd3<'
tbag4
(g5
(I0
tS'b'
tRp2090
(I1
(tg8
I00
S'Tn\xd3<'
tbag4
(g5
(I0
tS'b'
tRp2091
(I1
(tg8
I00
S'\x04~\xd3<'
tbag4
(g5
(I0
tS'b'
tRp2092
(I1
(tg8
I00
S'\xdf\x08\xd2<'
tbag4
(g5
(I0
tS'b'
tRp2093
(I1
(tg8
I00
S'\x16\xfb\xd1<'
tbag4
(g5
(I0
tS'b'
tRp2094
(I1
(tg8
I00
S'\xbf\x03\xd1<'
tbag4
(g5
(I0
tS'b'
tRp2095
(I1
(tg8
I00
S'\x8f\xb5\xd0<'
tbag4
(g5
(I0
tS'b'
tRp2096
(I1
(tg8
I00
S'\xe0\xbe\xd6<'
tbag4
(g5
(I0
tS'b'
tRp2097
(I1
(tg8
I00
S'\xec\x92\xd0<'
tbag4
(g5
(I0
tS'b'
tRp2098
(I1
(tg8
I00
S'\x84:\xd0<'
tbag4
(g5
(I0
tS'b'
tRp2099
(I1
(tg8
I00
S'\xfc\xbb\x05='
tbag4
(g5
(I0
tS'b'
tRp2100
(I1
(tg8
I00
S'\xa4\xec%='
tbag4
(g5
(I0
tS'b'
tRp2101
(I1
(tg8
I00
S'\xb1=\xd8<'
tbag4
(g5
(I0
tS'b'
tRp2102
(I1
(tg8
I00
S'\xd4\xd6\xd5<'
tbag4
(g5
(I0
tS'b'
tRp2103
(I1
(tg8
I00
S'\x94\xfa\xd0<'
tbag4
(g5
(I0
tS'b'
tRp2104
(I1
(tg8
I00
S'\xc4_\xe5<'
tbag4
(g5
(I0
tS'b'
tRp2105
(I1
(tg8
I00
S'*\x1a\xf4<'
tbag4
(g5
(I0
tS'b'
tRp2106
(I1
(tg8
I00
S'\x0e\xdb\xd3<'
tbag4
(g5
(I0
tS'b'
tRp2107
(I1
(tg8
I00
S'p\x7f\xd2<'
tbag4
(g5
(I0
tS'b'
tRp2108
(I1
(tg8
I00
S'%\xd2\xd1<'
tbag4
(g5
(I0
tS'b'
tRp2109
(I1
(tg8
I00
S'\x85\xb1\xd0<'
tbag4
(g5
(I0
tS'b'
tRp2110
(I1
(tg8
I00
S'\xde\x7f\xd0<'
tbag4
(g5
(I0
tS'b'
tRp2111
(I1
(tg8
I00
S'\xfe\xbe\xcf<'
tbag4
(g5
(I0
tS'b'
tRp2112
(I1
(tg8
I00
S'\x03\xd5\xce<'
tbag4
(g5
(I0
tS'b'
tRp2113
(I1
(tg8
I00
S'\x07i\xce<'
tbag4
(g5
(I0
tS'b'
tRp2114
(I1
(tg8
I00
S'S\x9b\xcd<'
tbag4
(g5
(I0
tS'b'
tRp2115
(I1
(tg8
I00
S'e$\xcd<'
tbag4
(g5
(I0
tS'b'
tRp2116
(I1
(tg8
I00
S'\xeb\x18\xcc<'
tbag4
(g5
(I0
tS'b'
tRp2117
(I1
(tg8
I00
S'xI\xcc<'
tbag4
(g5
(I0
tS'b'
tRp2118
(I1
(tg8
I00
S'\xabf\xcb<'
tbag4
(g5
(I0
tS'b'
tRp2119
(I1
(tg8
I00
S'\xfe_\xcb<'
tbag4
(g5
(I0
tS'b'
tRp2120
(I1
(tg8
I00
S'\xeb\xe9\xed<'
tbag4
(g5
(I0
tS'b'
tRp2121
(I1
(tg8
I00
S'!]v='
tbag4
(g5
(I0
tS'b'
tRp2122
(I1
(tg8
I00
S'\xfc\xd3^='
tbag4
(g5
(I0
tS'b'
tRp2123
(I1
(tg8
I00
S'\xfa\xb7\x8f='
tbag4
(g5
(I0
tS'b'
tRp2124
(I1
(tg8
I00
S'*;\x02='
tbag4
(g5
(I0
tS'b'
tRp2125
(I1
(tg8
I00
S'\xca\x07\xd9<'
tbag4
(g5
(I0
tS'b'
tRp2126
(I1
(tg8
I00
S'$\xc6\xd4<'
tbag4
(g5
(I0
tS'b'
tRp2127
(I1
(tg8
I00
S'\x8c\xe4\xd2<'
tbag4
(g5
(I0
tS'b'
tRp2128
(I1
(tg8
I00
S'\x9c\xdf\xd1<'
tbag4
(g5
(I0
tS'b'
tRp2129
(I1
(tg8
I00
S'\xcb\xe3\xd0<'
tbag4
(g5
(I0
tS'b'
tRp2130
(I1
(tg8
I00
S'\xa1Z\xd0<'
tbag4
(g5
(I0
tS'b'
tRp2131
(I1
(tg8
I00
S'\xb4\xaa\xce<'
tbag4
(g5
(I0
tS'b'
tRp2132
(I1
(tg8
I00
S'\xa8\xf3\xcd<'
tbag4
(g5
(I0
tS'b'
tRp2133
(I1
(tg8
I00
S'\xdbD\xcd<'
tbag4
(g5
(I0
tS'b'
tRp2134
(I1
(tg8
I00
S'\xff.\xcc<'
tbag4
(g5
(I0
tS'b'
tRp2135
(I1
(tg8
I00
S'\xf8\x0c\xcc<'
tbag4
(g5
(I0
tS'b'
tRp2136
(I1
(tg8
I00
S'\xca-\xcb<'
tbag4
(g5
(I0
tS'b'
tRp2137
(I1
(tg8
I00
S'\xa4\xa6\xca<'
tbag4
(g5
(I0
tS'b'
tRp2138
(I1
(tg8
I00
S'\x950\xca<'
tbag4
(g5
(I0
tS'b'
tRp2139
(I1
(tg8
I00
S'\xe4\x10\xca<'
tbag4
(g5
(I0
tS'b'
tRp2140
(I1
(tg8
I00
S'Yq\xc9<'
tbag4
(g5
(I0
tS'b'
tRp2141
(I1
(tg8
I00
S'8t\xc8<'
tbag4
(g5
(I0
tS'b'
tRp2142
(I1
(tg8
I00
S'\xbd+\xc8<'
tbag4
(g5
(I0
tS'b'
tRp2143
(I1
(tg8
I00
S'L\xc9\xc7<'
tbag4
(g5
(I0
tS'b'
tRp2144
(I1
(tg8
I00
S'\x851\xc7<'
tbag4
(g5
(I0
tS'b'
tRp2145
(I1
(tg8
I00
S'\xdd\x92\xc6<'
tbag4
(g5
(I0
tS'b'
tRp2146
(I1
(tg8
I00
S'\\iG>'
tbag4
(g5
(I0
tS'b'
tRp2147
(I1
(tg8
I00
S'X{}@'
tbag4
(g5
(I0
tS'b'
tRp2148
(I1
(tg8
I00
S'Rt\x0c>'
tbag4
(g5
(I0
tS'b'
tRp2149
(I1
(tg8
I00
S'\x16]\x04?'
tbag4
(g5
(I0
tS'b'
tRp2150
(I1
(tg8
I00
S'$\xe4(='
tbag4
(g5
(I0
tS'b'
tRp2151
(I1
(tg8
I00
S'A\xb3\x91>'
tbag4
(g5
(I0
tS'b'
tRp2152
(I1
(tg8
I00
S'\x94}\xe8<'
tbag4
(g5
(I0
tS'b'
tRp2153
(I1
(tg8
I00
S'\xa2\x81\x02='
tbag4
(g5
(I0
tS'b'
tRp2154
(I1
(tg8
I00
S'\x837\xe0<'
tbag4
(g5
(I0
tS'b'
tRp2155
(I1
(tg8
I00
S'6_\xd5<'
tbag4
(g5
(I0
tS'b'
tRp2156
(I1
(tg8
I00
S'\x185\xd1<'
tbag4
(g5
(I0
tS'b'
tRp2157
(I1
(tg8
I00
S'\x9c\xe8\xce<'
tbag4
(g5
(I0
tS'b'
tRp2158
(I1
(tg8
I00
S'\xe6\xd8\xcc<'
tbag4
(g5
(I0
tS'b'
tRp2159
(I1
(tg8
I00
S'\x9f\xa9\xcb<'
tbag4
(g5
(I0
tS'b'
tRp2160
(I1
(tg8
I00
S'9\xc8\xca<'
tbag4
(g5
(I0
tS'b'
tRp2161
(I1
(tg8
I00
S"'{\xca<"
tbag4
(g5
(I0
tS'b'
tRp2162
(I1
(tg8
I00
S'\xefB\xca<'
tbag4
(g5
(I0
tS'b'
tRp2163
(I1
(tg8
I00
S'\t\xa6\xc9<'
tbag4
(g5
(I0
tS'b'
tRp2164
(I1
(tg8
I00
S'%\x01\xc8<'
tbag4
(g5
(I0
tS'b'
tRp2165
(I1
(tg8
I00
S'\r6\xc8<'
tbag4
(g5
(I0
tS'b'
tRp2166
(I1
(tg8
I00
S'\xa3\xe3\xc7<'
tbag4
(g5
(I0
tS'b'
tRp2167
(I1
(tg8
I00
S'6\xa4\xc7<'
tbag4
(g5
(I0
tS'b'
tRp2168
(I1
(tg8
I00
S'%\xdb\xc6<'
tbag4
(g5
(I0
tS'b'
tRp2169
(I1
(tg8
I00
S'>\x16\xc7<'
tbag4
(g5
(I0
tS'b'
tRp2170
(I1
(tg8
I00
S'\xd0\xcb\xc6<'
tbag4
(g5
(I0
tS'b'
tRp2171
(I1
(tg8
I00
S'b\xd7\xc5<'
tbag4
(g5
(I0
tS'b'
tRp2172
(I1
(tg8
I00
S'\x8c\x10\xc6<'
tbag4
(g5
(I0
tS'b'
tRp2173
(I1
(tg8
I00
S'\x87.\xc6<'
tbag4
(g5
(I0
tS'b'
tRp2174
(I1
(tg8
I00
S'\xb0}\xc5<'
tbag4
(g5
(I0
tS'b'
tRp2175
(I1
(tg8
I00
S'\x851\xc5<'
tbag4
(g5
(I0
tS'b'
tRp2176
(I1
(tg8
I00
S'\x97\x84\xc4<'
tbag4
(g5
(I0
tS'b'
tRp2177
(I1
(tg8
I00
S'\xb33\xc4<'
tbag4
(g5
(I0
tS'b'
tRp2178
(I1
(tg8
I00
S'\x05h\xc4<'
tbag4
(g5
(I0
tS'b'
tRp2179
(I1
(tg8
I00
S'R\xd8\xc3<'
tbag4
(g5
(I0
tS'b'
tRp2180
(I1
(tg8
I00
S'\x1f\xf7\xc3<'
tbag4
(g5
(I0
tS'b'
tRp2181
(I1
(tg8
I00
S'W\xa5\xc6<'
tbag4
(g5
(I0
tS'b'
tRp2182
(I1
(tg8
I00
S'7\x95\xc7<'
tbag4
(g5
(I0
tS'b'
tRp2183
(I1
(tg8
I00
S'\xfe\x9b\xc4<'
tbag4
(g5
(I0
tS'b'
tRp2184
(I1
(tg8
I00
S'\xc6.\xc4<'
tbag4
(g5
(I0
tS'b'
tRp2185
(I1
(tg8
I00
S'\x1c\x13\xc3<'
tbag4
(g5
(I0
tS'b'
tRp2186
(I1
(tg8
I00
S'\x84\xd3\xc2<'
tbag4
(g5
(I0
tS'b'
tRp2187
(I1
(tg8
I00
S'\x93<\xc4<'
tbag4
(g5
(I0
tS'b'
tRp2188
(I1
(tg8
I00
S')\xbb\xc6<'
tbag4
(g5
(I0
tS'b'
tRp2189
(I1
(tg8
I00
S'\x18\xaf\xc8<'
tbag4
(g5
(I0
tS'b'
tRp2190
(I1
(tg8
I00
S'\xcf4\xc6<'
tbag4
(g5
(I0
tS'b'
tRp2191
(I1
(tg8
I00
S'\xc8\xe0\xc1<'
tbag4
(g5
(I0
tS'b'
tRp2192
(I1
(tg8
I00
S'C"\xc1<'
tbag4
(g5
(I0
tS'b'
tRp2193
(I1
(tg8
I00
S'\x0f\x99\xc0<'
tbag4
(g5
(I0
tS'b'
tRp2194
(I1
(tg8
I00
S'3\t\xd0<'
tbag4
(g5
(I0
tS'b'
tRp2195
(I1
(tg8
I00
S'7q9='
tbag4
(g5
(I0
tS'b'
tRp2196
(I1
(tg8
I00
S'L\xaf\xc6<'
tbag4
(g5
(I0
tS'b'
tRp2197
(I1
(tg8
I00
S'"\xb9\xc1<'
tbag4
(g5
(I0
tS'b'
tRp2198
(I1
(tg8
I00
S'\xc5\r\xc1<'
tbag4
(g5
(I0
tS'b'
tRp2199
(I1
(tg8
I00
S'\xa9\xa9\xc0<'
tbag4
(g5
(I0
tS'b'
tRp2200
(I1
(tg8
I00
S'Gz\xc0<'
tbag4
(g5
(I0
tS'b'
tRp2201
(I1
(tg8
I00
S'\x8e\xbd\xbf<'
tbag4
(g5
(I0
tS'b'
tRp2202
(I1
(tg8
I00
S'!\x9c\xbf<'
tbag4
(g5
(I0
tS'b'
tRp2203
(I1
(tg8
I00
S'P\x8c\xbf<'
tbag4
(g5
(I0
tS'b'
tRp2204
(I1
(tg8
I00
S'\x90\x0f\xbf<'
tbag4
(g5
(I0
tS'b'
tRp2205
(I1
(tg8
I00
S'\x9b\xe9\xbe<'
tbag4
(g5
(I0
tS'b'
tRp2206
(I1
(tg8
I00
S'\xd1\x1e\xbf<'
tbag4
(g5
(I0
tS'b'
tRp2207
(I1
(tg8
I00
S'\x80>\xbe<'
tbag4
(g5
(I0
tS'b'
tRp2208
(I1
(tg8
I00
S'\x90\xfe\xbd<'
tbag4
(g5
(I0
tS'b'
tRp2209
(I1
(tg8
I00
S'\xba\x90\xbd<'
tbag4
(g5
(I0
tS'b'
tRp2210
(I1
(tg8
I00
S'\xf0\xd6\xbd<'
tbag4
(g5
(I0
tS'b'
tRp2211
(I1
(tg8
I00
S'u\xb0\xbc<'
tbag4
(g5
(I0
tS'b'
tRp2212
(I1
(tg8
I00
S'\x9a\x95\xbc<'
tbag4
(g5
(I0
tS'b'
tRp2213
(I1
(tg8
I00
S'xt\xbc<'
tbag4
(g5
(I0
tS'b'
tRp2214
(I1
(tg8
I00
S'Ag\xbc<'
tbag4
(g5
(I0
tS'b'
tRp2215
(I1
(tg8
I00
S'}1\xbc<'
tbag4
(g5
(I0
tS'b'
tRp2216
(I1
(tg8
I00
S'\xe8=\xbc<'
tbag4
(g5
(I0
tS'b'
tRp2217
(I1
(tg8
I00
S'd\\\xbb<'
tbag4
(g5
(I0
tS'b'
tRp2218
(I1
(tg8
I00
S'\x89\xdd\xbd<'
tbag4
(g5
(I0
tS'b'
tRp2219
(I1
(tg8
I00
S'\xd7\xa0\xbb<'
tbag4
(g5
(I0
tS'b'
tRp2220
(I1
(tg8
I00
S'\xa7"\xbb<'
tbag4
(g5
(I0
tS'b'
tRp2221
(I1
(tg8
I00
S'\xc4\x12\xbe<'
tbag4
(g5
(I0
tS'b'
tRp2222
(I1
(tg8
I00
S'\xd9\xd7\xbc<'
tbag4
(g5
(I0
tS'b'
tRp2223
(I1
(tg8
I00
S'\xb6Q\xbc<'
tbag4
(g5
(I0
tS'b'
tRp2224
(I1
(tg8
I00
S'\xd4\xe3\xba<'
tbag4
(g5
(I0
tS'b'
tRp2225
(I1
(tg8
I00
S'\xbc\xcf\xb9<'
tbag4
(g5
(I0
tS'b'
tRp2226
(I1
(tg8
I00
S'>\x84\xb9<'
tbag4
(g5
(I0
tS'b'
tRp2227
(I1
(tg8
I00
S'tC\xb9<'
tbag4
(g5
(I0
tS'b'
tRp2228
(I1
(tg8
I00
S'?\xbb\xb8<'
tbag4
(g5
(I0
tS'b'
tRp2229
(I1
(tg8
I00
S'&\xed\xb8<'
tbag4
(g5
(I0
tS'b'
tRp2230
(I1
(tg8
I00
S'\xf6U\xb9<'
tbag4
(g5
(I0
tS'b'
tRp2231
(I1
(tg8
I00
S'd\xef\xbc<'
tbag4
(g5
(I0
tS'b'
tRp2232
(I1
(tg8
I00
S'\xbfw\xc0<'
tbag4
(g5
(I0
tS'b'
tRp2233
(I1
(tg8
I00
S'x\xb9\xda<'
tbag4
(g5
(I0
tS'b'
tRp2234
(I1
(tg8
I00
S'\x12\xa9\xef<'
tbag4
(g5
(I0
tS'b'
tRp2235
(I1
(tg8
I00
S'V\x03\xbc<'
tbag4
(g5
(I0
tS'b'
tRp2236
(I1
(tg8
I00
S'Sc\xb9<'
tbag4
(g5
(I0
tS'b'
tRp2237
(I1
(tg8
I00
S'\x1d[\xb8<'
tbag4
(g5
(I0
tS'b'
tRp2238
(I1
(tg8
I00
S':\xd2\xb7<'
tbag4
(g5
(I0
tS'b'
tRp2239
(I1
(tg8
I00
S'A\x1f\xb8<'
tbag4
(g5
(I0
tS'b'
tRp2240
(I1
(tg8
I00
S'l[\xb7<'
tbag4
(g5
(I0
tS'b'
tRp2241
(I1
(tg8
I00
S'#\xfd\xb6<'
tbag4
(g5
(I0
tS'b'
tRp2242
(I1
(tg8
I00
S'\xdb\xa4\xb6<'
tbag4
(g5
(I0
tS'b'
tRp2243
(I1
(tg8
I00
S'\xd1]@>'
tbag4
(g5
(I0
tS'b'
tRp2244
(I1
(tg8
I00
S'0\xac\xf2<'
tbag4
(g5
(I0
tS'b'
tRp2245
(I1
(tg8
I00
S'\x9dFh@'
tbag4
(g5
(I0
tS'b'
tRp2246
(I1
(tg8
I00
S'\x0c\x956?'
tbag4
(g5
(I0
tS'b'
tRp2247
(I1
(tg8
I00
S'\xcc\xd3\xa4>'
tbag4
(g5
(I0
tS'b'
tRp2248
(I1
(tg8
I00
S'\x99\xaa\x07='
tbag4
(g5
(I0
tS'b'
tRp2249
(I1
(tg8
I00
S'\x93Z\xd0<'
tbag4
(g5
(I0
tS'b'
tRp2250
(I1
(tg8
I00
S'8\xf5\xf9<'
tbag4
(g5
(I0
tS'b'
tRp2251
(I1
(tg8
I00
S'@.\x04='
tbag4
(g5
(I0
tS'b'
tRp2252
(I1
(tg8
I00
S'\xbfX\xd2<'
tbag4
(g5
(I0
tS'b'
tRp2253
(I1
(tg8
I00
S'\x13^\xc5<'
tbag4
(g5
(I0
tS'b'
tRp2254
(I1
(tg8
I00
S'\xcf\xb8\xc4<'
tbag4
(g5
(I0
tS'b'
tRp2255
(I1
(tg8
I00
S'Q]\xf5<'
tbag4
(g5
(I0
tS'b'
tRp2256
(I1
(tg8
I00
S'u\x8e\xd1<'
tbag4
(g5
(I0
tS'b'
tRp2257
(I1
(tg8
I00
S'\x14\x9a\xc7<'
tbag4
(g5
(I0
tS'b'
tRp2258
(I1
(tg8
I00
S'q\xbb\xc2<'
tbag4
(g5
(I0
tS'b'
tRp2259
(I1
(tg8
I00
S'\xc2\xa9\xbf<'
tbag4
(g5
(I0
tS'b'
tRp2260
(I1
(tg8
I00
S'\x05+\xbe<'
tbag4
(g5
(I0
tS'b'
tRp2261
(I1
(tg8
I00
S';\xf7\xbd<'
tbag4
(g5
(I0
tS'b'
tRp2262
(I1
(tg8
I00
S'\xa4w\xbd<'
tbag4
(g5
(I0
tS'b'
tRp2263
(I1
(tg8
I00
S'\xa92\xbc<'
tbag4
(g5
(I0
tS'b'
tRp2264
(I1
(tg8
I00
S'y,/='
tbag4
(g5
(I0
tS'b'
tRp2265
(I1
(tg8
I00
S'\xc7\x85\xdd<'
tbag4
(g5
(I0
tS'b'
tRp2266
(I1
(tg8
I00
S'9\xc1\xc4<'
tbag4
(g5
(I0
tS'b'
tRp2267
(I1
(tg8
I00
S'C\xff\xbd<'
tbag4
(g5
(I0
tS'b'
tRp2268
(I1
(tg8
I00
S'\x89\xf7\xbb<'
tbag4
(g5
(I0
tS'b'
tRp2269
(I1
(tg8
I00
S'\x95\xac\xba<'
tbag4
(g5
(I0
tS'b'
tRp2270
(I1
(tg8
I00
S'y\xe9\xb9<'
tbag4
(g5
(I0
tS'b'
tRp2271
(I1
(tg8
I00
S'\x9f\xac\xb9<'
tbag4
(g5
(I0
tS'b'
tRp2272
(I1
(tg8
I00
S'\x15"\xb9<'
tbag4
(g5
(I0
tS'b'
tRp2273
(I1
(tg8
I00
S'&\xbb\xb8<'
tbag4
(g5
(I0
tS'b'
tRp2274
(I1
(tg8
I00
S'\x9fP\xb8<'
tbag4
(g5
(I0
tS'b'
tRp2275
(I1
(tg8
I00
S'\x18)\xb8<'
tbag4
(g5
(I0
tS'b'
tRp2276
(I1
(tg8
I00
S'/\xe8\xb7<'
tbag4
(g5
(I0
tS'b'
tRp2277
(I1
(tg8
I00
S'\xde|\xb7<'
tbag4
(g5
(I0
tS'b'
tRp2278
(I1
(tg8
I00
S'\xabm\xb7<'
tbag4
(g5
(I0
tS'b'
tRp2279
(I1
(tg8
I00
S'|\xe5\xb6<'
tbag4
(g5
(I0
tS'b'
tRp2280
(I1
(tg8
I00
S'\xa6\xcf\xb6<'
tbag4
(g5
(I0
tS'b'
tRp2281
(I1
(tg8
I00
S'\xfd\xc1\xb6<'
tbag4
(g5
(I0
tS'b'
tRp2282
(I1
(tg8
I00
S'\xbb!\xb6<'
tbag4
(g5
(I0
tS'b'
tRp2283
(I1
(tg8
I00
S"9'\xb6<"
tbag4
(g5
(I0
tS'b'
tRp2284
(I1
(tg8
I00
S'\xbe?\xb6<'
tbag4
(g5
(I0
tS'b'
tRp2285
(I1
(tg8
I00
S'\xb6?\xb5<'
tbag4
(g5
(I0
tS'b'
tRp2286
(I1
(tg8
I00
S'\xaap\xb5<'
tbag4
(g5
(I0
tS'b'
tRp2287
(I1
(tg8
I00
S';m\xb5<'
tbag4
(g5
(I0
tS'b'
tRp2288
(I1
(tg8
I00
S'\xe8!\xb5<'
tbag4
(g5
(I0
tS'b'
tRp2289
(I1
(tg8
I00
S'$\xa4\xb4<'
tbag4
(g5
(I0
tS'b'
tRp2290
(I1
(tg8
I00
S'V\xc5\xb4<'
tbag4
(g5
(I0
tS'b'
tRp2291
(I1
(tg8
I00
S'DZ\xb4<'
tbag4
(g5
(I0
tS'b'
tRp2292
(I1
(tg8
I00
S'tY\xb4<'
tbag4
(g5
(I0
tS'b'
tRp2293
(I1
(tg8
I00
S'\xa7\xbd\xb3<'
tbag4
(g5
(I0
tS'b'
tRp2294
(I1
(tg8
I00
S'R\x18\xb4<'
tbag4
(g5
(I0
tS'b'
tRp2295
(I1
(tg8
I00
S']A\xb3<'
tbag4
(g5
(I0
tS'b'
tRp2296
(I1
(tg8
I00
S'\xc9X\xb3<'
tbag4
(g5
(I0
tS'b'
tRp2297
(I1
(tg8
I00
S'\xa7u\xb3<'
tbag4
(g5
(I0
tS'b'
tRp2298
(I1
(tg8
I00
S'\x1d\xdc\xb2<'
tbag4
(g5
(I0
tS'b'
tRp2299
(I1
(tg8
I00
S'\xb1\xd6\xb2<'
tbag4
(g5
(I0
tS'b'
tRp2300
(I1
(tg8
I00
S'\xc5\xb0\xb2<'
tbag4
(g5
(I0
tS'b'
tRp2301
(I1
(tg8
I00
S'W\x8e\xb2<'
tbag4
(g5
(I0
tS'b'
tRp2302
(I1
(tg8
I00
S'M\x1d\xb2<'
tbag4
(g5
(I0
tS'b'
tRp2303
(I1
(tg8
I00
S'\x85\xfd\xb1<'
tbag4
(g5
(I0
tS'b'
tRp2304
(I1
(tg8
I00
S'e\x07\xb2<'
tbag4
(g5
(I0
tS'b'
tRp2305
(I1
(tg8
I00
S'8\x8b\xb2<'
tbag4
(g5
(I0
tS'b'
tRp2306
(I1
(tg8
I00
S'\xf9D)='
tbag4
(g5
(I0
tS'b'
tRp2307
(I1
(tg8
I00
S'\xff\xb8\xb2<'
tbag4
(g5
(I0
tS'b'
tRp2308
(I1
(tg8
I00
S'W\x97\xb2<'
tbag4
(g5
(I0
tS'b'
tRp2309
(I1
(tg8
I00
S'\xdd\x1e\xb2<'
tbag4
(g5
(I0
tS'b'
tRp2310
(I1
(tg8
I00
S'"7\xb2<'
tbag4
(g5
(I0
tS'b'
tRp2311
(I1
(tg8
I00
S'\x06\x17\xb2<'
tbag4
(g5
(I0
tS'b'
tRp2312
(I1
(tg8
I00
S'\x14\x12\xb2<'
tbag4
(g5
(I0
tS'b'
tRp2313
(I1
(tg8
I00
S'\xc5\x93\xb1<'
tbag4
(g5
(I0
tS'b'
tRp2314
(I1
(tg8
I00
S'\xad\xc3\xb1<'
tbag4
(g5
(I0
tS'b'
tRp2315
(I1
(tg8
I00
S'Q\x17\xb1<'
tbag4
(g5
(I0
tS'b'
tRp2316
(I1
(tg8
I00
S'QW\xb1<'
tbag4
(g5
(I0
tS'b'
tRp2317
(I1
(tg8
I00
S'\x9d\x07\xb1<'
tbag4
(g5
(I0
tS'b'
tRp2318
(I1
(tg8
I00
S'\xc7"\xb1<'
tbag4
(g5
(I0
tS'b'
tRp2319
(I1
(tg8
I00
S'\\\x1e\xb1<'
tbag4
(g5
(I0
tS'b'
tRp2320
(I1
(tg8
I00
S'\xae\xa8\xb0<'
tbag4
(g5
(I0
tS'b'
tRp2321
(I1
(tg8
I00
S'\x8a\xdd\xb0<'
tbag4
(g5
(I0
tS'b'
tRp2322
(I1
(tg8
I00
S'\\\xa8\xb0<'
tbag4
(g5
(I0
tS'b'
tRp2323
(I1
(tg8
I00
S'WD\xb0<'
tbag4
(g5
(I0
tS'b'
tRp2324
(I1
(tg8
I00
S'\x0bc\xb0<'
tbag4
(g5
(I0
tS'b'
tRp2325
(I1
(tg8
I00
S'z=\xb0<'
tbag4
(g5
(I0
tS'b'
tRp2326
(I1
(tg8
I00
S'm+\xb0<'
tbag4
(g5
(I0
tS'b'
tRp2327
(I1
(tg8
I00
S'\x13\xc0\xaf<'
tbag4
(g5
(I0
tS'b'
tRp2328
(I1
(tg8
I00
S';\xf9\xaf<'
tbag4
(g5
(I0
tS'b'
tRp2329
(I1
(tg8
I00
S'g\xad\xaf<'
tbag4
(g5
(I0
tS'b'
tRp2330
(I1
(tg8
I00
S'\xde\xa3\xaf<'
tbag4
(g5
(I0
tS'b'
tRp2331
(I1
(tg8
I00
S'z\x88\xaf<'
tbag4
(g5
(I0
tS'b'
tRp2332
(I1
(tg8
I00
S'\x18{\xaf<'
tbag4
(g5
(I0
tS'b'
tRp2333
(I1
(tg8
I00
S'\xfeB\xaf<'
tbag4
(g5
(I0
tS'b'
tRp2334
(I1
(tg8
I00
S'>8\xaf<'
tbag4
(g5
(I0
tS'b'
tRp2335
(I1
(tg8
I00
S'\x9e\x12\xaf<'
tbag4
(g5
(I0
tS'b'
tRp2336
(I1
(tg8
I00
S'^\x04\xaf<'
tbag4
(g5
(I0
tS'b'
tRp2337
(I1
(tg8
I00
S'\xcd\xa8\xae<'
tbag4
(g5
(I0
tS'b'
tRp2338
(I1
(tg8
I00
S'\xe9\x0c\xaf<'
tbag4
(g5
(I0
tS'b'
tRp2339
(I1
(tg8
I00
S'H\xac\xae<'
tbag4
(g5
(I0
tS'b'
tRp2340
(I1
(tg8
I00
S'\x83\xdd\xae<'
tbag4
(g5
(I0
tS'b'
tRp2341
(I1
(tg8
I00
S':\x90\xae<'
tbag4
(g5
(I0
tS'b'
tRp2342
(I1
(tg8
I00
S'*\xa5\xae<'
tbag4
(g5
(I0
tS'b'
tRp2343
(I1
(tg8
I00
S'\xc6\xed\xae<'
tbag4
(g5
(I0
tS'b'
tRp2344
(I1
(tg8
I00
S'\xb9 \xd6<'
tbag4
(g5
(I0
tS'b'
tRp2345
(I1
(tg8
I00
S'\xa1<\xaf<'
tbag4
(g5
(I0
tS'b'
tRp2346
(I1
(tg8
I00
S'\xe8\xb8\xb1<'
tbag4
(g5
(I0
tS'b'
tRp2347
(I1
(tg8
I00
S'\x8fS\xae<'
tbag4
(g5
(I0
tS'b'
tRp2348
(I1
(tg8
I00
S'\xce\xdd\xad<'
tbag4
(g5
(I0
tS'b'
tRp2349
(I1
(tg8
I00
S'\x1c\xf2\xad<'
tbag4
(g5
(I0
tS'b'
tRp2350
(I1
(tg8
I00
S'\xcc\xb6\xad<'
tbag4
(g5
(I0
tS'b'
tRp2351
(I1
(tg8
I00
S'\xbd\xb8\xad<'
tbag4
(g5
(I0
tS'b'
tRp2352
(I1
(tg8
I00
S'`\x8e\xad<'
tbag4
(g5
(I0
tS'b'
tRp2353
(I1
(tg8
I00
S'\x87\xa7\xad<'
tbag4
(g5
(I0
tS'b'
tRp2354
(I1
(tg8
I00
S'u\xa9\xad<'
tbag4
(g5
(I0
tS'b'
tRp2355
(I1
(tg8
I00
S'L[\xad<'
tbag4
(g5
(I0
tS'b'
tRp2356
(I1
(tg8
I00
S'I\x84\xad<'
tbag4
(g5
(I0
tS'b'
tRp2357
(I1
(tg8
I00
S'\xa04\xad<'
tbag4
(g5
(I0
tS'b'
tRp2358
(I1
(tg8
I00
S'.,\xad<'
tbag4
(g5
(I0
tS'b'
tRp2359
(I1
(tg8
I00
S'\x8f(\xad<'
tbag4
(g5
(I0
tS'b'
tRp2360
(I1
(tg8
I00
S'\xffj\xad<'
tbag4
(g5
(I0
tS'b'
tRp2361
(I1
(tg8
I00
S'\xe3\xf1\xac<'
tbag4
(g5
(I0
tS'b'
tRp2362
(I1
(tg8
I00
S'X\xe9\xac<'
tbag4
(g5
(I0
tS'b'
tRp2363
(I1
(tg8
I00
S'p\xcb\xac<'
tbag4
(g5
(I0
tS'b'
tRp2364
(I1
(tg8
I00
S'\xbe\xb3\xac<'
tbag4
(g5
(I0
tS'b'
tRp2365
(I1
(tg8
I00
S'`\xfe\xac<'
tbag4
(g5
(I0
tS'b'
tRp2366
(I1
(tg8
I00
S'"\x1d\xbb<'
tbag4
(g5
(I0
tS'b'
tRp2367
(I1
(tg8
I00
S'\x05\xd3\x00='
tbag4
(g5
(I0
tS'b'
tRp2368
(I1
(tg8
I00
S'\xdb<\xae<'
tbag4
(g5
(I0
tS'b'
tRp2369
(I1
(tg8
I00
S'\\\x8a\xad<'
tbag4
(g5
(I0
tS'b'
tRp2370
(I1
(tg8
I00
S'|(\xad<'
tbag4
(g5
(I0
tS'b'
tRp2371
(I1
(tg8
I00
S'\xb1\xcd\xac<'
tbag4
(g5
(I0
tS'b'
tRp2372
(I1
(tg8
I00
S' \x9e\xac<'
tbag4
(g5
(I0
tS'b'
tRp2373
(I1
(tg8
I00
S'\x16l\xac<'
tbag4
(g5
(I0
tS'b'
tRp2374
(I1
(tg8
I00
S'\xaf_\xac<'
tbag4
(g5
(I0
tS'b'
tRp2375
(I1
(tg8
I00
S'Aa\xac<'
tbag4
(g5
(I0
tS'b'
tRp2376
(I1
(tg8
I00
S"\x99'\xac<"
tbag4
(g5
(I0
tS'b'
tRp2377
(I1
(tg8
I00
S'\xe5@\xac<'
tbag4
(g5
(I0
tS'b'
tRp2378
(I1
(tg8
I00
S"\xa8'\xac<"
tbag4
(g5
(I0
tS'b'
tRp2379
(I1
(tg8
I00
S'\x90]\xac<'
tbag4
(g5
(I0
tS'b'
tRp2380
(I1
(tg8
I00
S'\xc5\x19\xac<'
tbag4
(g5
(I0
tS'b'
tRp2381
(I1
(tg8
I00
S'\xb6\x18\xac<'
tbag4
(g5
(I0
tS'b'
tRp2382
(I1
(tg8
I00
S'@\x05\xac<'
tbag4
(g5
(I0
tS'b'
tRp2383
(I1
(tg8
I00
S'F\xd3\xab<'
tbag4
(g5
(I0
tS'b'
tRp2384
(I1
(tg8
I00
S'\xe0\xf3\xab<'
tbag4
(g5
(I0
tS'b'
tRp2385
(I1
(tg8
I00
S'c\x02\xac<'
tbag4
(g5
(I0
tS'b'
tRp2386
(I1
(tg8
I00
S'+\xf0\xab<'
tbag4
(g5
(I0
tS'b'
tRp2387
(I1
(tg8
I00
S'\xc9\xc1\xab<'
tbag4
(g5
(I0
tS'b'
tRp2388
(I1
(tg8
I00
S'\xc9\xe4\xab<'
tbag4
(g5
(I0
tS'b'
tRp2389
(I1
(tg8
I00
S'N\xab\xab<'
tbag4
(g5
(I0
tS'b'
tRp2390
(I1
(tg8
I00
S'\x82\x86\xab<'
tbag4
(g5
(I0
tS'b'
tRp2391
(I1
(tg8
I00
S'\xb6r\xab<'
tbag4
(g5
(I0
tS'b'
tRp2392
(I1
(tg8
I00
S'\x82}\xab<'
tbag4
(g5
(I0
tS'b'
tRp2393
(I1
(tg8
I00
S'AZ\xab<'
tbag4
(g5
(I0
tS'b'
tRp2394
(I1
(tg8
I00
S'j2\xab<'
tbag4
(g5
(I0
tS'b'
tRp2395
(I1
(tg8
I00
S'ms\xab<'
tbag4
(g5
(I0
tS'b'
tRp2396
(I1
(tg8
I00
S'\xdf?\xab<'
tbag4
(g5
(I0
tS'b'
tRp2397
(I1
(tg8
I00
S'\x8a\x19\xab<'
tbag4
(g5
(I0
tS'b'
tRp2398
(I1
(tg8
I00
S'\xe9Y\xab<'
tbag4
(g5
(I0
tS'b'
tRp2399
(I1
(tg8
I00
S'\x88\x16\xab<'
tbag4
(g5
(I0
tS'b'
tRp2400
(I1
(tg8
I00
S'\xe8\x11\xab<'
tbag4
(g5
(I0
tS'b'
tRp2401
(I1
(tg8
I00
S'`F\xab<'
tbag4
(g5
(I0
tS'b'
tRp2402
(I1
(tg8
I00
S']\x06\xab<'
tbag4
(g5
(I0
tS'b'
tRp2403
(I1
(tg8
I00
S'P\xd5\xaa<'
tbag4
(g5
(I0
tS'b'
tRp2404
(I1
(tg8
I00
S'\xa6\xf3\xaa<'
tbag4
(g5
(I0
tS'b'
tRp2405
(I1
(tg8
I00
S'O\xc1\xaa<'
tbag4
(g5
(I0
tS'b'
tRp2406
(I1
(tg8
I00
S'\x8e\xd5\xaa<'
tbag4
(g5
(I0
tS'b'
tRp2407
(I1
(tg8
I00
S'7\xc1\xaa<'
tbag4
(g5
(I0
tS'b'
tRp2408
(I1
(tg8
I00
S'+\xb7\xaa<'
tbag4
(g5
(I0
tS'b'
tRp2409
(I1
(tg8
I00
S'\xb6\xbd\xaa<'
tbag4
(g5
(I0
tS'b'
tRp2410
(I1
(tg8
I00
S'\x10\xad\xaa<'
tbag4
(g5
(I0
tS'b'
tRp2411
(I1
(tg8
I00
S'y\xb6\xaa<'
tbag4
(g5
(I0
tS'b'
tRp2412
(I1
(tg8
I00
S't\xd8\xaa<'
tbag4
(g5
(I0
tS'b'
tRp2413
(I1
(tg8
I00
S'\xbe_\xab<'
tbag4
(g5
(I0
tS'b'
tRp2414
(I1
(tg8
I00
S'0+\xc9<'
tbag4
(g5
(I0
tS'b'
tRp2415
(I1
(tg8
I00
S'Y\xa1r='
tbag4
(g5
(I0
tS'b'
tRp2416
(I1
(tg8
I00
S'\x10\x8d\xad<'
tbag4
(g5
(I0
tS'b'
tRp2417
(I1
(tg8
I00
S'\xc2\x18\xad<'
tbag4
(g5
(I0
tS'b'
tRp2418
(I1
(tg8
I00
S'@\xca\xac<'
tbag4
(g5
(I0
tS'b'
tRp2419
(I1
(tg8
I00
S'\x9d[\xac<'
tbag4
(g5
(I0
tS'b'
tRp2420
(I1
(tg8
I00
S'(\x8c\xac<'
tbag4
(g5
(I0
tS'b'
tRp2421
(I1
(tg8
I00
S'-!\xac<'
tbag4
(g5
(I0
tS'b'
tRp2422
(I1
(tg8
I00
S'\xca\x02\xac<'
tbag4
(g5
(I0
tS'b'
tRp2423
(I1
(tg8
I00
S']$\xac<'
tbag4
(g5
(I0
tS'b'
tRp2424
(I1
(tg8
I00
S'\x10\xc2\xab<'
tbag4
(g5
(I0
tS'b'
tRp2425
(I1
(tg8
I00
S'\x93\xa7\xab<'
tbag4
(g5
(I0
tS'b'
tRp2426
(I1
(tg8
I00
S'b\xa5\xab<'
tbag4
(g5
(I0
tS'b'
tRp2427
(I1
(tg8
I00
S'4\x9e\xab<'
tbag4
(g5
(I0
tS'b'
tRp2428
(I1
(tg8
I00
S'\x1fh\xab<'
tbag4
(g5
(I0
tS'b'
tRp2429
(I1
(tg8
I00
S'KM\xab<'
tbag4
(g5
(I0
tS'b'
tRp2430
(I1
(tg8
I00
S'\x8dc\xab<'
tbag4
(g5
(I0
tS'b'
tRp2431
(I1
(tg8
I00
S'~;\xab<'
tbag4
(g5
(I0
tS'b'
tRp2432
(I1
(tg8
I00
S'\x88\x00\xab<'
tbag4
(g5
(I0
tS'b'
tRp2433
(I1
(tg8
I00
S'\t\xe8\xaa<'
tbag4
(g5
(I0
tS'b'
tRp2434
(I1
(tg8
I00
S'\xaa\xff\xaa<'
tbag4
(g5
(I0
tS'b'
tRp2435
(I1
(tg8
I00
S'\xf3\xc9\xaa<'
tbag4
(g5
(I0
tS'b'
tRp2436
(I1
(tg8
I00
S'w\xf2\xaa<'
tbag4
(g5
(I0
tS'b'
tRp2437
(I1
(tg8
I00
S'\xe3\xc7\xaa<'
tbag4
(g5
(I0
tS'b'
tRp2438
(I1
(tg8
I00
S'\xfa\xb8\xaa<'
tbag4
(g5
(I0
tS'b'
tRp2439
(I1
(tg8
I00
S'\xf3\x9e\xaa<'
tbag4
(g5
(I0
tS'b'
tRp2440
(I1
(tg8
I00
S'\x84\x8e\xaa<'
tbag4
(g5
(I0
tS'b'
tRp2441
(I1
(tg8
I00
S':\x80\xaa<'
tbag4
(g5
(I0
tS'b'
tRp2442
(I1
(tg8
I00
S'\x8ci\xaa<'
tbag4
(g5
(I0
tS'b'
tRp2443
(I1
(tg8
I00
S')Y\xaa<'
tbag4
(g5
(I0
tS'b'
tRp2444
(I1
(tg8
I00
S'\xc4[\xaa<'
tbag4
(g5
(I0
tS'b'
tRp2445
(I1
(tg8
I00
S'\xacy\xaa<'
tbag4
(g5
(I0
tS'b'
tRp2446
(I1
(tg8
I00
S'"7\xaa<'
tbag4
(g5
(I0
tS'b'
tRp2447
(I1
(tg8
I00
S'\x98G\xaa<'
tbag4
(g5
(I0
tS'b'
tRp2448
(I1
(tg8
I00
S'>&\xaa<'
tbag4
(g5
(I0
tS'b'
tRp2449
(I1
(tg8
I00
S'},\xaa<'
tbag4
(g5
(I0
tS'b'
tRp2450
(I1
(tg8
I00
S"\xe7'\xaa<"
tbag4
(g5
(I0
tS'b'
tRp2451
(I1
(tg8
I00
S'(0\xaa<'
tbag4
(g5
(I0
tS'b'
tRp2452
(I1
(tg8
I00
S'\x00\xf0\xa9<'
tbag4
(g5
(I0
tS'b'
tRp2453
(I1
(tg8
I00
S'?\xff\xa9<'
tbag4
(g5
(I0
tS'b'
tRp2454
(I1
(tg8
I00
S'Y\n\xaa<'
tbag4
(g5
(I0
tS'b'
tRp2455
(I1
(tg8
I00
S'\x14\xaf\xa9<'
tbag4
(g5
(I0
tS'b'
tRp2456
(I1
(tg8
I00
S'\xe3\xda\xa9<'
tbag4
(g5
(I0
tS'b'
tRp2457
(I1
(tg8
I00
S'\xd7\xe0\xa9<'
tbag4
(g5
(I0
tS'b'
tRp2458
(I1
(tg8
I00
S'\xaf\xfe\xa9<'
tbag4
(g5
(I0
tS'b'
tRp2459
(I1
(tg8
I00
S'K\xbd\xa9<'
tbag4
(g5
(I0
tS'b'
tRp2460
(I1
(tg8
I00
S';\xdf\xa9<'
tbag4
(g5
(I0
tS'b'
tRp2461
(I1
(tg8
I00
S'5\xd9\xa9<'
tbag4
(g5
(I0
tS'b'
tRp2462
(I1
(tg8
I00
S'wy\xa9<'
tbag4
(g5
(I0
tS'b'
tRp2463
(I1
(tg8
I00
S'.\n\xaa<'
tbag4
(g5
(I0
tS'b'
tRp2464
(I1
(tg8
I00
S'?\xb5\xa9<'
tbag4
(g5
(I0
tS'b'
tRp2465
(I1
(tg8
I00
S'\xee\xe4\xa9<'
tbag4
(g5
(I0
tS'b'
tRp2466
(I1
(tg8
I00
S'\xb1@\xaa<'
tbag4
(g5
(I0
tS'b'
tRp2467
(I1
(tg8
I00
S'\xb4Q\xb0<'
tbag4
(g5
(I0
tS'b'
tRp2468
(I1
(tg8
I00
S'\xc2{\xc5<'
tbag4
(g5
(I0
tS'b'
tRp2469
(I1
(tg8
I00
S'\xcf\x15\xb8<'
tbag4
(g5
(I0
tS'b'
tRp2470
(I1
(tg8
I00
S'O\xf8\xab<'
tbag4
(g5
(I0
tS'b'
tRp2471
(I1
(tg8
I00
S'\x90\x03\xb7<'
tbag4
(g5
(I0
tS'b'
tRp2472
(I1
(tg8
I00
S'Y\x15\xac<'
tbag4
(g5
(I0
tS'b'
tRp2473
(I1
(tg8
I00
S'J\xec\xa9<'
tbag4
(g5
(I0
tS'b'
tRp2474
(I1
(tg8
I00
S'\x0b\xbe\xa9<'
tbag4
(g5
(I0
tS'b'
tRp2475
(I1
(tg8
I00
S'\xac\xc2\xa9<'
tbag4
(g5
(I0
tS'b'
tRp2476
(I1
(tg8
I00
S'\xf2\xbd\xa9<'
tbag4
(g5
(I0
tS'b'
tRp2477
(I1
(tg8
I00
S'\xb3\xa3\xa9<'
tbag4
(g5
(I0
tS'b'
tRp2478
(I1
(tg8
I00
S'\xd2\xa5\xa9<'
tbag4
(g5
(I0
tS'b'
tRp2479
(I1
(tg8
I00
S'\xe8~\xa9<'
tbag4
(g5
(I0
tS'b'
tRp2480
(I1
(tg8
I00
S'\x0e\xb2\xa9<'
tbag4
(g5
(I0
tS'b'
tRp2481
(I1
(tg8
I00
S'\x9c\x86\xa9<'
tbag4
(g5
(I0
tS'b'
tRp2482
(I1
(tg8
I00
S'\x0f\x96\xa9<'
tbag4
(g5
(I0
tS'b'
tRp2483
(I1
(tg8
I00
S'\xf2k\xa9<'
tbag4
(g5
(I0
tS'b'
tRp2484
(I1
(tg8
I00
S'2v\xa9<'
tbag4
(g5
(I0
tS'b'
tRp2485
(I1
(tg8
I00
S'\xa0\x91\xa9<'
tbag4
(g5
(I0
tS'b'
tRp2486
(I1
(tg8
I00
S'\xbah\xa9<'
tbag4
(g5
(I0
tS'b'
tRp2487
(I1
(tg8
I00
S'\xe8v\xa9<'
tbag4
(g5
(I0
tS'b'
tRp2488
(I1
(tg8
I00
S'3y\xa9<'
tbag4
(g5
(I0
tS'b'
tRp2489
(I1
(tg8
I00
S'?k\xa9<'
tbag4
(g5
(I0
tS'b'
tRp2490
(I1
(tg8
I00
S'\xa1_\xa9<'
tbag4
(g5
(I0
tS'b'
tRp2491
(I1
(tg8
I00
S'\xd4J\xa9<'
tbag4
(g5
(I0
tS'b'
tRp2492
(I1
(tg8
I00
S'zI\xa9<'
tbag4
(g5
(I0
tS'b'
tRp2493
(I1
(tg8
I00
S'\t\x83\xa9<'
tbag4
(g5
(I0
tS'b'
tRp2494
(I1
(tg8
I00
S'\x80C\xa9<'
tbag4
(g5
(I0
tS'b'
tRp2495
(I1
(tg8
I00
S'Xl\xa9<'
tbag4
(g5
(I0
tS'b'
tRp2496
(I1
(tg8
I00
S'\xf8\x86\xa9<'
tbag4
(g5
(I0
tS'b'
tRp2497
(I1
(tg8
I00
S'\\\xe0\xa9<'
tbag4
(g5
(I0
tS'b'
tRp2498
(I1
(tg8
I00
S'q)\xac<'
tbag4
(g5
(I0
tS'b'
tRp2499
(I1
(tg8
I00
S'6#\xbf<'
tbag4
(g5
(I0
tS'b'
tRp2500
(I1
(tg8
I00
S'4\xdb\xaf<'
tbag4
(g5
(I0
tS'b'
tRp2501
(I1
(tg8
I00
S'\xa4i\xac<'
tbag4
(g5
(I0
tS'b'
tRp2502
(I1
(tg8
I00
S'\x08@\xab<'
tbag4
(g5
(I0
tS'b'
tRp2503
(I1
(tg8
I00
S'\xef\xa1\xaa<'
tbag4
(g5
(I0
tS'b'
tRp2504
(I1
(tg8
I00
S'\t,\xaa<'
tbag4
(g5
(I0
tS'b'
tRp2505
(I1
(tg8
I00
S'\n\xf2\xa9<'
tbag4
(g5
(I0
tS'b'
tRp2506
(I1
(tg8
I00
S'\x8f\xd0\xa9<'
tbag4
(g5
(I0
tS'b'
tRp2507
(I1
(tg8
I00
S'\x92\x86\xa9<'
tbag4
(g5
(I0
tS'b'
tRp2508
(I1
(tg8
I00
S'\xa6\x9a\xa9<'
tbag4
(g5
(I0
tS'b'
tRp2509
(I1
(tg8
I00
S'op\xa9<'
tbag4
(g5
(I0
tS'b'
tRp2510
(I1
(tg8
I00
S')H\xa9<'
tbag4
(g5
(I0
tS'b'
tRp2511
(I1
(tg8
I00
S'\x9bp\xa9<'
tbag4
(g5
(I0
tS'b'
tRp2512
(I1
(tg8
I00
S'C^\xa9<'
tbag4
(g5
(I0
tS'b'
tRp2513
(I1
(tg8
I00
S'\xf1^\xa9<'
tbag4
(g5
(I0
tS'b'
tRp2514
(I1
(tg8
I00
S'mW\xa9<'
tbag4
(g5
(I0
tS'b'
tRp2515
(I1
(tg8
I00
S'NX\xa9<'
tbag4
(g5
(I0
tS'b'
tRp2516
(I1
(tg8
I00
S'\xd7$\xa9<'
tbag4
(g5
(I0
tS'b'
tRp2517
(I1
(tg8
I00
S')2\xa9<'
tbag4
(g5
(I0
tS'b'
tRp2518
(I1
(tg8
I00
S'\xbf<\xa9<'
tbag4
(g5
(I0
tS'b'
tRp2519
(I1
(tg8
I00
S'\xa1\x16\xa9<'
tbag4
(g5
(I0
tS'b'
tRp2520
(I1
(tg8
I00
S'-\x19\xa9<'
tbag4
(g5
(I0
tS'b'
tRp2521
(I1
(tg8
I00
S'\xf89\xa9<'
tbag4
(g5
(I0
tS'b'
tRp2522
(I1
(tg8
I00
S'\t\x19\xa9<'
tbag4
(g5
(I0
tS'b'
tRp2523
(I1
(tg8
I00
S'#\xf3\xa8<'
tbag4
(g5
(I0
tS'b'
tRp2524
(I1
(tg8
I00
S'\xa8\xea\xa8<'
tbag4
(g5
(I0
tS'b'
tRp2525
(I1
(tg8
I00
S'G\x1e\xa9<'
tbag4
(g5
(I0
tS'b'
tRp2526
(I1
(tg8
I00
S'\xa9\xec\xa8<'
tbag4
(g5
(I0
tS'b'
tRp2527
(I1
(tg8
I00
S'\xb4\xf7\xa8<'
tbag4
(g5
(I0
tS'b'
tRp2528
(I1
(tg8
I00
S'\xb5\xf7\xa8<'
tbag4
(g5
(I0
tS'b'
tRp2529
(I1
(tg8
I00
S'~\xde\xa8<'
tbag4
(g5
(I0
tS'b'
tRp2530
(I1
(tg8
I00
S'6\xd0\xa8<'
tbag4
(g5
(I0
tS'b'
tRp2531
(I1
(tg8
I00
S'B\xd1\xa8<'
tbag4
(g5
(I0
tS'b'
tRp2532
(I1
(tg8
I00
S'A\xe1\xa8<'
tbag4
(g5
(I0
tS'b'
tRp2533
(I1
(tg8
I00
S'\xfd\xdb\xa8<'
tbag4
(g5
(I0
tS'b'
tRp2534
(I1
(tg8
I00
S'\xbe\xac\xa8<'
tbag4
(g5
(I0
tS'b'
tRp2535
(I1
(tg8
I00
S'\xe9\xa7\xa8<'
tbag4
(g5
(I0
tS'b'
tRp2536
(I1
(tg8
I00
S'6\xdb\xa8<'
tbag4
(g5
(I0
tS'b'
tRp2537
(I1
(tg8
I00
S'\xf4\x8a\xa8<'
tbag4
(g5
(I0
tS'b'
tRp2538
(I1
(tg8
I00
S'\x12\xcc\xa8<'
tbag4
(g5
(I0
tS'b'
tRp2539
(I1
(tg8
I00
S'\xc7\xb1\xa8<'
tbag4
(g5
(I0
tS'b'
tRp2540
(I1
(tg8
I00
S'B\xce\xa8<'
tbag4
(g5
(I0
tS'b'
tRp2541
(I1
(tg8
I00
S'1\x8c\xa8<'
tbag4
(g5
(I0
tS'b'
tRp2542
(I1
(tg8
I00
S'\xbd\x9d\xa8<'
tbag4
(g5
(I0
tS'b'
tRp2543
(I1
(tg8
I00
S'\xac\xd8\xa8<'
tbag4
(g5
(I0
tS'b'
tRp2544
(I1
(tg8
I00
S'\xe6\x95\xa8<'
tbag4
(g5
(I0
tS'b'
tRp2545
(I1
(tg8
I00
S'g\xcd\xa8<'
tbag4
(g5
(I0
tS'b'
tRp2546
(I1
(tg8
I00
S'\xe8~\xa8<'
tbag4
(g5
(I0
tS'b'
tRp2547
(I1
(tg8
I00
S'M\xab\xa8<'
tbag4
(g5
(I0
tS'b'
tRp2548
(I1
(tg8
I00
S'Bl\xa8<'
tbag4
(g5
(I0
tS'b'
tRp2549
(I1
(tg8
I00
S'\xd0\x8e\xa8<'
tbag4
(g5
(I0
tS'b'
tRp2550
(I1
(tg8
I00
S'\x03\x85\xa8<'
tbag4
(g5
(I0
tS'b'
tRp2551
(I1
(tg8
I00
S'\xa9\x9f\xa8<'
tbag4
(g5
(I0
tS'b'
tRp2552
(I1
(tg8
I00
S'\xbd\xa7\xa8<'
tbag4
(g5
(I0
tS'b'
tRp2553
(I1
(tg8
I00
S'\xaa\xb0\xa8<'
tbag4
(g5
(I0
tS'b'
tRp2554
(I1
(tg8
I00
S'\xc3\xc9\xa8<'
tbag4
(g5
(I0
tS'b'
tRp2555
(I1
(tg8
I00
S'\xf0\t\xaa<'
tbag4
(g5
(I0
tS'b'
tRp2556
(I1
(tg8
I00
S'r<\xb3<'
tbag4
(g5
(I0
tS'b'
tRp2557
(I1
(tg8
I00
S'.\xdd\xa8<'
tbag4
(g5
(I0
tS'b'
tRp2558
(I1
(tg8
I00
S'\x9b\xad\xa8<'
tbag4
(g5
(I0
tS'b'
tRp2559
(I1
(tg8
I00
S'\x0e\xa4\xa8<'
tbag4
(g5
(I0
tS'b'
tRp2560
(I1
(tg8
I00
S'\x82\x9e\xa8<'
tbag4
(g5
(I0
tS'b'
tRp2561
(I1
(tg8
I00
S'\xbc\x90\xa8<'
tbag4
(g5
(I0
tS'b'
tRp2562
(I1
(tg8
I00
S'\xedb\xa8<'
tbag4
(g5
(I0
tS'b'
tRp2563
(I1
(tg8
I00
S'\xcfn\xa8<'
tbag4
(g5
(I0
tS'b'
tRp2564
(I1
(tg8
I00
S'\xf3n\xa8<'
tbag4
(g5
(I0
tS'b'
tRp2565
(I1
(tg8
I00
S'\xa9\x9e\xa8<'
tbag4
(g5
(I0
tS'b'
tRp2566
(I1
(tg8
I00
S'\xe5t\xa8<'
tbag4
(g5
(I0
tS'b'
tRp2567
(I1
(tg8
I00
S'\xce=\xa8<'
tbag4
(g5
(I0
tS'b'
tRp2568
(I1
(tg8
I00
S'\x15}\xa8<'
tbag4
(g5
(I0
tS'b'
tRp2569
(I1
(tg8
I00
S'\xb4N\xa8<'
tbag4
(g5
(I0
tS'b'
tRp2570
(I1
(tg8
I00
S'\x84R\xa8<'
tbag4
(g5
(I0
tS'b'
tRp2571
(I1
(tg8
I00
S'\xe1P\xa8<'
tbag4
(g5
(I0
tS'b'
tRp2572
(I1
(tg8
I00
S'\\i\xa8<'
tbag4
(g5
(I0
tS'b'
tRp2573
(I1
(tg8
I00
S'\xd2T\xa8<'
tbag4
(g5
(I0
tS'b'
tRp2574
(I1
(tg8
I00
S'rU\xa8<'
tbag4
(g5
(I0
tS'b'
tRp2575
(I1
(tg8
I00
S'\x01=\xa8<'
tbag4
(g5
(I0
tS'b'
tRp2576
(I1
(tg8
I00
S'\xcfZ\xa8<'
tbag4
(g5
(I0
tS'b'
tRp2577
(I1
(tg8
I00
S'kG\xa8<'
tbag4
(g5
(I0
tS'b'
tRp2578
(I1
(tg8
I00
S'R3\xa8<'
tbag4
(g5
(I0
tS'b'
tRp2579
(I1
(tg8
I00
S'OH\xa8<'
tbag4
(g5
(I0
tS'b'
tRp2580
(I1
(tg8
I00
S'e!\xa8<'
tbag4
(g5
(I0
tS'b'
tRp2581
(I1
(tg8
I00
S'\x8f\x16\xa8<'
tbag4
(g5
(I0
tS'b'
tRp2582
(I1
(tg8
I00
S'\xe0:\xa8<'
tbag4
(g5
(I0
tS'b'
tRp2583
(I1
(tg8
I00
S'\xa27\xa8<'
tbag4
(g5
(I0
tS'b'
tRp2584
(I1
(tg8
I00
S'>(\xa8<'
tbag4
(g5
(I0
tS'b'
tRp2585
(I1
(tg8
I00
S'[G\xa8<'
tbag4
(g5
(I0
tS'b'
tRp2586
(I1
(tg8
I00
S'j[\xa8<'
tbag4
(g5
(I0
tS'b'
tRp2587
(I1
(tg8
I00
S'\x1a\x8f\xa8<'
tbag4
(g5
(I0
tS'b'
tRp2588
(I1
(tg8
I00
S'\xa1\xee\xa9<'
tbag4
(g5
(I0
tS'b'
tRp2589
(I1
(tg8
I00
S'\xd8\xc8\xbe<'
tbag4
(g5
(I0
tS'b'
tRp2590
(I1
(tg8
I00
S'\xf2\t\xaf<'
tbag4
(g5
(I0
tS'b'
tRp2591
(I1
(tg8
I00
S'\xc9^\xab<'
tbag4
(g5
(I0
tS'b'
tRp2592
(I1
(tg8
I00
S'\x01\xcc\xaa<'
tbag4
(g5
(I0
tS'b'
tRp2593
(I1
(tg8
I00
S'J\xe7\xa9<'
tbag4
(g5
(I0
tS'b'
tRp2594
(I1
(tg8
I00
S'\x19h\xa9<'
tbag4
(g5
(I0
tS'b'
tRp2595
(I1
(tg8
I00
S'\xea2\xa9<'
tbag4
(g5
(I0
tS'b'
tRp2596
(I1
(tg8
I00
S'\x14\xf5\xa8<'
tbag4
(g5
(I0
tS'b'
tRp2597
(I1
(tg8
I00
S"'\xf1\xa8<"
tbag4
(g5
(I0
tS'b'
tRp2598
(I1
(tg8
I00
S'x\xc2\xa8<'
tbag4
(g5
(I0
tS'b'
tRp2599
(I1
(tg8
I00
S'\xda\x98\xa8<'
tbag4
(g5
(I0
tS'b'
tRp2600
(I1
(tg8
I00
S'\x82\x99\xa8<'
tbag4
(g5
(I0
tS'b'
tRp2601
(I1
(tg8
I00
S'\xd7]\xa8<'
tbag4
(g5
(I0
tS'b'
tRp2602
(I1
(tg8
I00
S'1b\xa8<'
tbag4
(g5
(I0
tS'b'
tRp2603
(I1
(tg8
I00
S'\x9ek\xa8<'
tbag4
(g5
(I0
tS'b'
tRp2604
(I1
(tg8
I00
S'\xa7\x81\xa8<'
tbag4
(g5
(I0
tS'b'
tRp2605
(I1
(tg8
I00
S'Ya\xa8<'
tbag4
(g5
(I0
tS'b'
tRp2606
(I1
(tg8
I00
S'cX\xa8<'
tbag4
(g5
(I0
tS'b'
tRp2607
(I1
(tg8
I00
S'\xb0)\xa8<'
tbag4
(g5
(I0
tS'b'
tRp2608
(I1
(tg8
I00
S'\x068\xa8<'
tbag4
(g5
(I0
tS'b'
tRp2609
(I1
(tg8
I00
S'w/\xa8<'
tbag4
(g5
(I0
tS'b'
tRp2610
(I1
(tg8
I00
S'\xfbX\xa8<'
tbag4
(g5
(I0
tS'b'
tRp2611
(I1
(tg8
I00
S'\xeb2\xa8<'
tbag4
(g5
(I0
tS'b'
tRp2612
(I1
(tg8
I00
S'\xc2\x18\xa8<'
tbag4
(g5
(I0
tS'b'
tRp2613
(I1
(tg8
I00
S'\xd8*\xa8<'
tbag4
(g5
(I0
tS'b'
tRp2614
(I1
(tg8
I00
S'\x85>\xa8<'
tbag4
(g5
(I0
tS'b'
tRp2615
(I1
(tg8
I00
S'd\x1c\xa8<'
tbag4
(g5
(I0
tS'b'
tRp2616
(I1
(tg8
I00
S'\xe6\x9d\xa7<'
tbag4
(g5
(I0
tS'b'
tRp2617
(I1
(tg8
I00
S'\xec\x0f\xa8<'
tbag4
(g5
(I0
tS'b'
tRp2618
(I1
(tg8
I00
S'\x0e\x0f\xa8<'
tbag4
(g5
(I0
tS'b'
tRp2619
(I1
(tg8
I00
S'\xce?\xa8<'
tbag4
(g5
(I0
tS'b'
tRp2620
(I1
(tg8
I00
S'P\x03\xa8<'
tbag4
(g5
(I0
tS'b'
tRp2621
(I1
(tg8
I00
S'\xf5\x1d\xa8<'
tbag4
(g5
(I0
tS'b'
tRp2622
(I1
(tg8
I00
S'\x95\x0f\xa8<'
tbag4
(g5
(I0
tS'b'
tRp2623
(I1
(tg8
I00
S'Y&\xa8<'
tbag4
(g5
(I0
tS'b'
tRp2624
(I1
(tg8
I00
S'\n\x10\xa8<'
tbag4
(g5
(I0
tS'b'
tRp2625
(I1
(tg8
I00
S'K\x11\xa8<'
tbag4
(g5
(I0
tS'b'
tRp2626
(I1
(tg8
I00
S'\x87\x08\xa8<'
tbag4
(g5
(I0
tS'b'
tRp2627
(I1
(tg8
I00
S'\xc1\xf8\xa7<'
tbag4
(g5
(I0
tS'b'
tRp2628
(I1
(tg8
I00
S'\xaa\xee\xa7<'
tbag4
(g5
(I0
tS'b'
tRp2629
(I1
(tg8
I00
S'\x89\x06\xa8<'
tbag4
(g5
(I0
tS'b'
tRp2630
(I1
(tg8
I00
S'\xb2\xe5\xa7<'
tbag4
(g5
(I0
tS'b'
tRp2631
(I1
(tg8
I00
S'\xd0\x10\xa8<'
tbag4
(g5
(I0
tS'b'
tRp2632
(I1
(tg8
I00
S'L\x06\xa8<'
tbag4
(g5
(I0
tS'b'
tRp2633
(I1
(tg8
I00
S'\xc8\x0f\xa8<'
tbag4
(g5
(I0
tS'b'
tRp2634
(I1
(tg8
I00
S'\xef\xbe\xa7<'
tbag4
(g5
(I0
tS'b'
tRp2635
(I1
(tg8
I00
S'\xcd\xd5\xa7<'
tbag4
(g5
(I0
tS'b'
tRp2636
(I1
(tg8
I00
S'\x92\xfe\xa7<'
tbag4
(g5
(I0
tS'b'
tRp2637
(I1
(tg8
I00
S'P\xf9\xa7<'
tbag4
(g5
(I0
tS'b'
tRp2638
(I1
(tg8
I00
S'\x03\xe2\xa7<'
tbag4
(g5
(I0
tS'b'
tRp2639
(I1
(tg8
I00
S'\x0b\x0b\xa8<'
tbag4
(g5
(I0
tS'b'
tRp2640
(I1
(tg8
I00
S'\xbc\xe8\xa7<'
tbag4
(g5
(I0
tS'b'
tRp2641
(I1
(tg8
I00
S'P\xd5\xa7<'
tbag4
(g5
(I0
tS'b'
tRp2642
(I1
(tg8
I00
S'\x0b\xd1\xa7<'
tbag4
(g5
(I0
tS'b'
tRp2643
(I1
(tg8
I00
S'\xd3\xd1\xa7<'
tbag4
(g5
(I0
tS'b'
tRp2644
(I1
(tg8
I00
S'\xc4\xfe\xa7<'
tbag4
(g5
(I0
tS'b'
tRp2645
(I1
(tg8
I00
S'\xc5\xd6\xa7<'
tbag4
(g5
(I0
tS'b'
tRp2646
(I1
(tg8
I00
S'\xc2\xcc\xa7<'
tbag4
(g5
(I0
tS'b'
tRp2647
(I1
(tg8
I00
S'-\xc5\xa7<'
tbag4
(g5
(I0
tS'b'
tRp2648
(I1
(tg8
I00
S'\xb0\xcc\xa7<'
tbag4
(g5
(I0
tS'b'
tRp2649
(I1
(tg8
I00
S'\xbf\xdf\xa7<'
tbag4
(g5
(I0
tS'b'
tRp2650
(I1
(tg8
I00
S'p;\xa8<'
tbag4
(g5
(I0
tS'b'
tRp2651
(I1
(tg8
I00
S')\xce\xa7<'
tbag4
(g5
(I0
tS'b'
tRp2652
(I1
(tg8
I00
S'\xc8\xd4\xa7<'
tbag4
(g5
(I0
tS'b'
tRp2653
(I1
(tg8
I00
S'Z\xc2\xa7<'
tbag4
(g5
(I0
tS'b'
tRp2654
(I1
(tg8
I00
S'\x99\xa3\xa7<'
tbag4
(g5
(I0
tS'b'
tRp2655
(I1
(tg8
I00
S'-\xc5\xa7<'
tbag4
(g5
(I0
tS'b'
tRp2656
(I1
(tg8
I00
S'\xca\xbe\xa7<'
tbag4
(g5
(I0
tS'b'
tRp2657
(I1
(tg8
I00
S'\x90\xd1\xa7<'
tbag4
(g5
(I0
tS'b'
tRp2658
(I1
(tg8
I00
S'\xed\xe3\xa7<'
tbag4
(g5
(I0
tS'b'
tRp2659
(I1
(tg8
I00
S'\x87\xb1\xa7<'
tbag4
(g5
(I0
tS'b'
tRp2660
(I1
(tg8
I00
S'\xd2\xd5\xa7<'
tbag4
(g5
(I0
tS'b'
tRp2661
(I1
(tg8
I00
S'\xc8\xd2\xa7<'
tbag4
(g5
(I0
tS'b'
tRp2662
(I1
(tg8
I00
S'T\xb2\xa7<'
tbag4
(g5
(I0
tS'b'
tRp2663
(I1
(tg8
I00
S'\xf6\xaa\xa7<'
tbag4
(g5
(I0
tS'b'
tRp2664
(I1
(tg8
I00
S'\xb8\x93\xa7<'
tbag4
(g5
(I0
tS'b'
tRp2665
(I1
(tg8
I00
S'\x0e\xb0\xa7<'
tbag4
(g5
(I0
tS'b'
tRp2666
(I1
(tg8
I00
S'\x14\xc9\xa7<'
tbag4
(g5
(I0
tS'b'
tRp2667
(I1
(tg8
I00
S'g\xef\xa7<'
tbag4
(g5
(I0
tS'b'
tRp2668
(I1
(tg8
I00
S'_\x14\xa9<'
tbag4
(g5
(I0
tS'b'
tRp2669
(I1
(tg8
I00
S'\x88\x07\xb1<'
tbag4
(g5
(I0
tS'b'
tRp2670
(I1
(tg8
I00
S'\xeb\xc8\xe5<'
tbag4
(g5
(I0
tS'b'
tRp2671
(I1
(tg8
I00
S'\xd4\x9a\x80='
tbag4
(g5
(I0
tS'b'
tRp2672
(I1
(tg8
I00
S'\x1fC\xb0<'
tbag4
(g5
(I0
tS'b'
tRp2673
(I1
(tg8
I00
S'7\x8a\xa9<'
tbag4
(g5
(I0
tS'b'
tRp2674
(I1
(tg8
I00
S'?,\xa9<'
tbag4
(g5
(I0
tS'b'
tRp2675
(I1
(tg8
I00
S'/\\\xa9<'
tbag4
(g5
(I0
tS'b'
tRp2676
(I1
(tg8
I00
S'\x94\x08\xa9<'
tbag4
(g5
(I0
tS'b'
tRp2677
(I1
(tg8
I00
S'-\xf4\xa8<'
tbag4
(g5
(I0
tS'b'
tRp2678
(I1
(tg8
I00
S'\x99\xb6\xa8<'
tbag4
(g5
(I0
tS'b'
tRp2679
(I1
(tg8
I00
S'\xd1\xc2\xa8<'
tbag4
(g5
(I0
tS'b'
tRp2680
(I1
(tg8
I00
S'^\xa6\xa8<'
tbag4
(g5
(I0
tS'b'
tRp2681
(I1
(tg8
I00
S'\xdfr\xa8<'
tbag4
(g5
(I0
tS'b'
tRp2682
(I1
(tg8
I00
S'\xdc\x8e\xa8<'
tbag4
(g5
(I0
tS'b'
tRp2683
(I1
(tg8
I00
S'\xd6r\xa8<'
tbag4
(g5
(I0
tS'b'
tRp2684
(I1
(tg8
I00
S'\xe6|\xa8<'
tbag4
(g5
(I0
tS'b'
tRp2685
(I1
(tg8
I00
S'L?\xa8<'
tbag4
(g5
(I0
tS'b'
tRp2686
(I1
(tg8
I00
S'a!\xa8<'
tbag4
(g5
(I0
tS'b'
tRp2687
(I1
(tg8
I00
S'PJ\xa8<'
tbag4
(g5
(I0
tS'b'
tRp2688
(I1
(tg8
I00
S'`\x16\xa8<'
tbag4
(g5
(I0
tS'b'
tRp2689
(I1
(tg8
I00
S'\xad3\xa8<'
tbag4
(g5
(I0
tS'b'
tRp2690
(I1
(tg8
I00
S'\x92:\xa8<'
tbag4
(g5
(I0
tS'b'
tRp2691
(I1
(tg8
I00
S'\x92/\xa8<'
tbag4
(g5
(I0
tS'b'
tRp2692
(I1
(tg8
I00
S'\rS\xa8<'
tbag4
(g5
(I0
tS'b'
tRp2693
(I1
(tg8
I00
S'-=\xa8<'
tbag4
(g5
(I0
tS'b'
tRp2694
(I1
(tg8
I00
S'A\x0f\xa8<'
tbag4
(g5
(I0
tS'b'
tRp2695
(I1
(tg8
I00
S'_=\xa8<'
tbag4
(g5
(I0
tS'b'
tRp2696
(I1
(tg8
I00
S'\xb2\x04\xa8<'
tbag4
(g5
(I0
tS'b'
tRp2697
(I1
(tg8
I00
S'\xb1\xf5\xa7<'
tbag4
(g5
(I0
tS'b'
tRp2698
(I1
(tg8
I00
S'\xe0\r\xa8<'
tbag4
(g5
(I0
tS'b'
tRp2699
(I1
(tg8
I00
S'\x94\n\xa8<'
tbag4
(g5
(I0
tS'b'
tRp2700
(I1
(tg8
I00
S'o\x01\xa8<'
tbag4
(g5
(I0
tS'b'
tRp2701
(I1
(tg8
I00
S'f\x05\xa8<'
tbag4
(g5
(I0
tS'b'
tRp2702
(I1
(tg8
I00
S'L\xdf\xa7<'
tbag4
(g5
(I0
tS'b'
tRp2703
(I1
(tg8
I00
S'!\xe4\xa7<'
tbag4
(g5
(I0
tS'b'
tRp2704
(I1
(tg8
I00
S'\x0f\xe1\xa7<'
tbag4
(g5
(I0
tS'b'
tRp2705
(I1
(tg8
I00
S'l\x1b\xa8<'
tbag4
(g5
(I0
tS'b'
tRp2706
(I1
(tg8
I00
S'\x8a\xf6\xa7<'
tbag4
(g5
(I0
tS'b'
tRp2707
(I1
(tg8
I00
S'\xf8\xf1\xa7<'
tbag4
(g5
(I0
tS'b'
tRp2708
(I1
(tg8
I00
S'\xc6\xc3\xa7<'
tbag4
(g5
(I0
tS'b'
tRp2709
(I1
(tg8
I00
S'\xce\xe9\xa7<'
tbag4
(g5
(I0
tS'b'
tRp2710
(I1
(tg8
I00
S'\x7f\x14\xa8<'
tbag4
(g5
(I0
tS'b'
tRp2711
(I1
(tg8
I00
S'\xd8\xe4\xa7<'
tbag4
(g5
(I0
tS'b'
tRp2712
(I1
(tg8
I00
S'\xce\xcb\xa7<'
tbag4
(g5
(I0
tS'b'
tRp2713
(I1
(tg8
I00
S'.\xd4\xa7<'
tbag4
(g5
(I0
tS'b'
tRp2714
(I1
(tg8
I00
S'\r\xe6\xa7<'
tbag4
(g5
(I0
tS'b'
tRp2715
(I1
(tg8
I00
S'\xa9\xf2\xa7<'
tbag4
(g5
(I0
tS'b'
tRp2716
(I1
(tg8
I00
S'(\xc6\xa7<'
tbag4
(g5
(I0
tS'b'
tRp2717
(I1
(tg8
I00
S'\xc7\xdc\xa7<'
tbag4
(g5
(I0
tS'b'
tRp2718
(I1
(tg8
I00
S'\n\xe3\xa7<'
tbag4
(g5
(I0
tS'b'
tRp2719
(I1
(tg8
I00
S'\xd2\xaf\xa7<'
tbag4
(g5
(I0
tS'b'
tRp2720
(I1
(tg8
I00
S'n\xe7\xa7<'
tbag4
(g5
(I0
tS'b'
tRp2721
(I1
(tg8
I00
S'\xca\xc9\xa7<'
tbag4
(g5
(I0
tS'b'
tRp2722
(I1
(tg8
I00
S'\xd0\xe4\xa7<'
tbag4
(g5
(I0
tS'b'
tRp2723
(I1
(tg8
I00
S'\x0f\xcf\xa7<'
tbag4
(g5
(I0
tS'b'
tRp2724
(I1
(tg8
I00
S'\xd8\xc3\xa7<'
tbag4
(g5
(I0
tS'b'
tRp2725
(I1
(tg8
I00
S'\xcb\xd6\xa7<'
tbag4
(g5
(I0
tS'b'
tRp2726
(I1
(tg8
I00
S'\xa8\xa6\xa7<'
tbag4
(g5
(I0
tS'b'
tRp2727
(I1
(tg8
I00
S'\xaf\xb1\xa7<'
tbag4
(g5
(I0
tS'b'
tRp2728
(I1
(tg8
I00
S'_\xe0\xa7<'
tbag4
(g5
(I0
tS'b'
tRp2729
(I1
(tg8
I00
S'\xe4\xb7\xa7<'
tbag4
(g5
(I0
tS'b'
tRp2730
(I1
(tg8
I00
S'\x89\xdb\xa7<'
tbag4
(g5
(I0
tS'b'
tRp2731
(I1
(tg8
I00
S'\xb7\xcb\xa7<'
tbag4
(g5
(I0
tS'b'
tRp2732
(I1
(tg8
I00
S'S\xc7\xa7<'
tbag4
(g5
(I0
tS'b'
tRp2733
(I1
(tg8
I00
S't\xbb\xa7<'
tbag4
(g5
(I0
tS'b'
tRp2734
(I1
(tg8
I00
S'\x0b\xa7\xa7<'
tbag4
(g5
(I0
tS'b'
tRp2735
(I1
(tg8
I00
S'\x82w\xa7<'
tbag4
(g5
(I0
tS'b'
tRp2736
(I1
(tg8
I00
S'\xcf\xa2\xa7<'
tbag4
(g5
(I0
tS'b'
tRp2737
(I1
(tg8
I00
S'\xc8\x98\xa7<'
tbag4
(g5
(I0
tS'b'
tRp2738
(I1
(tg8
I00
S'D\xbd\xa7<'
tbag4
(g5
(I0
tS'b'
tRp2739
(I1
(tg8
I00
S'\xfb\xd0\xa7<'
tbag4
(g5
(I0
tS'b'
tRp2740
(I1
(tg8
I00
S'\xfa\x9b\xa7<'
tbag4
(g5
(I0
tS'b'
tRp2741
(I1
(tg8
I00
S'\\\xb0\xa7<'
tbag4
(g5
(I0
tS'b'
tRp2742
(I1
(tg8
I00
S'\xdf\xaa\xa7<'
tbag4
(g5
(I0
tS'b'
tRp2743
(I1
(tg8
I00
S'r\xbf\xa7<'
tbag4
(g5
(I0
tS'b'
tRp2744
(I1
(tg8
I00
S'\xe7\x8d\xa7<'
tbag4
(g5
(I0
tS'b'
tRp2745
(I1
(tg8
I00
S'\xe6\x93\xa7<'
tbag4
(g5
(I0
tS'b'
tRp2746
(I1
(tg8
I00
S',\xc2\xa7<'
tbag4
(g5
(I0
tS'b'
tRp2747
(I1
(tg8
I00
S'n\x95\xa7<'
tbag4
(g5
(I0
tS'b'
tRp2748
(I1
(tg8
I00
S'@\xc1\xa7<'
tbag4
(g5
(I0
tS'b'
tRp2749
(I1
(tg8
I00
S'R\xa1\xa7<'
tbag4
(g5
(I0
tS'b'
tRp2750
(I1
(tg8
I00
S'\xc2\x99\xa7<'
tbag4
(g5
(I0
tS'b'
tRp2751
(I1
(tg8
I00
S'\xa8\xa9\xa7<'
tbag4
(g5
(I0
tS'b'
tRp2752
(I1
(tg8
I00
S'k\x97\xa7<'
tbag4
(g5
(I0
tS'b'
tRp2753
(I1
(tg8
I00
S'\xff\x8f\xa7<'
tbag4
(g5
(I0
tS'b'
tRp2754
(I1
(tg8
I00
S'\x87\x95\xa7<'
tbag4
(g5
(I0
tS'b'
tRp2755
(I1
(tg8
I00
S'\x94\x97\xa7<'
tbag4
(g5
(I0
tS'b'
tRp2756
(I1
(tg8
I00
S'\xa0\x95\xa7<'
tbag4
(g5
(I0
tS'b'
tRp2757
(I1
(tg8
I00
S'\x1f\xa7\xa7<'
tbag4
(g5
(I0
tS'b'
tRp2758
(I1
(tg8
I00
S'g\x8f\xa7<'
tbag4
(g5
(I0
tS'b'
tRp2759
(I1
(tg8
I00
S'P\xc3\xa7<'
tbag4
(g5
(I0
tS'b'
tRp2760
(I1
(tg8
I00
S'W\xcf\xa7<'
tbag4
(g5
(I0
tS'b'
tRp2761
(I1
(tg8
I00
S'\x0b\xfa\xa7<'
tbag4
(g5
(I0
tS'b'
tRp2762
(I1
(tg8
I00
S'\x87\xbc\xa7<'
tbag4
(g5
(I0
tS'b'
tRp2763
(I1
(tg8
I00
S'H\x88\xa7<'
tbag4
(g5
(I0
tS'b'
tRp2764
(I1
(tg8
I00
S'\x17\xaf\xa7<'
tbag4
(g5
(I0
tS'b'
tRp2765
(I1
(tg8
I00
S'`~\xa7<'
tbag4
(g5
(I0
tS'b'
tRp2766
(I1
(tg8
I00
S'\x9a\x8d\xa7<'
tbag4
(g5
(I0
tS'b'
tRp2767
(I1
(tg8
I00
S'\x1eQ\xa7<'
tbag4
(g5
(I0
tS'b'
tRp2768
(I1
(tg8
I00
S'\xfbt\xa7<'
tbag4
(g5
(I0
tS'b'
tRp2769
(I1
(tg8
I00
S'C\x8a\xa7<'
tbag4
(g5
(I0
tS'b'
tRp2770
(I1
(tg8
I00
S'\xf2\x93\xa7<'
tbag4
(g5
(I0
tS'b'
tRp2771
(I1
(tg8
I00
S'@\xd1\xa7<'
tbag4
(g5
(I0
tS'b'
tRp2772
(I1
(tg8
I00
S'\x94\x95\xa7<'
tbag4
(g5
(I0
tS'b'
tRp2773
(I1
(tg8
I00
S'\x14\xcd\xa7<'
tbag4
(g5
(I0
tS'b'
tRp2774
(I1
(tg8
I00
S'q\xb3\xa7<'
tbag4
(g5
(I0
tS'b'
tRp2775
(I1
(tg8
I00
S'_\xc8\xa7<'
tbag4
(g5
(I0
tS'b'
tRp2776
(I1
(tg8
I00
S' \xb5\xa7<'
tbag4
(g5
(I0
tS'b'
tRp2777
(I1
(tg8
I00
S'\xe1\xb0\xa7<'
tbag4
(g5
(I0
tS'b'
tRp2778
(I1
(tg8
I00
S'\xa4\x91\xa7<'
tbag4
(g5
(I0
tS'b'
tRp2779
(I1
(tg8
I00
S'\xfe\x89\xa7<'
tbag4
(g5
(I0
tS'b'
tRp2780
(I1
(tg8
I00
S'`\x8b\xa7<'
tbag4
(g5
(I0
tS'b'
tRp2781
(I1
(tg8
I00
S'\xc6a\xa7<'
tbag4
(g5
(I0
tS'b'
tRp2782
(I1
(tg8
I00
S'T~\xa7<'
tbag4
(g5
(I0
tS'b'
tRp2783
(I1
(tg8
I00
S'\xb3l\xa7<'
tbag4
(g5
(I0
tS'b'
tRp2784
(I1
(tg8
I00
S'\xaca\xa7<'
tbag4
(g5
(I0
tS'b'
tRp2785
(I1
(tg8
I00
S'\xfb\x9c\xa7<'
tbag4
(g5
(I0
tS'b'
tRp2786
(I1
(tg8
I00
S'\x97\x89\xa7<'
tbag4
(g5
(I0
tS'b'
tRp2787
(I1
(tg8
I00
S'eW\xa7<'
tbag4
(g5
(I0
tS'b'
tRp2788
(I1
(tg8
I00
S' \x90\xa7<'
tbag4
(g5
(I0
tS'b'
tRp2789
(I1
(tg8
I00
S'\xbao\xa7<'
tbag4
(g5
(I0
tS'b'
tRp2790
(I1
(tg8
I00
S'\xd3\x88\xa7<'
tbag4
(g5
(I0
tS'b'
tRp2791
(I1
(tg8
I00
S'\x80\xdf\xa7<'
tbag4
(g5
(I0
tS'b'
tRp2792
(I1
(tg8
I00
S'\xecs\xa8<'
tbag4
(g5
(I0
tS'b'
tRp2793
(I1
(tg8
I00
S'hX\xa8<'
tbag4
(g5
(I0
tS'b'
tRp2794
(I1
(tg8
I00
S'\xc0s\xa7<'
tbag4
(g5
(I0
tS'b'
tRp2795
(I1
(tg8
I00
S'mo\xa7<'
tbag4
(g5
(I0
tS'b'
tRp2796
(I1
(tg8
I00
S'\xe3\x9a\xa7<'
tbag4
(g5
(I0
tS'b'
tRp2797
(I1
(tg8
I00
S'\xf8_\xa7<'
tbag4
(g5
(I0
tS'b'
tRp2798
(I1
(tg8
I00
S'\xfeJ\xa7<'
tbag4
(g5
(I0
tS'b'
tRp2799
(I1
(tg8
I00
S"'\x9c\xa7<"
tbag4
(g5
(I0
tS'b'
tRp2800
(I1
(tg8
I00
S'\xbe\x8a\xa7<'
tbag4
(g5
(I0
tS'b'
tRp2801
(I1
(tg8
I00
S'\x8da\xa7<'
tbag4
(g5
(I0
tS'b'
tRp2802
(I1
(tg8
I00
S'\xfdY\xa7<'
tbag4
(g5
(I0
tS'b'
tRp2803
(I1
(tg8
I00
S'sM\xa7<'
tbag4
(g5
(I0
tS'b'
tRp2804
(I1
(tg8
I00
S'\x9fa\xa7<'
tbag4
(g5
(I0
tS'b'
tRp2805
(I1
(tg8
I00
S'$r\xa7<'
tbag4
(g5
(I0
tS'b'
tRp2806
(I1
(tg8
I00
S'\xf7X\xa7<'
tbag4
(g5
(I0
tS'b'
tRp2807
(I1
(tg8
I00
S'\xa0z\xa7<'
tbag4
(g5
(I0
tS'b'
tRp2808
(I1
(tg8
I00
S'\xf9K\xa7<'
tbag4
(g5
(I0
tS'b'
tRp2809
(I1
(tg8
I00
S'4\x86\xa7<'
tbag4
(g5
(I0
tS'b'
tRp2810
(I1
(tg8
I00
S'\xb6<\xa7<'
tbag4
(g5
(I0
tS'b'
tRp2811
(I1
(tg8
I00
S'wr\xa7<'
tbag4
(g5
(I0
tS'b'
tRp2812
(I1
(tg8
I00
S'\x0fP\xa7<'
tbag4
(g5
(I0
tS'b'
tRp2813
(I1
(tg8
I00
S'\xd9i\xa7<'
tbag4
(g5
(I0
tS'b'
tRp2814
(I1
(tg8
I00
S'?\\\xa7<'
tbag4
(g5
(I0
tS'b'
tRp2815
(I1
(tg8
I00
S'\x1bQ\xa7<'
tbag4
(g5
(I0
tS'b'
tRp2816
(I1
(tg8
I00
S'\x82\x84\xa7<'
tbag4
(g5
(I0
tS'b'
tRp2817
(I1
(tg8
I00
S'p~\xa7<'
tbag4
(g5
(I0
tS'b'
tRp2818
(I1
(tg8
I00
S'\xf3a\xa7<'
tbag4
(g5
(I0
tS'b'
tRp2819
(I1
(tg8
I00
S'\x91y\xa7<'
tbag4
(g5
(I0
tS'b'
tRp2820
(I1
(tg8
I00
S'{k\xa7<'
tbag4
(g5
(I0
tS'b'
tRp2821
(I1
(tg8
I00
S'\x01\x85\xa7<'
tbag4
(g5
(I0
tS'b'
tRp2822
(I1
(tg8
I00
S'\xe0\x95\xa7<'
tbag4
(g5
(I0
tS'b'
tRp2823
(I1
(tg8
I00
S'`\xba\xa7<'
tbag4
(g5
(I0
tS'b'
tRp2824
(I1
(tg8
I00
S'P\x0c\xa8<'
tbag4
(g5
(I0
tS'b'
tRp2825
(I1
(tg8
I00
S'\x99\xaa\xa7<'
tbag4
(g5
(I0
tS'b'
tRp2826
(I1
(tg8
I00
S'\xe1_\xa7<'
tbag4
(g5
(I0
tS'b'
tRp2827
(I1
(tg8
I00
S'\x96Z\xa7<'
tbag4
(g5
(I0
tS'b'
tRp2828
(I1
(tg8
I00
S'\x8bC\xa7<'
tbag4
(g5
(I0
tS'b'
tRp2829
(I1
(tg8
I00
S'\xd7B\xa7<'
tbag4
(g5
(I0
tS'b'
tRp2830
(I1
(tg8
I00
S'[I\xa7<'
tbag4
(g5
(I0
tS'b'
tRp2831
(I1
(tg8
I00
S't-\xa7<'
tbag4
(g5
(I0
tS'b'
tRp2832
(I1
(tg8
I00
S'\xfcw\xa7<'
tbag4
(g5
(I0
tS'b'
tRp2833
(I1
(tg8
I00
S'\xf7T\xa7<'
tbag4
(g5
(I0
tS'b'
tRp2834
(I1
(tg8
I00
S'`b\xa7<'
tbag4
(g5
(I0
tS'b'
tRp2835
(I1
(tg8
I00
S'\x84A\xa7<'
tbag4
(g5
(I0
tS'b'
tRp2836
(I1
(tg8
I00
S'\x1cD\xa7<'
tbag4
(g5
(I0
tS'b'
tRp2837
(I1
(tg8
I00
S'\xa1w\xa7<'
tbag4
(g5
(I0
tS'b'
tRp2838
(I1
(tg8
I00
S'-F\xa7<'
tbag4
(g5
(I0
tS'b'
tRp2839
(I1
(tg8
I00
S'\x9f7\xa7<'
tbag4
(g5
(I0
tS'b'
tRp2840
(I1
(tg8
I00
S'\xa1k\xa7<'
tbag4
(g5
(I0
tS'b'
tRp2841
(I1
(tg8
I00
S'\xa1p\xa7<'
tbag4
(g5
(I0
tS'b'
tRp2842
(I1
(tg8
I00
S'zI\xa7<'
tbag4
(g5
(I0
tS'b'
tRp2843
(I1
(tg8
I00
S'\xf1d\xa7<'
tbag4
(g5
(I0
tS'b'
tRp2844
(I1
(tg8
I00
S'.w\xa7<'
tbag4
(g5
(I0
tS'b'
tRp2845
(I1
(tg8
I00
S'\x01s\xa7<'
tbag4
(g5
(I0
tS'b'
tRp2846
(I1
(tg8
I00
S'\xb8O\xa7<'
tbag4
(g5
(I0
tS'b'
tRp2847
(I1
(tg8
I00
S'\x9dK\xa7<'
tbag4
(g5
(I0
tS'b'
tRp2848
(I1
(tg8
I00
S'48\xa7<'
tbag4
(g5
(I0
tS'b'
tRp2849
(I1
(tg8
I00
S'\xdb@\xa7<'
tbag4
(g5
(I0
tS'b'
tRp2850
(I1
(tg8
I00
S'BD\xa7<'
tbag4
(g5
(I0
tS'b'
tRp2851
(I1
(tg8
I00
S'5e\xa7<'
tbag4
(g5
(I0
tS'b'
tRp2852
(I1
(tg8
I00
S'&c\xa7<'
tbag4
(g5
(I0
tS'b'
tRp2853
(I1
(tg8
I00
S'S\x87\xa7<'
tbag4
(g5
(I0
tS'b'
tRp2854
(I1
(tg8
I00
S'\xda\xb1\xa7<'
tbag4
(g5
(I0
tS'b'
tRp2855
(I1
(tg8
I00
S'\x8do\xa7<'
tbag4
(g5
(I0
tS'b'
tRp2856
(I1
(tg8
I00
S'!\x88\xa7<'
tbag4
(g5
(I0
tS'b'
tRp2857
(I1
(tg8
I00
S'\x8eD\xa7<'
tbag4
(g5
(I0
tS'b'
tRp2858
(I1
(tg8
I00
S'<7\xa7<'
tbag4
(g5
(I0
tS'b'
tRp2859
(I1
(tg8
I00
S'\x7f?\xa7<'
tbag4
(g5
(I0
tS'b'
tRp2860
(I1
(tg8
I00
S'\xbcZ\xa7<'
tbag4
(g5
(I0
tS'b'
tRp2861
(I1
(tg8
I00
S';_\xa7<'
tbag4
(g5
(I0
tS'b'
tRp2862
(I1
(tg8
I00
S'#"\xa7<'
tbag4
(g5
(I0
tS'b'
tRp2863
(I1
(tg8
I00
S'\x99R\xa7<'
tbag4
(g5
(I0
tS'b'
tRp2864
(I1
(tg8
I00
S'~`\xa7<'
tbag4
(g5
(I0
tS'b'
tRp2865
(I1
(tg8
I00
S'a.\xa7<'
tbag4
(g5
(I0
tS'b'
tRp2866
(I1
(tg8
I00
S'BC\xa7<'
tbag4
(g5
(I0
tS'b'
tRp2867
(I1
(tg8
I00
S'\xd15\xa7<'
tbag4
(g5
(I0
tS'b'
tRp2868
(I1
(tg8
I00
S'\xba(\xa7<'
tbag4
(g5
(I0
tS'b'
tRp2869
(I1
(tg8
I00
S'aO\xa7<'
tbag4
(g5
(I0
tS'b'
tRp2870
(I1
(tg8
I00
S'(!\xa7<'
tbag4
(g5
(I0
tS'b'
tRp2871
(I1
(tg8
I00
S'lP\xa7<'
tbag4
(g5
(I0
tS'b'
tRp2872
(I1
(tg8
I00
S'{J\xa7<'
tbag4
(g5
(I0
tS'b'
tRp2873
(I1
(tg8
I00
S'\xcdq\xa7<'
tbag4
(g5
(I0
tS'b'
tRp2874
(I1
(tg8
I00
S'\x9f3\xa7<'
tbag4
(g5
(I0
tS'b'
tRp2875
(I1
(tg8
I00
S'5K\xa7<'
tbag4
(g5
(I0
tS'b'
tRp2876
(I1
(tg8
I00
S'\x81K\xa7<'
tbag4
(g5
(I0
tS'b'
tRp2877
(I1
(tg8
I00
S'\xca\x18\xa7<'
tbag4
(g5
(I0
tS'b'
tRp2878
(I1
(tg8
I00
S'm!\xa7<'
tbag4
(g5
(I0
tS'b'
tRp2879
(I1
(tg8
I00
S'ND\xa7<'
tbag4
(g5
(I0
tS'b'
tRp2880
(I1
(tg8
I00
S'h5\xa7<'
tbag4
(g5
(I0
tS'b'
tRp2881
(I1
(tg8
I00
S'\xad\xab\xa7<'
tbag4
(g5
(I0
tS'b'
tRp2882
(I1
(tg8
I00
S'\x9c\x94\xa7<'
tbag4
(g5
(I0
tS'b'
tRp2883
(I1
(tg8
I00
S'CP\xa7<'
tbag4
(g5
(I0
tS'b'
tRp2884
(I1
(tg8
I00
S'\x05X\xa7<'
tbag4
(g5
(I0
tS'b'
tRp2885
(I1
(tg8
I00
S'\xf23\xa7<'
tbag4
(g5
(I0
tS'b'
tRp2886
(I1
(tg8
I00
S'\xb4:\xa7<'
tbag4
(g5
(I0
tS'b'
tRp2887
(I1
(tg8
I00
S'\x15"\xa7<'
tbag4
(g5
(I0
tS'b'
tRp2888
(I1
(tg8
I00
S'\x90m\xa7<'
tbag4
(g5
(I0
tS'b'
tRp2889
(I1
(tg8
I00
S'<\x1c\xa7<'
tbag4
(g5
(I0
tS'b'
tRp2890
(I1
(tg8
I00
S'\xc7L\xa7<'
tbag4
(g5
(I0
tS'b'
tRp2891
(I1
(tg8
I00
S'\xe3=\xa7<'
tbag4
(g5
(I0
tS'b'
tRp2892
(I1
(tg8
I00
S'xc\xa7<'
tbag4
(g5
(I0
tS'b'
tRp2893
(I1
(tg8
I00
S'VB\xa7<'
tbag4
(g5
(I0
tS'b'
tRp2894
(I1
(tg8
I00
S'@H\xa7<'
tbag4
(g5
(I0
tS'b'
tRp2895
(I1
(tg8
I00
S'\xb05\xa7<'
tbag4
(g5
(I0
tS'b'
tRp2896
(I1
(tg8
I00
S'\r1\xa7<'
tbag4
(g5
(I0
tS'b'
tRp2897
(I1
(tg8
I00
S'l<\xa7<'
tbag4
(g5
(I0
tS'b'
tRp2898
(I1
(tg8
I00
S'\xd76\xa7<'
tbag4
(g5
(I0
tS'b'
tRp2899
(I1
(tg8
I00
S'\x07E\xa7<'
tbag4
(g5
(I0
tS'b'
tRp2900
(I1
(tg8
I00
S'\x0c^\xa7<'
tbag4
(g5
(I0
tS'b'
tRp2901
(I1
(tg8
I00
S"\x1f'\xa7<"
tbag4
(g5
(I0
tS'b'
tRp2902
(I1
(tg8
I00
S'QJ\xa7<'
tbag4
(g5
(I0
tS'b'
tRp2903
(I1
(tg8
I00
S't\x17\xa7<'
tbag4
(g5
(I0
tS'b'
tRp2904
(I1
(tg8
I00
S'x\x14\xa7<'
tbag4
(g5
(I0
tS'b'
tRp2905
(I1
(tg8
I00
S'hQ\xa7<'
tbag4
(g5
(I0
tS'b'
tRp2906
(I1
(tg8
I00
S'`L\xa7<'
tbag4
(g5
(I0
tS'b'
tRp2907
(I1
(tg8
I00
S'\xce[\xa7<'
tbag4
(g5
(I0
tS'b'
tRp2908
(I1
(tg8
I00
S'\xceT\xa7<'
tbag4
(g5
(I0
tS'b'
tRp2909
(I1
(tg8
I00
S'\x93)\xa7<'
tbag4
(g5
(I0
tS'b'
tRp2910
(I1
(tg8
I00
S'l&\xa7<'
tbag4
(g5
(I0
tS'b'
tRp2911
(I1
(tg8
I00
S'\x80\x1f\xa7<'
tbag4
(g5
(I0
tS'b'
tRp2912
(I1
(tg8
I00
S'#\x03\xa7<'
tbag4
(g5
(I0
tS'b'
tRp2913
(I1
(tg8
I00
S'\x82\x02\xa7<'
tbag4
(g5
(I0
tS'b'
tRp2914
(I1
(tg8
I00
S'\xae9\xa7<'
tbag4
(g5
(I0
tS'b'
tRp2915
(I1
(tg8
I00
S'\\s\xa7<'
tbag4
(g5
(I0
tS'b'
tRp2916
(I1
(tg8
I00
S'(Z\xa7<'
tbag4
(g5
(I0
tS'b'
tRp2917
(I1
(tg8
I00
S'\xf6[\xa7<'
tbag4
(g5
(I0
tS'b'
tRp2918
(I1
(tg8
I00
S'\x8cR\xa7<'
tbag4
(g5
(I0
tS'b'
tRp2919
(I1
(tg8
I00
S'\xe5(\xa7<'
tbag4
(g5
(I0
tS'b'
tRp2920
(I1
(tg8
I00
S'\xa1&\xa7<'
tbag4
(g5
(I0
tS'b'
tRp2921
(I1
(tg8
I00
S'\x05-\xa7<'
tbag4
(g5
(I0
tS'b'
tRp2922
(I1
(tg8
I00
S"7'\xa7<"
tbag4
(g5
(I0
tS'b'
tRp2923
(I1
(tg8
I00
S'\xb8\xff\xa6<'
tbag4
(g5
(I0
tS'b'
tRp2924
(I1
(tg8
I00
S'\x8b9\xa7<'
tbag4
(g5
(I0
tS'b'
tRp2925
(I1
(tg8
I00
S'\xb5\r\xa7<'
tbag4
(g5
(I0
tS'b'
tRp2926
(I1
(tg8
I00
S'2@\xa7<'
tbag4
(g5
(I0
tS'b'
tRp2927
(I1
(tg8
I00
S'\xbd^\xa7<'
tbag4
(g5
(I0
tS'b'
tRp2928
(I1
(tg8
I00
S'\xd8\x80\xa7<'
tbag4
(g5
(I0
tS'b'
tRp2929
(I1
(tg8
I00
S'\x9f\x05\xa7<'
tbag4
(g5
(I0
tS'b'
tRp2930
(I1
(tg8
I00
S'\x15\x1d\xa7<'
tbag4
(g5
(I0
tS'b'
tRp2931
(I1
(tg8
I00
S'\x96-\xa7<'
tbag4
(g5
(I0
tS'b'
tRp2932
(I1
(tg8
I00
S'!E\xa7<'
tbag4
(g5
(I0
tS'b'
tRp2933
(I1
(tg8
I00
S'\xdeh\xa7<'
tbag4
(g5
(I0
tS'b'
tRp2934
(I1
(tg8
I00
S'\x06G\xa7<'
tbag4
(g5
(I0
tS'b'
tRp2935
(I1
(tg8
I00
S'yW\xa7<'
tbag4
(g5
(I0
tS'b'
tRp2936
(I1
(tg8
I00
S'\x19*\xa7<'
tbag4
(g5
(I0
tS'b'
tRp2937
(I1
(tg8
I00
S'\xb1\r\xa7<'
tbag4
(g5
(I0
tS'b'
tRp2938
(I1
(tg8
I00
S'j2\xa7<'
tbag4
(g5
(I0
tS'b'
tRp2939
(I1
(tg8
I00
S'\xfe7\xa7<'
tbag4
(g5
(I0
tS'b'
tRp2940
(I1
(tg8
I00
S'\x9a\x16\xa7<'
tbag4
(g5
(I0
tS'b'
tRp2941
(I1
(tg8
I00
S'<\x1d\xa7<'
tbag4
(g5
(I0
tS'b'
tRp2942
(I1
(tg8
I00
S'\xcc\x1c\xa7<'
tbag4
(g5
(I0
tS'b'
tRp2943
(I1
(tg8
I00
S'\x93V\xa7<'
tbag4
(g5
(I0
tS'b'
tRp2944
(I1
(tg8
I00
S'\xa4\x05\xa7<'
tbag4
(g5
(I0
tS'b'
tRp2945
(I1
(tg8
I00
S'\xe2<\xa7<'
tbag4
(g5
(I0
tS'b'
tRp2946
(I1
(tg8
I00
S'o\x1b\xa7<'
tbag4
(g5
(I0
tS'b'
tRp2947
(I1
(tg8
I00
S'\x0f2\xa7<'
tbag4
(g5
(I0
tS'b'
tRp2948
(I1
(tg8
I00
S'\xcf)\xa7<'
tbag4
(g5
(I0
tS'b'
tRp2949
(I1
(tg8
I00
S'\x80%\xa7<'
tbag4
(g5
(I0
tS'b'
tRp2950
(I1
(tg8
I00
S'g9\xa7<'
tbag4
(g5
(I0
tS'b'
tRp2951
(I1
(tg8
I00
S'\x0cK\xa7<'
tbag4
(g5
(I0
tS'b'
tRp2952
(I1
(tg8
I00
S'\x97H\xa7<'
tbag4
(g5
(I0
tS'b'
tRp2953
(I1
(tg8
I00
S'w[\xa7<'
tbag4
(g5
(I0
tS'b'
tRp2954
(I1
(tg8
I00
S'\x90\x0f\xa7<'
tbag4
(g5
(I0
tS'b'
tRp2955
(I1
(tg8
I00
S'\xd9-\xa7<'
tbag4
(g5
(I0
tS'b'
tRp2956
(I1
(tg8
I00
S'\xc8\x1c\xa7<'
tbag4
(g5
(I0
tS'b'
tRp2957
(I1
(tg8
I00
S'$E\xa7<'
tbag4
(g5
(I0
tS'b'
tRp2958
(I1
(tg8
I00
S'\x8bG\xa7<'
tbag4
(g5
(I0
tS'b'
tRp2959
(I1
(tg8
I00
S'\xf8\x07\xa7<'
tbag4
(g5
(I0
tS'b'
tRp2960
(I1
(tg8
I00
S'4G\xa7<'
tbag4
(g5
(I0
tS'b'
tRp2961
(I1
(tg8
I00
S'\x00\x10\xa7<'
tbag4
(g5
(I0
tS'b'
tRp2962
(I1
(tg8
I00
S'\x1e \xa7<'
tbag4
(g5
(I0
tS'b'
tRp2963
(I1
(tg8
I00
S'j\x97\xa7<'
tbag4
(g5
(I0
tS'b'
tRp2964
(I1
(tg8
I00
S'\xac-\xa7<'
tbag4
(g5
(I0
tS'b'
tRp2965
(I1
(tg8
I00
S'C2\xa7<'
tbag4
(g5
(I0
tS'b'
tRp2966
(I1
(tg8
I00
S'0F\xa7<'
tbag4
(g5
(I0
tS'b'
tRp2967
(I1
(tg8
I00
S'd\x0b\xa7<'
tbag4
(g5
(I0
tS'b'
tRp2968
(I1
(tg8
I00
S'\xf6D\xa7<'
tbag4
(g5
(I0
tS'b'
tRp2969
(I1
(tg8
I00
S'\xa3\x19\xa7<'
tbag4
(g5
(I0
tS'b'
tRp2970
(I1
(tg8
I00
S'\xfa\x04\xa7<'
tbag4
(g5
(I0
tS'b'
tRp2971
(I1
(tg8
I00
S'\x93#\xa7<'
tbag4
(g5
(I0
tS'b'
tRp2972
(I1
(tg8
I00
S'"\x11\xa7<'
tbag4
(g5
(I0
tS'b'
tRp2973
(I1
(tg8
I00
S'}(\xa7<'
tbag4
(g5
(I0
tS'b'
tRp2974
(I1
(tg8
I00
S'\xe1\x04\xa7<'
tbag4
(g5
(I0
tS'b'
tRp2975
(I1
(tg8
I00
S'\x93)\xa7<'
tbag4
(g5
(I0
tS'b'
tRp2976
(I1
(tg8
I00
S'\xeb\xf1\xa6<'
tbag4
(g5
(I0
tS'b'
tRp2977
(I1
(tg8
I00
S'\xd8K\xa7<'
tbag4
(g5
(I0
tS'b'
tRp2978
(I1
(tg8
I00
S'; \xa7<'
tbag4
(g5
(I0
tS'b'
tRp2979
(I1
(tg8
I00
S'\xdbA\xa7<'
tbag4
(g5
(I0
tS'b'
tRp2980
(I1
(tg8
I00
S"\x9f'\xa7<"
tbag4
(g5
(I0
tS'b'
tRp2981
(I1
(tg8
I00
S'\xbe.\xa7<'
tbag4
(g5
(I0
tS'b'
tRp2982
(I1
(tg8
I00
S'\xea\x0f\xa7<'
tbag4
(g5
(I0
tS'b'
tRp2983
(I1
(tg8
I00
S'\xb0>\xa7<'
tbag4
(g5
(I0
tS'b'
tRp2984
(I1
(tg8
I00
S'\xf8\x07\xa7<'
tbag4
(g5
(I0
tS'b'
tRp2985
(I1
(tg8
I00
S't\x19\xa7<'
tbag4
(g5
(I0
tS'b'
tRp2986
(I1
(tg8
I00
S'\xf9\x1a\xa7<'
tbag4
(g5
(I0
tS'b'
tRp2987
(I1
(tg8
I00
S'?3\xa7<'
tbag4
(g5
(I0
tS'b'
tRp2988
(I1
(tg8
I00
S'~\x1a\xa7<'
tbag4
(g5
(I0
tS'b'
tRp2989
(I1
(tg8
I00
S'\x92\x1f\xa7<'
tbag4
(g5
(I0
tS'b'
tRp2990
(I1
(tg8
I00
S'\xf7o\xa7<'
tbag4
(g5
(I0
tS'b'
tRp2991
(I1
(tg8
I00
S'P)\xa7<'
tbag4
(g5
(I0
tS'b'
tRp2992
(I1
(tg8
I00
S'8\x0f\xa7<'
tbag4
(g5
(I0
tS'b'
tRp2993
(I1
(tg8
I00
S'i\x1d\xa7<'
tbag4
(g5
(I0
tS'b'
tRp2994
(I1
(tg8
I00
S'\x85J\xa7<'
tbag4
(g5
(I0
tS'b'
tRp2995
(I1
(tg8
I00
S'w3\xa7<'
tbag4
(g5
(I0
tS'b'
tRp2996
(I1
(tg8
I00
S'\xbb,\xa7<'
tbag4
(g5
(I0
tS'b'
tRp2997
(I1
(tg8
I00
S'\t\\\xa7<'
tbag4
(g5
(I0
tS'b'
tRp2998
(I1
(tg8
I00
S'\xda\xe4\xa6<'
tbag4
(g5
(I0
tS'b'
tRp2999
(I1
(tg8
I00
S'\xf1\xf2\xa6<'
tbag4
(g5
(I0
tS'b'
tRp3000
(I1
(tg8
I00
S'\xe7\x05\xa7<'
tbag4
(g5
(I0
tS'b'
tRp3001
(I1
(tg8
I00
S'B7\xa7<'
tbag4
(g5
(I0
tS'b'
tRp3002
(I1
(tg8
I00
S'8\x1f\xa7<'
tbag4
(g5
(I0
tS'b'
tRp3003
(I1
(tg8
I00
S'&*\xa7<'
tbag4
(g5
(I0
tS'b'
tRp3004
(I1
(tg8
I00
S'\xd9>\xa7<'
tbag4
(g5
(I0
tS'b'
tRp3005
(I1
(tg8
I00
S'\xb6#\xa7<'
tbag4
(g5
(I0
tS'b'
tRp3006
(I1
(tg8
I00
S"\xd7'\xa7<"
tbag4
(g5
(I0
tS'b'
tRp3007
(I1
(tg8
I00
S'i,\xa7<'
tbag4
(g5
(I0
tS'b'
tRp3008
(I1
(tg8
I00
S'_=\xa7<'
tbag4
(g5
(I0
tS'b'
tRp3009
(I1
(tg8
I00
S'\xfd3\xa7<'
tbag4
(g5
(I0
tS'b'
tRp3010
(I1
(tg8
I00
S'\xd6)\xa7<'
tbag4
(g5
(I0
tS'b'
tRp3011
(I1
(tg8
I00
S'p\xd3\xa6<'
tbasS'val_acc'
p3012
(lp3013
cnumpy.core.multiarray
scalar
p3014
(g7
(S'f8'
I0
I1
tRp3015
(I3
S'<'
NNNI-1
I-1
I0
tbS'\x00\x00\x00\xa0\xaf\xaf\xef?'
tRp3016
ag3014
(g3015
S'\x00\x00\x00\xa0\xaf\xaf\xef?'
tRp3017
ag3014
(g3015
S'\x00\x00\x00\xa0\xaf\xaf\xef?'
tRp3018
ag3014
(g3015
S'\x00\x00\x00\xa0\xaf\xaf\xef?'
tRp3019
ag3014
(g3015
S'\x00\x00\x00\xa0\xaf\xaf\xef?'
tRp3020
ag3014
(g3015
S'\x00\x00\x00\xa0\xaf\xaf\xef?'
tRp3021
ag3014
(g3015
S'\x00\x00\x00\xa0\xaf\xaf\xef?'
tRp3022
ag3014
(g3015
S'R\xb8\x1eE\xcb\xb6\xef?'
tRp3023
ag3014
(g3015
S'\\ A\xb1\xa7\xb7\xef?'
tRp3024
ag3014
(g3015
S'\xfc\x18s\x97\x96\xb8\xef?'
tRp3025
ag3014
(g3015
S'\xb7\xd1\x00\x9e\xad\xb8\xef?'
tRp3026
ag3014
(g3015
S'x\x0b$\xe8\xb0\xb8\xef?'
tRp3027
ag3014
(g3015
S'\x86Z\xd3|\xdd\xb9\xef?'
tRp3028
ag3014
(g3015
S'\xe7\x8c(\xad\xd5\xb9\xef?'
tRp3029
ag3014
(g3015
S'S\x05\xa3R\xd7\xb9\xef?'
tRp3030
ag3014
(g3015
S'8\xf8\xc2$\x87\xb9\xef?'
tRp3031
ag3014
(g3015
S'\xa7\xe8H\xeew\xb9\xef?'
tRp3032
ag3014
(g3015
S'\xa7\xe8H\xeew\xb9\xef?'
tRp3033
ag3014
(g3015
S'\xc7K7I\xc7\xb9\xef?'
tRp3034
asS'val_loss'
p3035
(lp3036
g3014
(g3015
S'\xff!\xfd6\xe5\xc9\xb5?'
tRp3037
ag3014
(g3015
S'\x1b\r\xe0-c\xe1\xb2?'
tRp3038
ag3014
(g3015
S"0\xbb'\x0f\xf0!\xb5?"
tRp3039
ag3014
(g3015
S'\xd9_vO\xd8;\xb3?'
tRp3040
ag3014
(g3015
S'\xa9\xa4N \xcd\xb2\xa8?'
tRp3041
ag3014
(g3015
S'\x8d\x97n\xf2>\xb1\xa3?'
tRp3042
ag3014
(g3015
S'\xc9\xe5?$-\xe1\x9b?'
tRp3043
ag3014
(g3015
S'\x07\xce\x19\xb1\xa3\xf5\x98?'
tRp3044
ag3014
(g3015
S'\x96!\x8e\x95\x81\x96\x97?'
tRp3045
ag3014
(g3015
S"R'\xa0)\x82Q\x96?"
tRp3046
ag3014
(g3015
S'\xa1\xd64/M\x83\x95?'
tRp3047
ag3014
(g3015
S'\xb7\xd1\x00\x1e\xb0;\x95?'
tRp3048
ag3014
(g3015
S'\xfb:pN.\x19\x95?'
tRp3049
ag3014
(g3015
S'\xb7b\x7f\xd9\xa9\x08\x95?'
tRp3050
ag3014
(g3015
S'b\xa1\xd6\xd4\xfa\x02\x95?'
tRp3051
ag3014
(g3015
S'\xcc]Kh\xd4\xf8\x94?'
tRp3052
ag3014
(g3015
S'"lx\xfa\x13\xf5\x94?'
tRp3053
ag3014
(g3015
S',\xd4\x9a\xa6\xcc\xeb\x94?'
tRp3054
ag3014
(g3015
S'\x0e-\xb2}V\xec\x94?'
tRp3055
as.