(dp1
S'train_acc'
p2
(lp3
cnumpy.core.multiarray
_reconstruct
p4
(cnumpy
ndarray
p5
(I0
tS'b'
tRp6
(I1
(tcnumpy
dtype
p7
(S'f4'
I0
I1
tRp8
(I3
S'<'
NNNI-1
I-1
I0
tbI00
S'\x00\x00\x98<'
tbag4
(g5
(I0
tS'b'
tRp9
(I1
(tg8
I00
S'\xcd\xcc\x04='
tbag4
(g5
(I0
tS'b'
tRp10
(I1
(tg8
I00
S'\x89\x88\xd2='
tbag4
(g5
(I0
tS'b'
tRp11
(I1
(tg8
I00
S'3\xb3\x1a?'
tbag4
(g5
(I0
tS'b'
tRp12
(I1
(tg8
I00
S'\xab*\xe2>'
tbag4
(g5
(I0
tS'b'
tRp13
(I1
(tg8
I00
S'\x9a\x99\x15='
tbag4
(g5
(I0
tS'b'
tRp14
(I1
(tg8
I00
S'\x89H9?'
tbag4
(g5
(I0
tS'b'
tRp15
(I1
(tg8
I00
S'33\xfb>'
tbag4
(g5
(I0
tS'b'
tRp16
(I1
(tg8
I00
S'\xbc{J?'
tbag4
(g5
(I0
tS'b'
tRp17
(I1
(tg8
I00
S'\xbc;S?'
tbag4
(g5
(I0
tS'b'
tRp18
(I1
(tg8
I00
S'\x11\x91\xd8>'
tbag4
(g5
(I0
tS'b'
tRp19
(I1
(tg8
I00
S'\x9a\xd9\x1e?'
tbag4
(g5
(I0
tS'b'
tRp20
(I1
(tg8
I00
S'33W?'
tbag4
(g5
(I0
tS'b'
tRp21
(I1
(tg8
I00
S'\x00\xc0X?'
tbag4
(g5
(I0
tS'b'
tRp22
(I1
(tg8
I00
S'3\xb3X?'
tbag4
(g5
(I0
tS'b'
tRp23
(I1
(tg8
I00
S'\xde\xddZ?'
tbag4
(g5
(I0
tS'b'
tRp24
(I1
(tg8
I00
S'w7^?'
tbag4
(g5
(I0
tS'b'
tRp25
(I1
(tg8
I00
S'\xcd\xcc\x12?'
tbag4
(g5
(I0
tS'b'
tRp26
(I1
(tg8
I00
S'\x9aY_?'
tbag4
(g5
(I0
tS'b'
tRp27
(I1
(tg8
I00
S'\xde\x9d`?'
tbag4
(g5
(I0
tS'b'
tRp28
(I1
(tg8
I00
S'\x00\x80_?'
tbag4
(g5
(I0
tS'b'
tRp29
(I1
(tg8
I00
S'\xab*a?'
tbag4
(g5
(I0
tS'b'
tRp30
(I1
(tg8
I00
S'3\xb3a?'
tbag4
(g5
(I0
tS'b'
tRp31
(I1
(tg8
I00
S'D\x04b?'
tbag4
(g5
(I0
tS'b'
tRp32
(I1
(tg8
I00
S'33X?'
tbag4
(g5
(I0
tS'b'
tRp33
(I1
(tg8
I00
S'\x9a\x99b?'
tbag4
(g5
(I0
tS'b'
tRp34
(I1
(tg8
I00
S'3\xf3c?'
tbag4
(g5
(I0
tS'b'
tRp35
(I1
(tg8
I00
S'UUT?'
tbag4
(g5
(I0
tS'b'
tRp36
(I1
(tg8
I00
S'\xbc\xfbc?'
tbag4
(g5
(I0
tS'b'
tRp37
(I1
(tg8
I00
S'D\x04e?'
tbag4
(g5
(I0
tS'b'
tRp38
(I1
(tg8
I00
S'\x89\xc8e?'
tbag4
(g5
(I0
tS'b'
tRp39
(I1
(tg8
I00
S'f\xa6e?'
tbag4
(g5
(I0
tS'b'
tRp40
(I1
(tg8
I00
S'\xbc{e?'
tbag4
(g5
(I0
tS'b'
tRp41
(I1
(tg8
I00
S'fff?'
tbag4
(g5
(I0
tS'b'
tRp42
(I1
(tg8
I00
S'f\xe6e?'
tbag4
(g5
(I0
tS'b'
tRp43
(I1
(tg8
I00
S'\xbc\xfbc?'
tbag4
(g5
(I0
tS'b'
tRp44
(I1
(tg8
I00
S'\xbc\xfbe?'
tbag4
(g5
(I0
tS'b'
tRp45
(I1
(tg8
I00
S'\xefng?'
tbag4
(g5
(I0
tS'b'
tRp46
(I1
(tg8
I00
S'D\x04g?'
tbag4
(g5
(I0
tS'b'
tRp47
(I1
(tg8
I00
S'\xabjg?'
tbag4
(g5
(I0
tS'b'
tRp48
(I1
(tg8
I00
S'\x9a\x19h?'
tbag4
(g5
(I0
tS'b'
tRp49
(I1
(tg8
I00
S'\x89Hh?'
tbag4
(g5
(I0
tS'b'
tRp50
(I1
(tg8
I00
S'\x9a\x99h?'
tbag4
(g5
(I0
tS'b'
tRp51
(I1
(tg8
I00
S'\xbc;-?'
tbag4
(g5
(I0
tS'b'
tRp52
(I1
(tg8
I00
S'\x11\x91h?'
tbag4
(g5
(I0
tS'b'
tRp53
(I1
(tg8
I00
S'\xde\x1d_?'
tbag4
(g5
(I0
tS'b'
tRp54
(I1
(tg8
I00
S'\x89Hi?'
tbag4
(g5
(I0
tS'b'
tRp55
(I1
(tg8
I00
S'\xefni?'
tbag4
(g5
(I0
tS'b'
tRp56
(I1
(tg8
I00
S'\xcdLi?'
tbag4
(g5
(I0
tS'b'
tRp57
(I1
(tg8
I00
S'D\x84i?'
tbag4
(g5
(I0
tS'b'
tRp58
(I1
(tg8
I00
S'\x89\xc8i?'
tbag4
(g5
(I0
tS'b'
tRp59
(I1
(tg8
I00
S'\xab\xaai?'
tbag4
(g5
(I0
tS'b'
tRp60
(I1
(tg8
I00
S'\x00\x00j?'
tbag4
(g5
(I0
tS'b'
tRp61
(I1
(tg8
I00
S'\xbc\xfbi?'
tbag4
(g5
(I0
tS'b'
tRp62
(I1
(tg8
I00
S'\xde\x9d\x13?'
tbag4
(g5
(I0
tS'b'
tRp63
(I1
(tg8
I00
S'\x00\x80j?'
tbag4
(g5
(I0
tS'b'
tRp64
(I1
(tg8
I00
S'U\x15j?'
tbag4
(g5
(I0
tS'b'
tRp65
(I1
(tg8
I00
S'\xefn\x0f?'
tbag4
(g5
(I0
tS'b'
tRp66
(I1
(tg8
I00
S'U\x15_?'
tbag4
(g5
(I0
tS'b'
tRp67
(I1
(tg8
I00
S'3\xf3i?'
tbag4
(g5
(I0
tS'b'
tRp68
(I1
(tg8
I00
S'3sj?'
tbag4
(g5
(I0
tS'b'
tRp69
(I1
(tg8
I00
S'\xefnj?'
tbag4
(g5
(I0
tS'b'
tRp70
(I1
(tg8
I00
S'\x9a\xd9\x00?'
tbag4
(g5
(I0
tS'b'
tRp71
(I1
(tg8
I00
S'\x11Qj?'
tbag4
(g5
(I0
tS'b'
tRp72
(I1
(tg8
I00
S'\xef.\x13?'
tbag4
(g5
(I0
tS'b'
tRp73
(I1
(tg8
I00
S'"\xa2j?'
tbag4
(g5
(I0
tS'b'
tRp74
(I1
(tg8
I00
S'\xcd\xcc\xed>'
tbag4
(g5
(I0
tS'b'
tRp75
(I1
(tg8
I00
S'336?'
tbag4
(g5
(I0
tS'b'
tRp76
(I1
(tg8
I00
S'\xde\x9dj?'
tbag4
(g5
(I0
tS'b'
tRp77
(I1
(tg8
I00
S'\xab\xaaj?'
tbag4
(g5
(I0
tS'b'
tRp78
(I1
(tg8
I00
S'\xab\xaaj?'
tbag4
(g5
(I0
tS'b'
tRp79
(I1
(tg8
I00
S'\xab\xaaj?'
tbag4
(g5
(I0
tS'b'
tRp80
(I1
(tg8
I00
S'\xab\xaaj?'
tbag4
(g5
(I0
tS'b'
tRp81
(I1
(tg8
I00
S'\xab\xaaj?'
tbag4
(g5
(I0
tS'b'
tRp82
(I1
(tg8
I00
S'\xab\xaaj?'
tbag4
(g5
(I0
tS'b'
tRp83
(I1
(tg8
I00
S'\xab\xaaj?'
tbag4
(g5
(I0
tS'b'
tRp84
(I1
(tg8
I00
S'\xab\xaaj?'
tbag4
(g5
(I0
tS'b'
tRp85
(I1
(tg8
I00
S'\xab\xaaj?'
tbag4
(g5
(I0
tS'b'
tRp86
(I1
(tg8
I00
S'\x9a\x99g?'
tbag4
(g5
(I0
tS'b'
tRp87
(I1
(tg8
I00
S'\xab\xaaj?'
tbag4
(g5
(I0
tS'b'
tRp88
(I1
(tg8
I00
S'\xef.S?'
tbag4
(g5
(I0
tS'b'
tRp89
(I1
(tg8
I00
S'\x89\xc8.?'
tbag4
(g5
(I0
tS'b'
tRp90
(I1
(tg8
I00
S'\xab\xaaj?'
tbag4
(g5
(I0
tS'b'
tRp91
(I1
(tg8
I00
S'\xab\xaab?'
tbag4
(g5
(I0
tS'b'
tRp92
(I1
(tg8
I00
S'\xab\xaaj?'
tbag4
(g5
(I0
tS'b'
tRp93
(I1
(tg8
I00
S'w7e?'
tbag4
(g5
(I0
tS'b'
tRp94
(I1
(tg8
I00
S'\xab\xaaj?'
tbag4
(g5
(I0
tS'b'
tRp95
(I1
(tg8
I00
S'w\xb7k?'
tbag4
(g5
(I0
tS'b'
tRp96
(I1
(tg8
I00
S'\xab\xaaj?'
tbag4
(g5
(I0
tS'b'
tRp97
(I1
(tg8
I00
S'33l?'
tbag4
(g5
(I0
tS'b'
tRp98
(I1
(tg8
I00
S'\xab\xaaj?'
tbag4
(g5
(I0
tS'b'
tRp99
(I1
(tg8
I00
S'\xef\xaej?'
tbag4
(g5
(I0
tS'b'
tRp100
(I1
(tg8
I00
S'U\xd5l?'
tbag4
(g5
(I0
tS'b'
tRp101
(I1
(tg8
I00
S'"\xe2j?'
tbag4
(g5
(I0
tS'b'
tRp102
(I1
(tg8
I00
S'D\xc4k?'
tbag4
(g5
(I0
tS'b'
tRp103
(I1
(tg8
I00
S'""m?'
tbag4
(g5
(I0
tS'b'
tRp104
(I1
(tg8
I00
S'\xab\xaaj?'
tbag4
(g5
(I0
tS'b'
tRp105
(I1
(tg8
I00
S'wwk?'
tbag4
(g5
(I0
tS'b'
tRp106
(I1
(tg8
I00
S'\xef\xaej?'
tbag4
(g5
(I0
tS'b'
tRp107
(I1
(tg8
I00
S'"\xe2j?'
tbag4
(g5
(I0
tS'b'
tRp108
(I1
(tg8
I00
S'f\xe6\x0b?'
tbag4
(g5
(I0
tS'b'
tRp109
(I1
(tg8
I00
S'ff\x11?'
tbag4
(g5
(I0
tS'b'
tRp110
(I1
(tg8
I00
S'\xde\xddk?'
tbag4
(g5
(I0
tS'b'
tRp111
(I1
(tg8
I00
S'\xbc\xbbj?'
tbag4
(g5
(I0
tS'b'
tRp112
(I1
(tg8
I00
S'U\x15\x04?'
tbag4
(g5
(I0
tS'b'
tRp113
(I1
(tg8
I00
S'\xde\x9dl?'
tbag4
(g5
(I0
tS'b'
tRp114
(I1
(tg8
I00
S'\xab\xaaj?'
tbag4
(g5
(I0
tS'b'
tRp115
(I1
(tg8
I00
S'\x89\x08\x03?'
tbag4
(g5
(I0
tS'b'
tRp116
(I1
(tg8
I00
S'D\x04k?'
tbag4
(g5
(I0
tS'b'
tRp117
(I1
(tg8
I00
S'"\xa2k?'
tbag4
(g5
(I0
tS'b'
tRp118
(I1
(tg8
I00
S'\xab\xaaj?'
tbag4
(g5
(I0
tS'b'
tRp119
(I1
(tg8
I00
S'\xde\xdd]?'
tbag4
(g5
(I0
tS'b'
tRp120
(I1
(tg8
I00
S'\xbc\xfbj?'
tbag4
(g5
(I0
tS'b'
tRp121
(I1
(tg8
I00
S'\x00\x00k?'
tbag4
(g5
(I0
tS'b'
tRp122
(I1
(tg8
I00
S'\xcdLk?'
tbag4
(g5
(I0
tS'b'
tRp123
(I1
(tg8
I00
S'\xef\xaej?'
tbag4
(g5
(I0
tS'b'
tRp124
(I1
(tg8
I00
S'\x11\xd1m?'
tbag4
(g5
(I0
tS'b'
tRp125
(I1
(tg8
I00
S'\xde\x9dk?'
tbag4
(g5
(I0
tS'b'
tRp126
(I1
(tg8
I00
S'""\xed>'
tbag4
(g5
(I0
tS'b'
tRp127
(I1
(tg8
I00
S'\x11Q\x15?'
tbag4
(g5
(I0
tS'b'
tRp128
(I1
(tg8
I00
S'\x9a\xd9j?'
tbag4
(g5
(I0
tS'b'
tRp129
(I1
(tg8
I00
S'\xcd\xcca?'
tbag4
(g5
(I0
tS'b'
tRp130
(I1
(tg8
I00
S'3\xf3j?'
tbag4
(g5
(I0
tS'b'
tRp131
(I1
(tg8
I00
S'\xef\xaeP?'
tbag4
(g5
(I0
tS'b'
tRp132
(I1
(tg8
I00
S'U\xd5l?'
tbag4
(g5
(I0
tS'b'
tRp133
(I1
(tg8
I00
S'\xab\xaaj?'
tbag4
(g5
(I0
tS'b'
tRp134
(I1
(tg8
I00
S'DDm?'
tbag4
(g5
(I0
tS'b'
tRp135
(I1
(tg8
I00
S'3\xb3j?'
tbag4
(g5
(I0
tS'b'
tRp136
(I1
(tg8
I00
S'\xcd\x8cj?'
tbag4
(g5
(I0
tS'b'
tRp137
(I1
(tg8
I00
S'\x89Hk?'
tbag4
(g5
(I0
tS'b'
tRp138
(I1
(tg8
I00
S'\x11\xd1j?'
tbag4
(g5
(I0
tS'b'
tRp139
(I1
(tg8
I00
S'\x9a\xd9m?'
tbag4
(g5
(I0
tS'b'
tRp140
(I1
(tg8
I00
S'\xbc\xbbj?'
tbag4
(g5
(I0
tS'b'
tRp141
(I1
(tg8
I00
S'"\xe2%?'
tbag4
(g5
(I0
tS'b'
tRp142
(I1
(tg8
I00
S'33m?'
tbag4
(g5
(I0
tS'b'
tRp143
(I1
(tg8
I00
S'\xde\x1dk?'
tbag4
(g5
(I0
tS'b'
tRp144
(I1
(tg8
I00
S'U\xd5I?'
tbag4
(g5
(I0
tS'b'
tRp145
(I1
(tg8
I00
S'w\xb7m?'
tbag4
(g5
(I0
tS'b'
tRp146
(I1
(tg8
I00
S'\xab\xaaj?'
tbag4
(g5
(I0
tS'b'
tRp147
(I1
(tg8
I00
S'UU)?'
tbag4
(g5
(I0
tS'b'
tRp148
(I1
(tg8
I00
S'\x00\x80l?'
tbag4
(g5
(I0
tS'b'
tRp149
(I1
(tg8
I00
S'\xab\xaaj?'
tbag4
(g5
(I0
tS'b'
tRp150
(I1
(tg8
I00
S'f\xe6m?'
tbag4
(g5
(I0
tS'b'
tRp151
(I1
(tg8
I00
S'\xab\xaaj?'
tbag4
(g5
(I0
tS'b'
tRp152
(I1
(tg8
I00
S'w7n?'
tbag4
(g5
(I0
tS'b'
tRp153
(I1
(tg8
I00
S'\xab\xeaj?'
tbag4
(g5
(I0
tS'b'
tRp154
(I1
(tg8
I00
S'\xefn2?'
tbag4
(g5
(I0
tS'b'
tRp155
(I1
(tg8
I00
S'"\xa2l?'
tbag4
(g5
(I0
tS'b'
tRp156
(I1
(tg8
I00
S'\xde\x1dl?'
tbag4
(g5
(I0
tS'b'
tRp157
(I1
(tg8
I00
S'\x89\x08n?'
tbag4
(g5
(I0
tS'b'
tRp158
(I1
(tg8
I00
S'\x9a\xd9j?'
tbag4
(g5
(I0
tS'b'
tRp159
(I1
(tg8
I00
S'\xbc\xbbm?'
tbag4
(g5
(I0
tS'b'
tRp160
(I1
(tg8
I00
S'33m?'
tbag4
(g5
(I0
tS'b'
tRp161
(I1
(tg8
I00
S'\x00\xc0i?'
tbag4
(g5
(I0
tS'b'
tRp162
(I1
(tg8
I00
S'\x11Ql?'
tbag4
(g5
(I0
tS'b'
tRp163
(I1
(tg8
I00
S'DD[?'
tbag4
(g5
(I0
tS'b'
tRp164
(I1
(tg8
I00
S'\xbc;m?'
tbag4
(g5
(I0
tS'b'
tRp165
(I1
(tg8
I00
S'\xcd\xccl?'
tbag4
(g5
(I0
tS'b'
tRp166
(I1
(tg8
I00
S'3\xb3E?'
tbag4
(g5
(I0
tS'b'
tRp167
(I1
(tg8
I00
S'U\x95l?'
tbag4
(g5
(I0
tS'b'
tRp168
(I1
(tg8
I00
S'\xde]m?'
tbag4
(g5
(I0
tS'b'
tRp169
(I1
(tg8
I00
S'UUm?'
tbag4
(g5
(I0
tS'b'
tRp170
(I1
(tg8
I00
S'D\xc4m?'
tbag4
(g5
(I0
tS'b'
tRp171
(I1
(tg8
I00
S'3\xb3l?'
tbag4
(g5
(I0
tS'b'
tRp172
(I1
(tg8
I00
S'ff\x14?'
tbag4
(g5
(I0
tS'b'
tRp173
(I1
(tg8
I00
S'\xef.o?'
tbag4
(g5
(I0
tS'b'
tRp174
(I1
(tg8
I00
S'\xbc\xfbl?'
tbag4
(g5
(I0
tS'b'
tRp175
(I1
(tg8
I00
S'\xefn\x1f?'
tbag4
(g5
(I0
tS'b'
tRp176
(I1
(tg8
I00
S'\x11Qo?'
tbag4
(g5
(I0
tS'b'
tRp177
(I1
(tg8
I00
S'U\xd5k?'
tbag4
(g5
(I0
tS'b'
tRp178
(I1
(tg8
I00
S'U\xd5m?'
tbag4
(g5
(I0
tS'b'
tRp179
(I1
(tg8
I00
S'\xbc{n?'
tbag4
(g5
(I0
tS'b'
tRp180
(I1
(tg8
I00
S'3\xf3D?'
tbag4
(g5
(I0
tS'b'
tRp181
(I1
(tg8
I00
S'\x00@o?'
tbag4
(g5
(I0
tS'b'
tRp182
(I1
(tg8
I00
S'\xcdLn?'
tbag4
(g5
(I0
tS'b'
tRp183
(I1
(tg8
I00
S'\x00\xc0j?'
tbag4
(g5
(I0
tS'b'
tRp184
(I1
(tg8
I00
S'\x00@m?'
tbag4
(g5
(I0
tS'b'
tRp185
(I1
(tg8
I00
S'\x00@`?'
tbag4
(g5
(I0
tS'b'
tRp186
(I1
(tg8
I00
S'D\x04o?'
tbag4
(g5
(I0
tS'b'
tRp187
(I1
(tg8
I00
S'""o?'
tbag4
(g5
(I0
tS'b'
tRp188
(I1
(tg8
I00
S'\xbc{n?'
tbag4
(g5
(I0
tS'b'
tRp189
(I1
(tg8
I00
S'\x11\x910?'
tbag4
(g5
(I0
tS'b'
tRp190
(I1
(tg8
I00
S'"\xa2]?'
tbag4
(g5
(I0
tS'b'
tRp191
(I1
(tg8
I00
S'\x00\x80q?'
tbag4
(g5
(I0
tS'b'
tRp192
(I1
(tg8
I00
S'\xbc;q?'
tbag4
(g5
(I0
tS'b'
tRp193
(I1
(tg8
I00
S'\x11Qn?'
tbag4
(g5
(I0
tS'b'
tRp194
(I1
(tg8
I00
S'\x00\xc0F?'
tbag4
(g5
(I0
tS'b'
tRp195
(I1
(tg8
I00
S'\x00\x00q?'
tbag4
(g5
(I0
tS'b'
tRp196
(I1
(tg8
I00
S'D\xc4l?'
tbag4
(g5
(I0
tS'b'
tRp197
(I1
(tg8
I00
S'\x89\x88m?'
tbag4
(g5
(I0
tS'b'
tRp198
(I1
(tg8
I00
S'\xef\xeen?'
tbag4
(g5
(I0
tS'b'
tRp199
(I1
(tg8
I00
S'ffo?'
tbag4
(g5
(I0
tS'b'
tRp200
(I1
(tg8
I00
S'\xde\xddp?'
tbag4
(g5
(I0
tS'b'
tRp201
(I1
(tg8
I00
S'\xbc{c?'
tbag4
(g5
(I0
tS'b'
tRp202
(I1
(tg8
I00
S'\xef.r?'
tbag4
(g5
(I0
tS'b'
tRp203
(I1
(tg8
I00
S'33o?'
tbag4
(g5
(I0
tS'b'
tRp204
(I1
(tg8
I00
S'wwc?'
tbag4
(g5
(I0
tS'b'
tRp205
(I1
(tg8
I00
S'\x9aYr?'
tbag4
(g5
(I0
tS'b'
tRp206
(I1
(tg8
I00
S'""r?'
tbag4
(g5
(I0
tS'b'
tRp207
(I1
(tg8
I00
S'33q?'
tbag4
(g5
(I0
tS'b'
tRp208
(I1
(tg8
I00
S'D\x84q?'
tbag4
(g5
(I0
tS'b'
tRp209
(I1
(tg8
I00
S'\xcd\x0cp?'
tbag4
(g5
(I0
tS'b'
tRp210
(I1
(tg8
I00
S'\xcd\xccV?'
tbag4
(g5
(I0
tS'b'
tRp211
(I1
(tg8
I00
S'U\x15r?'
tbag4
(g5
(I0
tS'b'
tRp212
(I1
(tg8
I00
S'\x9a\xd9o?'
tbag4
(g5
(I0
tS'b'
tRp213
(I1
(tg8
I00
S'\xab\xaap?'
tbag4
(g5
(I0
tS'b'
tRp214
(I1
(tg8
I00
S'\xef\xaeq?'
tbag4
(g5
(I0
tS'b'
tRp215
(I1
(tg8
I00
S'\x11\xd1j?'
tbag4
(g5
(I0
tS'b'
tRp216
(I1
(tg8
I00
S'\x11\x11t?'
tbag4
(g5
(I0
tS'b'
tRp217
(I1
(tg8
I00
S'3\xf3k?'
tbag4
(g5
(I0
tS'b'
tRp218
(I1
(tg8
I00
S'\x11\x91t?'
tbag4
(g5
(I0
tS'b'
tRp219
(I1
(tg8
I00
S'DDq?'
tbag4
(g5
(I0
tS'b'
tRp220
(I1
(tg8
I00
S'f\xa6r?'
tbag4
(g5
(I0
tS'b'
tRp221
(I1
(tg8
I00
S'\x00\x80k?'
tbag4
(g5
(I0
tS'b'
tRp222
(I1
(tg8
I00
S'\xabjs?'
tbag4
(g5
(I0
tS'b'
tRp223
(I1
(tg8
I00
S'\x9a\x19j?'
tbag4
(g5
(I0
tS'b'
tRp224
(I1
(tg8
I00
S'\xabjs?'
tbag4
(g5
(I0
tS'b'
tRp225
(I1
(tg8
I00
S'\xcd\x0cr?'
tbag4
(g5
(I0
tS'b'
tRp226
(I1
(tg8
I00
S'\xef\xaer?'
tbag4
(g5
(I0
tS'b'
tRp227
(I1
(tg8
I00
S'\xcd\x0cn?'
tbag4
(g5
(I0
tS'b'
tRp228
(I1
(tg8
I00
S'\xbc;u?'
tbag4
(g5
(I0
tS'b'
tRp229
(I1
(tg8
I00
S'f\xa6s?'
tbag4
(g5
(I0
tS'b'
tRp230
(I1
(tg8
I00
S'\xcd\x8ct?'
tbag4
(g5
(I0
tS'b'
tRp231
(I1
(tg8
I00
S'\x89\xc8\x08?'
tbag4
(g5
(I0
tS'b'
tRp232
(I1
(tg8
I00
S'\x9a\x19G?'
tbag4
(g5
(I0
tS'b'
tRp233
(I1
(tg8
I00
S'\x9aYs?'
tbag4
(g5
(I0
tS'b'
tRp234
(I1
(tg8
I00
S'DDs?'
tbag4
(g5
(I0
tS'b'
tRp235
(I1
(tg8
I00
S'\x11\xd1j?'
tbag4
(g5
(I0
tS'b'
tRp236
(I1
(tg8
I00
S'\x00\xc0s?'
tbag4
(g5
(I0
tS'b'
tRp237
(I1
(tg8
I00
S'\x89\xc8m?'
tbag4
(g5
(I0
tS'b'
tRp238
(I1
(tg8
I00
S'\xbc;v?'
tbag4
(g5
(I0
tS'b'
tRp239
(I1
(tg8
I00
S'\xef\xeer?'
tbag4
(g5
(I0
tS'b'
tRp240
(I1
(tg8
I00
S'\xab\xaar?'
tbag4
(g5
(I0
tS'b'
tRp241
(I1
(tg8
I00
S'\xcd\xccs?'
tbag4
(g5
(I0
tS'b'
tRp242
(I1
(tg8
I00
S'33v?'
tbag4
(g5
(I0
tS'b'
tRp243
(I1
(tg8
I00
S'f&l?'
tbag4
(g5
(I0
tS'b'
tRp244
(I1
(tg8
I00
S'\x89\x88x?'
tbag4
(g5
(I0
tS'b'
tRp245
(I1
(tg8
I00
S'\xabjo?'
tbag4
(g5
(I0
tS'b'
tRp246
(I1
(tg8
I00
S'f&v?'
tbag4
(g5
(I0
tS'b'
tRp247
(I1
(tg8
I00
S'\x89Ht?'
tbag4
(g5
(I0
tS'b'
tRp248
(I1
(tg8
I00
S'f\xe6u?'
tbag4
(g5
(I0
tS'b'
tRp249
(I1
(tg8
I00
S'f\xe6d?'
tbag4
(g5
(I0
tS'b'
tRp250
(I1
(tg8
I00
S'\x89\x88v?'
tbag4
(g5
(I0
tS'b'
tRp251
(I1
(tg8
I00
S'\x89\xc8t?'
tbag4
(g5
(I0
tS'b'
tRp252
(I1
(tg8
I00
S'U\x95p?'
tbag4
(g5
(I0
tS'b'
tRp253
(I1
(tg8
I00
S'\x11\x11u?'
tbag4
(g5
(I0
tS'b'
tRp254
(I1
(tg8
I00
S'\xab\xear?'
tbag4
(g5
(I0
tS'b'
tRp255
(I1
(tg8
I00
S'\xbc{v?'
tbag4
(g5
(I0
tS'b'
tRp256
(I1
(tg8
I00
S'\x9a\x19p?'
tbag4
(g5
(I0
tS'b'
tRp257
(I1
(tg8
I00
S'wwy?'
tbag4
(g5
(I0
tS'b'
tRp258
(I1
(tg8
I00
S'\xabjt?'
tbag4
(g5
(I0
tS'b'
tRp259
(I1
(tg8
I00
S'\x89\xc8$?'
tbag4
(g5
(I0
tS'b'
tRp260
(I1
(tg8
I00
S'\xde\x9dw?'
tbag4
(g5
(I0
tS'b'
tRp261
(I1
(tg8
I00
S'DDu?'
tbag4
(g5
(I0
tS'b'
tRp262
(I1
(tg8
I00
S'\xcd\xccu?'
tbag4
(g5
(I0
tS'b'
tRp263
(I1
(tg8
I00
S'"\xa2p?'
tbag4
(g5
(I0
tS'b'
tRp264
(I1
(tg8
I00
S'\x9a\x99y?'
tbag4
(g5
(I0
tS'b'
tRp265
(I1
(tg8
I00
S'""u?'
tbag4
(g5
(I0
tS'b'
tRp266
(I1
(tg8
I00
S'\x00\xc0v?'
tbag4
(g5
(I0
tS'b'
tRp267
(I1
(tg8
I00
S'\x00@o?'
tbag4
(g5
(I0
tS'b'
tRp268
(I1
(tg8
I00
S'3\xf3w?'
tbag4
(g5
(I0
tS'b'
tRp269
(I1
(tg8
I00
S'f\xa6t?'
tbag4
(g5
(I0
tS'b'
tRp270
(I1
(tg8
I00
S'"\xe2v?'
tbag4
(g5
(I0
tS'b'
tRp271
(I1
(tg8
I00
S'f\xa6r?'
tbag4
(g5
(I0
tS'b'
tRp272
(I1
(tg8
I00
S'\x11Qx?'
tbag4
(g5
(I0
tS'b'
tRp273
(I1
(tg8
I00
S'\x11\xd1\x16?'
tbag4
(g5
(I0
tS'b'
tRp274
(I1
(tg8
I00
S'f&z?'
tbag4
(g5
(I0
tS'b'
tRp275
(I1
(tg8
I00
S'3\xb3q?'
tbag4
(g5
(I0
tS'b'
tRp276
(I1
(tg8
I00
S'\x11\x11x?'
tbag4
(g5
(I0
tS'b'
tRp277
(I1
(tg8
I00
S'\xef.t?'
tbag4
(g5
(I0
tS'b'
tRp278
(I1
(tg8
I00
S'3\xb3w?'
tbag4
(g5
(I0
tS'b'
tRp279
(I1
(tg8
I00
S'\x00@x?'
tbag4
(g5
(I0
tS'b'
tRp280
(I1
(tg8
I00
S'ffp?'
tbag4
(g5
(I0
tS'b'
tRp281
(I1
(tg8
I00
S'\x00\xc0{?'
tbag4
(g5
(I0
tS'b'
tRp282
(I1
(tg8
I00
S'DDv?'
tbag4
(g5
(I0
tS'b'
tRp283
(I1
(tg8
I00
S'\x11\x11x?'
tbag4
(g5
(I0
tS'b'
tRp284
(I1
(tg8
I00
S'\xcdLu?'
tbag4
(g5
(I0
tS'b'
tRp285
(I1
(tg8
I00
S'\xab*y?'
tbag4
(g5
(I0
tS'b'
tRp286
(I1
(tg8
I00
S'D\x04r?'
tbag4
(g5
(I0
tS'b'
tRp287
(I1
(tg8
I00
S'DDz?'
tbag4
(g5
(I0
tS'b'
tRp288
(I1
(tg8
I00
S'UUY?'
tbag4
(g5
(I0
tS'b'
tRp289
(I1
(tg8
I00
S'\x00\x80t?'
tbag4
(g5
(I0
tS'b'
tRp290
(I1
(tg8
I00
S'\xde\x9dv?'
tbag4
(g5
(I0
tS'b'
tRp291
(I1
(tg8
I00
S'\xde\xdd*?'
tbag4
(g5
(I0
tS'b'
tRp292
(I1
(tg8
I00
S'f\xa6r?'
tbag4
(g5
(I0
tS'b'
tRp293
(I1
(tg8
I00
S'U\xd5x?'
tbag4
(g5
(I0
tS'b'
tRp294
(I1
(tg8
I00
S'U\x15s?'
tbag4
(g5
(I0
tS'b'
tRp295
(I1
(tg8
I00
S'\xef\xeey?'
tbag4
(g5
(I0
tS'b'
tRp296
(I1
(tg8
I00
S'\xbc{p?'
tbag4
(g5
(I0
tS'b'
tRp297
(I1
(tg8
I00
S'\xcd\x8cz?'
tbag4
(g5
(I0
tS'b'
tRp298
(I1
(tg8
I00
S'\x11Qv?'
tbag4
(g5
(I0
tS'b'
tRp299
(I1
(tg8
I00
S'\x89\xc8x?'
tbag4
(g5
(I0
tS'b'
tRp300
(I1
(tg8
I00
S'\x89\x88u?'
tbag4
(g5
(I0
tS'b'
tRp301
(I1
(tg8
I00
S'3sx?'
tbag4
(g5
(I0
tS'b'
tRp302
(I1
(tg8
I00
S'\x00\xc0\x18?'
tbag4
(g5
(I0
tS'b'
tRp303
(I1
(tg8
I00
S'\xbc\xbbw?'
tbag4
(g5
(I0
tS'b'
tRp304
(I1
(tg8
I00
S'33y?'
tbag4
(g5
(I0
tS'b'
tRp305
(I1
(tg8
I00
S'w\xb7o?'
tbag4
(g5
(I0
tS'b'
tRp306
(I1
(tg8
I00
S'"by?'
tbag4
(g5
(I0
tS'b'
tRp307
(I1
(tg8
I00
S'3su?'
tbag4
(g5
(I0
tS'b'
tRp308
(I1
(tg8
I00
S'\x89\x08y?'
tbag4
(g5
(I0
tS'b'
tRp309
(I1
(tg8
I00
S'\xab\xaay?'
tbag4
(g5
(I0
tS'b'
tRp310
(I1
(tg8
I00
S'\x89Ht?'
tbag4
(g5
(I0
tS'b'
tRp311
(I1
(tg8
I00
S'\xab\xaa{?'
tbag4
(g5
(I0
tS'b'
tRp312
(I1
(tg8
I00
S'\xcd\x0cr?'
tbag4
(g5
(I0
tS'b'
tRp313
(I1
(tg8
I00
S'\x00\xc0z?'
tbag4
(g5
(I0
tS'b'
tRp314
(I1
(tg8
I00
S'w7v?'
tbag4
(g5
(I0
tS'b'
tRp315
(I1
(tg8
I00
S'\x00\x00z?'
tbag4
(g5
(I0
tS'b'
tRp316
(I1
(tg8
I00
S'\xbc{y?'
tbag4
(g5
(I0
tS'b'
tRp317
(I1
(tg8
I00
S'\xefnx?'
tbag4
(g5
(I0
tS'b'
tRp318
(I1
(tg8
I00
S'"bw?'
tbag4
(g5
(I0
tS'b'
tRp319
(I1
(tg8
I00
S'U\xd5x?'
tbag4
(g5
(I0
tS'b'
tRp320
(I1
(tg8
I00
S'\xbc;t?'
tbag4
(g5
(I0
tS'b'
tRp321
(I1
(tg8
I00
S'U\xd5x?'
tbag4
(g5
(I0
tS'b'
tRp322
(I1
(tg8
I00
S'\xabjw?'
tbag4
(g5
(I0
tS'b'
tRp323
(I1
(tg8
I00
S'\xab\xaav?'
tbag4
(g5
(I0
tS'b'
tRp324
(I1
(tg8
I00
S'\xab*w?'
tbag4
(g5
(I0
tS'b'
tRp325
(I1
(tg8
I00
S'\x89\xc8w?'
tbag4
(g5
(I0
tS'b'
tRp326
(I1
(tg8
I00
S'\xbc{x?'
tbag4
(g5
(I0
tS'b'
tRp327
(I1
(tg8
I00
S'\xef.s?'
tbag4
(g5
(I0
tS'b'
tRp328
(I1
(tg8
I00
S'U\xd5x?'
tbag4
(g5
(I0
tS'b'
tRp329
(I1
(tg8
I00
S'\xab\xaau?'
tbag4
(g5
(I0
tS'b'
tRp330
(I1
(tg8
I00
S'\xcdLz?'
tbag4
(g5
(I0
tS'b'
tRp331
(I1
(tg8
I00
S'\x89\x88q?'
tbag4
(g5
(I0
tS'b'
tRp332
(I1
(tg8
I00
S'3\xf3y?'
tbag4
(g5
(I0
tS'b'
tRp333
(I1
(tg8
I00
S'33w?'
tbag4
(g5
(I0
tS'b'
tRp334
(I1
(tg8
I00
S'\x89Hz?'
tbag4
(g5
(I0
tS'b'
tRp335
(I1
(tg8
I00
S'\x89\xc8u?'
tbag4
(g5
(I0
tS'b'
tRp336
(I1
(tg8
I00
S'\xab*{?'
tbag4
(g5
(I0
tS'b'
tRp337
(I1
(tg8
I00
S'\x11\xd1t?'
tbag4
(g5
(I0
tS'b'
tRp338
(I1
(tg8
I00
S'\x00\xc0z?'
tbag4
(g5
(I0
tS'b'
tRp339
(I1
(tg8
I00
S'\x00@x?'
tbag4
(g5
(I0
tS'b'
tRp340
(I1
(tg8
I00
S'ffz?'
tbag4
(g5
(I0
tS'b'
tRp341
(I1
(tg8
I00
S'\xabju?'
tbag4
(g5
(I0
tS'b'
tRp342
(I1
(tg8
I00
S'\x9a\x99y?'
tbag4
(g5
(I0
tS'b'
tRp343
(I1
(tg8
I00
S'\xbc;u?'
tbag4
(g5
(I0
tS'b'
tRp344
(I1
(tg8
I00
S'\xcdLz?'
tbag4
(g5
(I0
tS'b'
tRp345
(I1
(tg8
I00
S'\xde\xddx?'
tbag4
(g5
(I0
tS'b'
tRp346
(I1
(tg8
I00
S'\x89\x08|?'
tbag4
(g5
(I0
tS'b'
tRp347
(I1
(tg8
I00
S'\x11\x91s?'
tbag4
(g5
(I0
tS'b'
tRp348
(I1
(tg8
I00
S'w\xf7{?'
tbag4
(g5
(I0
tS'b'
tRp349
(I1
(tg8
I00
S'f\xe6w?'
tbag4
(g5
(I0
tS'b'
tRp350
(I1
(tg8
I00
S'\xde]z?'
tbag4
(g5
(I0
tS'b'
tRp351
(I1
(tg8
I00
S'\x9a\xd9u?'
tbag4
(g5
(I0
tS'b'
tRp352
(I1
(tg8
I00
S'\xbc{z?'
tbag4
(g5
(I0
tS'b'
tRp353
(I1
(tg8
I00
S'\xde]w?'
tbag4
(g5
(I0
tS'b'
tRp354
(I1
(tg8
I00
S'\x00\x80x?'
tbag4
(g5
(I0
tS'b'
tRp355
(I1
(tg8
I00
S'D\xc4w?'
tbag4
(g5
(I0
tS'b'
tRp356
(I1
(tg8
I00
S'\x9a\xd9y?'
tbag4
(g5
(I0
tS'b'
tRp357
(I1
(tg8
I00
S'\xde\x1dv?'
tbag4
(g5
(I0
tS'b'
tRp358
(I1
(tg8
I00
S'\xde\x9dy?'
tbag4
(g5
(I0
tS'b'
tRp359
(I1
(tg8
I00
S'\xef\xeex?'
tbag4
(g5
(I0
tS'b'
tRp360
(I1
(tg8
I00
S'""z?'
tbag4
(g5
(I0
tS'b'
tRp361
(I1
(tg8
I00
S'\x11Qx?'
tbag4
(g5
(I0
tS'b'
tRp362
(I1
(tg8
I00
S'\xcdLw?'
tbag4
(g5
(I0
tS'b'
tRp363
(I1
(tg8
I00
S'\x11\x11{?'
tbag4
(g5
(I0
tS'b'
tRp364
(I1
(tg8
I00
S'""z?'
tbag4
(g5
(I0
tS'b'
tRp365
(I1
(tg8
I00
S'U\x95y?'
tbag4
(g5
(I0
tS'b'
tRp366
(I1
(tg8
I00
S'\x89\x08{?'
tbag4
(g5
(I0
tS'b'
tRp367
(I1
(tg8
I00
S'\x00\x80u?'
tbag4
(g5
(I0
tS'b'
tRp368
(I1
(tg8
I00
S'w\xf7y?'
tbag4
(g5
(I0
tS'b'
tRp369
(I1
(tg8
I00
S'\x89\xc8.?'
tbag4
(g5
(I0
tS'b'
tRp370
(I1
(tg8
I00
S'3sy?'
tbag4
(g5
(I0
tS'b'
tRp371
(I1
(tg8
I00
S'D\x04z?'
tbag4
(g5
(I0
tS'b'
tRp372
(I1
(tg8
I00
S'\xcd\x0ct?'
tbag4
(g5
(I0
tS'b'
tRp373
(I1
(tg8
I00
S'\x89\x88|?'
tbag4
(g5
(I0
tS'b'
tRp374
(I1
(tg8
I00
S'f\xa6v?'
tbag4
(g5
(I0
tS'b'
tRp375
(I1
(tg8
I00
S'"bz?'
tbag4
(g5
(I0
tS'b'
tRp376
(I1
(tg8
I00
S'3\xb3w?'
tbag4
(g5
(I0
tS'b'
tRp377
(I1
(tg8
I00
S'\xde\x9dz?'
tbag4
(g5
(I0
tS'b'
tRp378
(I1
(tg8
I00
S'D\x84x?'
tbag4
(g5
(I0
tS'b'
tRp379
(I1
(tg8
I00
S'D\xc4z?'
tbag4
(g5
(I0
tS'b'
tRp380
(I1
(tg8
I00
S'UUw?'
tbag4
(g5
(I0
tS'b'
tRp381
(I1
(tg8
I00
S'"\xe2y?'
tbag4
(g5
(I0
tS'b'
tRp382
(I1
(tg8
I00
S'\x89\x88u?'
tbag4
(g5
(I0
tS'b'
tRp383
(I1
(tg8
I00
S'33z?'
tbag4
(g5
(I0
tS'b'
tRp384
(I1
(tg8
I00
S'""u?'
tbag4
(g5
(I0
tS'b'
tRp385
(I1
(tg8
I00
S'\x89\xc8z?'
tbag4
(g5
(I0
tS'b'
tRp386
(I1
(tg8
I00
S'\x11\xd1t?'
tbag4
(g5
(I0
tS'b'
tRp387
(I1
(tg8
I00
S'\x00\x80{?'
tbag4
(g5
(I0
tS'b'
tRp388
(I1
(tg8
I00
S'\xbc\xbbr?'
tbag4
(g5
(I0
tS'b'
tRp389
(I1
(tg8
I00
S'D\x84u?'
tbag4
(g5
(I0
tS'b'
tRp390
(I1
(tg8
I00
S'\xde\xddz?'
tbag4
(g5
(I0
tS'b'
tRp391
(I1
(tg8
I00
S'\x89\x08x?'
tbag4
(g5
(I0
tS'b'
tRp392
(I1
(tg8
I00
S'UUy?'
tbag4
(g5
(I0
tS'b'
tRp393
(I1
(tg8
I00
S'\xcd\x8cy?'
tbag4
(g5
(I0
tS'b'
tRp394
(I1
(tg8
I00
S'\x9a\x99{?'
tbag4
(g5
(I0
tS'b'
tRp395
(I1
(tg8
I00
S'"\xe2w?'
tbag4
(g5
(I0
tS'b'
tRp396
(I1
(tg8
I00
S'"\xe2|?'
tbag4
(g5
(I0
tS'b'
tRp397
(I1
(tg8
I00
S'\xbc;1?'
tbag4
(g5
(I0
tS'b'
tRp398
(I1
(tg8
I00
S'\xcd\xccw?'
tbag4
(g5
(I0
tS'b'
tRp399
(I1
(tg8
I00
S'3\xb3{?'
tbag4
(g5
(I0
tS'b'
tRp400
(I1
(tg8
I00
S'U\x15i?'
tbag4
(g5
(I0
tS'b'
tRp401
(I1
(tg8
I00
S'f&{?'
tbag4
(g5
(I0
tS'b'
tRp402
(I1
(tg8
I00
S'DDz?'
tbag4
(g5
(I0
tS'b'
tRp403
(I1
(tg8
I00
S'f&u?'
tbag4
(g5
(I0
tS'b'
tRp404
(I1
(tg8
I00
S'\xefn{?'
tbag4
(g5
(I0
tS'b'
tRp405
(I1
(tg8
I00
S'UUu?'
tbag4
(g5
(I0
tS'b'
tRp406
(I1
(tg8
I00
S'D\x84z?'
tbag4
(g5
(I0
tS'b'
tRp407
(I1
(tg8
I00
S'\xcdLx?'
tbag4
(g5
(I0
tS'b'
tRp408
(I1
(tg8
I00
S'D\xc4y?'
tbag4
(g5
(I0
tS'b'
tRp409
(I1
(tg8
I00
S'w\xb7{?'
tbag4
(g5
(I0
tS'b'
tRp410
(I1
(tg8
I00
S'\xab\xeaz?'
tbag4
(g5
(I0
tS'b'
tRp411
(I1
(tg8
I00
S'U\x15y?'
tbag4
(g5
(I0
tS'b'
tRp412
(I1
(tg8
I00
S'f&z?'
tbag4
(g5
(I0
tS'b'
tRp413
(I1
(tg8
I00
S'D\xc4y?'
tbag4
(g5
(I0
tS'b'
tRp414
(I1
(tg8
I00
S'3\xf3w?'
tbag4
(g5
(I0
tS'b'
tRp415
(I1
(tg8
I00
S'f\xe6x?'
tbag4
(g5
(I0
tS'b'
tRp416
(I1
(tg8
I00
S'wwz?'
tbag4
(g5
(I0
tS'b'
tRp417
(I1
(tg8
I00
S'\xcd\x0cz?'
tbag4
(g5
(I0
tS'b'
tRp418
(I1
(tg8
I00
S'ffz?'
tbag4
(g5
(I0
tS'b'
tRp419
(I1
(tg8
I00
S'f\xa6z?'
tbag4
(g5
(I0
tS'b'
tRp420
(I1
(tg8
I00
S'D\xc4x?'
tbag4
(g5
(I0
tS'b'
tRp421
(I1
(tg8
I00
S'\x00@z?'
tbag4
(g5
(I0
tS'b'
tRp422
(I1
(tg8
I00
S'w\xf7z?'
tbag4
(g5
(I0
tS'b'
tRp423
(I1
(tg8
I00
S'\x00\x00x?'
tbag4
(g5
(I0
tS'b'
tRp424
(I1
(tg8
I00
S'\x9a\xd9{?'
tbag4
(g5
(I0
tS'b'
tRp425
(I1
(tg8
I00
S'D\xc4x?'
tbag4
(g5
(I0
tS'b'
tRp426
(I1
(tg8
I00
S'D\xc4z?'
tbag4
(g5
(I0
tS'b'
tRp427
(I1
(tg8
I00
S'\xde\x1dZ?'
tbag4
(g5
(I0
tS'b'
tRp428
(I1
(tg8
I00
S'f&z?'
tbag4
(g5
(I0
tS'b'
tRp429
(I1
(tg8
I00
S'\x11\x11{?'
tbag4
(g5
(I0
tS'b'
tRp430
(I1
(tg8
I00
S'\xabjq?'
tbag4
(g5
(I0
tS'b'
tRp431
(I1
(tg8
I00
S'\xde\x9d|?'
tbag4
(g5
(I0
tS'b'
tRp432
(I1
(tg8
I00
S'ww|?'
tbag4
(g5
(I0
tS'b'
tRp433
(I1
(tg8
I00
S'\x00\x80M?'
tbag4
(g5
(I0
tS'b'
tRp434
(I1
(tg8
I00
S'\xef.z?'
tbag4
(g5
(I0
tS'b'
tRp435
(I1
(tg8
I00
S'U\x15{?'
tbag4
(g5
(I0
tS'b'
tRp436
(I1
(tg8
I00
S'U\xd5{?'
tbag4
(g5
(I0
tS'b'
tRp437
(I1
(tg8
I00
S'\x89H|?'
tbag4
(g5
(I0
tS'b'
tRp438
(I1
(tg8
I00
S'D\x04|?'
tbag4
(g5
(I0
tS'b'
tRp439
(I1
(tg8
I00
S'\xabj}?'
tbag4
(g5
(I0
tS'b'
tRp440
(I1
(tg8
I00
S'ffx?'
tbag4
(g5
(I0
tS'b'
tRp441
(I1
(tg8
I00
S'\x89\x08|?'
tbag4
(g5
(I0
tS'b'
tRp442
(I1
(tg8
I00
S'""{?'
tbag4
(g5
(I0
tS'b'
tRp443
(I1
(tg8
I00
S'w7{?'
tbag4
(g5
(I0
tS'b'
tRp444
(I1
(tg8
I00
S'\xbc\xfbx?'
tbag4
(g5
(I0
tS'b'
tRp445
(I1
(tg8
I00
S'\x11\xd1x?'
tbag4
(g5
(I0
tS'b'
tRp446
(I1
(tg8
I00
S'"bz?'
tbag4
(g5
(I0
tS'b'
tRp447
(I1
(tg8
I00
S'33y?'
tbag4
(g5
(I0
tS'b'
tRp448
(I1
(tg8
I00
S'f\xe6{?'
tbag4
(g5
(I0
tS'b'
tRp449
(I1
(tg8
I00
S'U\x95v?'
tbag4
(g5
(I0
tS'b'
tRp450
(I1
(tg8
I00
S'\x9a\xd9z?'
tbag4
(g5
(I0
tS'b'
tRp451
(I1
(tg8
I00
S'\x00@w?'
tbag4
(g5
(I0
tS'b'
tRp452
(I1
(tg8
I00
S'\xcdL|?'
tbag4
(g5
(I0
tS'b'
tRp453
(I1
(tg8
I00
S'DDy?'
tbag4
(g5
(I0
tS'b'
tRp454
(I1
(tg8
I00
S'\x11Q{?'
tbag4
(g5
(I0
tS'b'
tRp455
(I1
(tg8
I00
S'\x89\xc8z?'
tbag4
(g5
(I0
tS'b'
tRp456
(I1
(tg8
I00
S'3\xf3z?'
tbag4
(g5
(I0
tS'b'
tRp457
(I1
(tg8
I00
S'3\xf3{?'
tbag4
(g5
(I0
tS'b'
tRp458
(I1
(tg8
I00
S'\xcdLz?'
tbag4
(g5
(I0
tS'b'
tRp459
(I1
(tg8
I00
S'3sz?'
tbag4
(g5
(I0
tS'b'
tRp460
(I1
(tg8
I00
S'"\xe2y?'
tbag4
(g5
(I0
tS'b'
tRp461
(I1
(tg8
I00
S'D\xc4|?'
tbag4
(g5
(I0
tS'b'
tRp462
(I1
(tg8
I00
S'w7z?'
tbag4
(g5
(I0
tS'b'
tRp463
(I1
(tg8
I00
S'\xef.|?'
tbag4
(g5
(I0
tS'b'
tRp464
(I1
(tg8
I00
S'"\xe2y?'
tbag4
(g5
(I0
tS'b'
tRp465
(I1
(tg8
I00
S'33|?'
tbag4
(g5
(I0
tS'b'
tRp466
(I1
(tg8
I00
S'3\xf3z?'
tbag4
(g5
(I0
tS'b'
tRp467
(I1
(tg8
I00
S'U\x15{?'
tbag4
(g5
(I0
tS'b'
tRp468
(I1
(tg8
I00
S'\xbc{w?'
tbag4
(g5
(I0
tS'b'
tRp469
(I1
(tg8
I00
S'\xefnz?'
tbag4
(g5
(I0
tS'b'
tRp470
(I1
(tg8
I00
S'""z?'
tbag4
(g5
(I0
tS'b'
tRp471
(I1
(tg8
I00
S'\xde]|?'
tbag4
(g5
(I0
tS'b'
tRp472
(I1
(tg8
I00
S'\xef\xeey?'
tbag4
(g5
(I0
tS'b'
tRp473
(I1
(tg8
I00
S'\xab*{?'
tbag4
(g5
(I0
tS'b'
tRp474
(I1
(tg8
I00
S'\x9a\xd9{?'
tbag4
(g5
(I0
tS'b'
tRp475
(I1
(tg8
I00
S'\xde\x1d{?'
tbag4
(g5
(I0
tS'b'
tRp476
(I1
(tg8
I00
S'f\xa6y?'
tbag4
(g5
(I0
tS'b'
tRp477
(I1
(tg8
I00
S'f\xa6z?'
tbag4
(g5
(I0
tS'b'
tRp478
(I1
(tg8
I00
S'\x00\xc0y?'
tbag4
(g5
(I0
tS'b'
tRp479
(I1
(tg8
I00
S'\xab*z?'
tbag4
(g5
(I0
tS'b'
tRp480
(I1
(tg8
I00
S'\xbc\xbb{?'
tbag4
(g5
(I0
tS'b'
tRp481
(I1
(tg8
I00
S'\x11\x11{?'
tbag4
(g5
(I0
tS'b'
tRp482
(I1
(tg8
I00
S'\xefny?'
tbag4
(g5
(I0
tS'b'
tRp483
(I1
(tg8
I00
S'\x00\xc0z?'
tbag4
(g5
(I0
tS'b'
tRp484
(I1
(tg8
I00
S'f\xa6y?'
tbag4
(g5
(I0
tS'b'
tRp485
(I1
(tg8
I00
S'\x9a\xd9z?'
tbag4
(g5
(I0
tS'b'
tRp486
(I1
(tg8
I00
S'ww|?'
tbag4
(g5
(I0
tS'b'
tRp487
(I1
(tg8
I00
S'"\xa2z?'
tbag4
(g5
(I0
tS'b'
tRp488
(I1
(tg8
I00
S'\xab*z?'
tbag4
(g5
(I0
tS'b'
tRp489
(I1
(tg8
I00
S'U\x95y?'
tbag4
(g5
(I0
tS'b'
tRp490
(I1
(tg8
I00
S'U\x95{?'
tbag4
(g5
(I0
tS'b'
tRp491
(I1
(tg8
I00
S'ffz?'
tbag4
(g5
(I0
tS'b'
tRp492
(I1
(tg8
I00
S'\xabj{?'
tbag4
(g5
(I0
tS'b'
tRp493
(I1
(tg8
I00
S'\x11Qy?'
tbag4
(g5
(I0
tS'b'
tRp494
(I1
(tg8
I00
S'\x9a\x99{?'
tbag4
(g5
(I0
tS'b'
tRp495
(I1
(tg8
I00
S'\x00\x80y?'
tbag4
(g5
(I0
tS'b'
tRp496
(I1
(tg8
I00
S'\xab\xea|?'
tbag4
(g5
(I0
tS'b'
tRp497
(I1
(tg8
I00
S'\x00\xc0y?'
tbag4
(g5
(I0
tS'b'
tRp498
(I1
(tg8
I00
S'\xcd\xcc}?'
tbag4
(g5
(I0
tS'b'
tRp499
(I1
(tg8
I00
S'"\xa2~?'
tbag4
(g5
(I0
tS'b'
tRp500
(I1
(tg8
I00
S'\xbc\xbbT?'
tbag4
(g5
(I0
tS'b'
tRp501
(I1
(tg8
I00
S'\xde]|?'
tbag4
(g5
(I0
tS'b'
tRp502
(I1
(tg8
I00
S'\xbc\xbb|?'
tbag4
(g5
(I0
tS'b'
tRp503
(I1
(tg8
I00
S'\xde\x9dz?'
tbag4
(g5
(I0
tS'b'
tRp504
(I1
(tg8
I00
S'\xbc;|?'
tbag4
(g5
(I0
tS'b'
tRp505
(I1
(tg8
I00
S'\x89\x08{?'
tbag4
(g5
(I0
tS'b'
tRp506
(I1
(tg8
I00
S'\xab\xaa|?'
tbag4
(g5
(I0
tS'b'
tRp507
(I1
(tg8
I00
S'\xbc{|?'
tbag4
(g5
(I0
tS'b'
tRp508
(I1
(tg8
I00
S'U\x95{?'
tbag4
(g5
(I0
tS'b'
tRp509
(I1
(tg8
I00
S'D\x84z?'
tbag4
(g5
(I0
tS'b'
tRp510
(I1
(tg8
I00
S'\x11\x91{?'
tbag4
(g5
(I0
tS'b'
tRp511
(I1
(tg8
I00
S'w\xb7{?'
tbag4
(g5
(I0
tS'b'
tRp512
(I1
(tg8
I00
S'\x11Q{?'
tbag4
(g5
(I0
tS'b'
tRp513
(I1
(tg8
I00
S'\xcd\x8c|?'
tbag4
(g5
(I0
tS'b'
tRp514
(I1
(tg8
I00
S'\xde\x1dz?'
tbag4
(g5
(I0
tS'b'
tRp515
(I1
(tg8
I00
S'\x11\x11|?'
tbag4
(g5
(I0
tS'b'
tRp516
(I1
(tg8
I00
S'\x11\xd1x?'
tbag4
(g5
(I0
tS'b'
tRp517
(I1
(tg8
I00
S'\x9aY|?'
tbag4
(g5
(I0
tS'b'
tRp518
(I1
(tg8
I00
S'\x89\xc8y?'
tbag4
(g5
(I0
tS'b'
tRp519
(I1
(tg8
I00
S'\xbc;{?'
tbag4
(g5
(I0
tS'b'
tRp520
(I1
(tg8
I00
S'\xcd\x8cz?'
tbag4
(g5
(I0
tS'b'
tRp521
(I1
(tg8
I00
S'\xab*|?'
tbag4
(g5
(I0
tS'b'
tRp522
(I1
(tg8
I00
S'DDw?'
tbag4
(g5
(I0
tS'b'
tRp523
(I1
(tg8
I00
S'\xde\xdd{?'
tbag4
(g5
(I0
tS'b'
tRp524
(I1
(tg8
I00
S'\x11\x11w?'
tbag4
(g5
(I0
tS'b'
tRp525
(I1
(tg8
I00
S'\x11Q|?'
tbag4
(g5
(I0
tS'b'
tRp526
(I1
(tg8
I00
S'\x9a\xd9w?'
tbag4
(g5
(I0
tS'b'
tRp527
(I1
(tg8
I00
S'\x89\xc8{?'
tbag4
(g5
(I0
tS'b'
tRp528
(I1
(tg8
I00
S'"bw?'
tbag4
(g5
(I0
tS'b'
tRp529
(I1
(tg8
I00
S'3s|?'
tbag4
(g5
(I0
tS'b'
tRp530
(I1
(tg8
I00
S'\xabjz?'
tbag4
(g5
(I0
tS'b'
tRp531
(I1
(tg8
I00
S'U\x15}?'
tbag4
(g5
(I0
tS'b'
tRp532
(I1
(tg8
I00
S'\xcd\x8c{?'
tbag4
(g5
(I0
tS'b'
tRp533
(I1
(tg8
I00
S'"b{?'
tbag4
(g5
(I0
tS'b'
tRp534
(I1
(tg8
I00
S'\xef\xeey?'
tbag4
(g5
(I0
tS'b'
tRp535
(I1
(tg8
I00
S'\xab*{?'
tbag4
(g5
(I0
tS'b'
tRp536
(I1
(tg8
I00
S'DD{?'
tbag4
(g5
(I0
tS'b'
tRp537
(I1
(tg8
I00
S'U\x95{?'
tbag4
(g5
(I0
tS'b'
tRp538
(I1
(tg8
I00
S'\xbc{{?'
tbag4
(g5
(I0
tS'b'
tRp539
(I1
(tg8
I00
S'\x00\xc0{?'
tbag4
(g5
(I0
tS'b'
tRp540
(I1
(tg8
I00
S'\xcd\x0cz?'
tbag4
(g5
(I0
tS'b'
tRp541
(I1
(tg8
I00
S'D\x84z?'
tbag4
(g5
(I0
tS'b'
tRp542
(I1
(tg8
I00
S'\xabj{?'
tbag4
(g5
(I0
tS'b'
tRp543
(I1
(tg8
I00
S'\x00\x80{?'
tbag4
(g5
(I0
tS'b'
tRp544
(I1
(tg8
I00
S'ff{?'
tbag4
(g5
(I0
tS'b'
tRp545
(I1
(tg8
I00
S'"\xe2z?'
tbag4
(g5
(I0
tS'b'
tRp546
(I1
(tg8
I00
S'\xbc{{?'
tbag4
(g5
(I0
tS'b'
tRp547
(I1
(tg8
I00
S'\xbc\xbbz?'
tbag4
(g5
(I0
tS'b'
tRp548
(I1
(tg8
I00
S'"\xe2z?'
tbag4
(g5
(I0
tS'b'
tRp549
(I1
(tg8
I00
S'\x00\x00{?'
tbag4
(g5
(I0
tS'b'
tRp550
(I1
(tg8
I00
S'\xbc;|?'
tbag4
(g5
(I0
tS'b'
tRp551
(I1
(tg8
I00
S'\xde]{?'
tbag4
(g5
(I0
tS'b'
tRp552
(I1
(tg8
I00
S'\xab*|?'
tbag4
(g5
(I0
tS'b'
tRp553
(I1
(tg8
I00
S'\xcd\xcc{?'
tbag4
(g5
(I0
tS'b'
tRp554
(I1
(tg8
I00
S'33{?'
tbag4
(g5
(I0
tS'b'
tRp555
(I1
(tg8
I00
S'33{?'
tbag4
(g5
(I0
tS'b'
tRp556
(I1
(tg8
I00
S'\xde\xdd{?'
tbag4
(g5
(I0
tS'b'
tRp557
(I1
(tg8
I00
S'D\xc4y?'
tbag4
(g5
(I0
tS'b'
tRp558
(I1
(tg8
I00
S'""|?'
tbag4
(g5
(I0
tS'b'
tRp559
(I1
(tg8
I00
S'\x89Hy?'
tbag4
(g5
(I0
tS'b'
tRp560
(I1
(tg8
I00
S'\x9a\x99{?'
tbag4
(g5
(I0
tS'b'
tRp561
(I1
(tg8
I00
S'D\x84w?'
tbag4
(g5
(I0
tS'b'
tRp562
(I1
(tg8
I00
S'UU}?'
tbag4
(g5
(I0
tS'b'
tRp563
(I1
(tg8
I00
S'\x00\x00y?'
tbag4
(g5
(I0
tS'b'
tRp564
(I1
(tg8
I00
S'""|?'
tbag4
(g5
(I0
tS'b'
tRp565
(I1
(tg8
I00
S'\xcd\x0cx?'
tbag4
(g5
(I0
tS'b'
tRp566
(I1
(tg8
I00
S'33}?'
tbag4
(g5
(I0
tS'b'
tRp567
(I1
(tg8
I00
S'3\xf3y?'
tbag4
(g5
(I0
tS'b'
tRp568
(I1
(tg8
I00
S'\xcd\x8c|?'
tbag4
(g5
(I0
tS'b'
tRp569
(I1
(tg8
I00
S'\x89Hz?'
tbag4
(g5
(I0
tS'b'
tRp570
(I1
(tg8
I00
S'\xcd\x8c{?'
tbag4
(g5
(I0
tS'b'
tRp571
(I1
(tg8
I00
S'\x00\xc0z?'
tbag4
(g5
(I0
tS'b'
tRp572
(I1
(tg8
I00
S'\x11\x11|?'
tbag4
(g5
(I0
tS'b'
tRp573
(I1
(tg8
I00
S'3sx?'
tbag4
(g5
(I0
tS'b'
tRp574
(I1
(tg8
I00
S'\x9a\x19|?'
tbag4
(g5
(I0
tS'b'
tRp575
(I1
(tg8
I00
S'\x00\x80{?'
tbag4
(g5
(I0
tS'b'
tRp576
(I1
(tg8
I00
S'\xde\x1d|?'
tbag4
(g5
(I0
tS'b'
tRp577
(I1
(tg8
I00
S'U\xd5{?'
tbag4
(g5
(I0
tS'b'
tRp578
(I1
(tg8
I00
S'\x00\xc0{?'
tbag4
(g5
(I0
tS'b'
tRp579
(I1
(tg8
I00
S'\xef\xaez?'
tbag4
(g5
(I0
tS'b'
tRp580
(I1
(tg8
I00
S'UU{?'
tbag4
(g5
(I0
tS'b'
tRp581
(I1
(tg8
I00
S'U\x95{?'
tbag4
(g5
(I0
tS'b'
tRp582
(I1
(tg8
I00
S'\x11\x91}?'
tbag4
(g5
(I0
tS'b'
tRp583
(I1
(tg8
I00
S'\xde\x9d{?'
tbag4
(g5
(I0
tS'b'
tRp584
(I1
(tg8
I00
S'w\xb7{?'
tbag4
(g5
(I0
tS'b'
tRp585
(I1
(tg8
I00
S'w7z?'
tbag4
(g5
(I0
tS'b'
tRp586
(I1
(tg8
I00
S'\x89\x08|?'
tbag4
(g5
(I0
tS'b'
tRp587
(I1
(tg8
I00
S'U\xd5{?'
tbag4
(g5
(I0
tS'b'
tRp588
(I1
(tg8
I00
S'\xcdL|?'
tbag4
(g5
(I0
tS'b'
tRp589
(I1
(tg8
I00
S'\x9a\x99{?'
tbag4
(g5
(I0
tS'b'
tRp590
(I1
(tg8
I00
S'\xab\xea{?'
tbag4
(g5
(I0
tS'b'
tRp591
(I1
(tg8
I00
S'""|?'
tbag4
(g5
(I0
tS'b'
tRp592
(I1
(tg8
I00
S'\xde\x1d|?'
tbag4
(g5
(I0
tS'b'
tRp593
(I1
(tg8
I00
S'\x11\xd1{?'
tbag4
(g5
(I0
tS'b'
tRp594
(I1
(tg8
I00
S'\x89\x88{?'
tbag4
(g5
(I0
tS'b'
tRp595
(I1
(tg8
I00
S'\x00\x80|?'
tbag4
(g5
(I0
tS'b'
tRp596
(I1
(tg8
I00
S'DDz?'
tbag4
(g5
(I0
tS'b'
tRp597
(I1
(tg8
I00
S'\xab\xaa{?'
tbag4
(g5
(I0
tS'b'
tRp598
(I1
(tg8
I00
S'\x00\xc0z?'
tbag4
(g5
(I0
tS'b'
tRp599
(I1
(tg8
I00
S'\x00\xc0{?'
tbag4
(g5
(I0
tS'b'
tRp600
(I1
(tg8
I00
S'wwy?'
tbag4
(g5
(I0
tS'b'
tRp601
(I1
(tg8
I00
S'\x11\x91}?'
tbag4
(g5
(I0
tS'b'
tRp602
(I1
(tg8
I00
S'\xefnF?'
tbag4
(g5
(I0
tS'b'
tRp603
(I1
(tg8
I00
S'\xde\x9d\x10?'
tbag4
(g5
(I0
tS'b'
tRp604
(I1
(tg8
I00
S'\x9a\x99{?'
tbag4
(g5
(I0
tS'b'
tRp605
(I1
(tg8
I00
S'ff}?'
tbag4
(g5
(I0
tS'b'
tRp606
(I1
(tg8
I00
S'\x89Hz?'
tbag4
(g5
(I0
tS'b'
tRp607
(I1
(tg8
I00
S'\x9a\x19}?'
tbag4
(g5
(I0
tS'b'
tRp608
(I1
(tg8
I00
S'\xde\x9d{?'
tbag4
(g5
(I0
tS'b'
tRp609
(I1
(tg8
I00
S'\x11\x11}?'
tbag4
(g5
(I0
tS'b'
tRp610
(I1
(tg8
I00
S'U\xd5|?'
tbag4
(g5
(I0
tS'b'
tRp611
(I1
(tg8
I00
S'\xbc;}?'
tbag4
(g5
(I0
tS'b'
tRp612
(I1
(tg8
I00
S'\x11Q{?'
tbag4
(g5
(I0
tS'b'
tRp613
(I1
(tg8
I00
S'\xbc\xbb|?'
tbag4
(g5
(I0
tS'b'
tRp614
(I1
(tg8
I00
S'\xef\xae{?'
tbag4
(g5
(I0
tS'b'
tRp615
(I1
(tg8
I00
S'\x00\xc0|?'
tbag4
(g5
(I0
tS'b'
tRp616
(I1
(tg8
I00
S'\x89\x88z?'
tbag4
(g5
(I0
tS'b'
tRp617
(I1
(tg8
I00
S'\x00\xc0|?'
tbag4
(g5
(I0
tS'b'
tRp618
(I1
(tg8
I00
S'ff|?'
tbag4
(g5
(I0
tS'b'
tRp619
(I1
(tg8
I00
S'\x9a\x19|?'
tbag4
(g5
(I0
tS'b'
tRp620
(I1
(tg8
I00
S'\xde\x1d|?'
tbag4
(g5
(I0
tS'b'
tRp621
(I1
(tg8
I00
S'UU|?'
tbag4
(g5
(I0
tS'b'
tRp622
(I1
(tg8
I00
S'\x00@|?'
tbag4
(g5
(I0
tS'b'
tRp623
(I1
(tg8
I00
S'\x9a\xd9z?'
tbag4
(g5
(I0
tS'b'
tRp624
(I1
(tg8
I00
S'\xcd\x8c|?'
tbag4
(g5
(I0
tS'b'
tRp625
(I1
(tg8
I00
S'\x00@z?'
tbag4
(g5
(I0
tS'b'
tRp626
(I1
(tg8
I00
S'f\xe6{?'
tbag4
(g5
(I0
tS'b'
tRp627
(I1
(tg8
I00
S'\xbc{y?'
tbag4
(g5
(I0
tS'b'
tRp628
(I1
(tg8
I00
S'\x9a\x19y?'
tbag4
(g5
(I0
tS'b'
tRp629
(I1
(tg8
I00
S'\xde\xddy?'
tbag4
(g5
(I0
tS'b'
tRp630
(I1
(tg8
I00
S'\xde\xddz?'
tbag4
(g5
(I0
tS'b'
tRp631
(I1
(tg8
I00
S'\x9a\xd9y?'
tbag4
(g5
(I0
tS'b'
tRp632
(I1
(tg8
I00
S'\x11\xd1{?'
tbag4
(g5
(I0
tS'b'
tRp633
(I1
(tg8
I00
S'wwz?'
tbag4
(g5
(I0
tS'b'
tRp634
(I1
(tg8
I00
S'D\x84z?'
tbag4
(g5
(I0
tS'b'
tRp635
(I1
(tg8
I00
S'\x89\x88|?'
tbag4
(g5
(I0
tS'b'
tRp636
(I1
(tg8
I00
S'\xcd\x0cz?'
tbag4
(g5
(I0
tS'b'
tRp637
(I1
(tg8
I00
S'U\xd5{?'
tbag4
(g5
(I0
tS'b'
tRp638
(I1
(tg8
I00
S'U\x95z?'
tbag4
(g5
(I0
tS'b'
tRp639
(I1
(tg8
I00
S'\x11\x11{?'
tbag4
(g5
(I0
tS'b'
tRp640
(I1
(tg8
I00
S'\x89Hx?'
tbag4
(g5
(I0
tS'b'
tRp641
(I1
(tg8
I00
S'"\xe2{?'
tbag4
(g5
(I0
tS'b'
tRp642
(I1
(tg8
I00
S'\x89\xc8y?'
tbag4
(g5
(I0
tS'b'
tRp643
(I1
(tg8
I00
S'\x00\x80{?'
tbag4
(g5
(I0
tS'b'
tRp644
(I1
(tg8
I00
S'\xde]{?'
tbag4
(g5
(I0
tS'b'
tRp645
(I1
(tg8
I00
S'w\xb7|?'
tbag4
(g5
(I0
tS'b'
tRp646
(I1
(tg8
I00
S'\xde\x1dz?'
tbag4
(g5
(I0
tS'b'
tRp647
(I1
(tg8
I00
S'w7}?'
tbag4
(g5
(I0
tS'b'
tRp648
(I1
(tg8
I00
S'\x9a\xd9z?'
tbag4
(g5
(I0
tS'b'
tRp649
(I1
(tg8
I00
S'\xbc;}?'
tbag4
(g5
(I0
tS'b'
tRp650
(I1
(tg8
I00
S'\x89\x08z?'
tbag4
(g5
(I0
tS'b'
tRp651
(I1
(tg8
I00
S'D\x84|?'
tbag4
(g5
(I0
tS'b'
tRp652
(I1
(tg8
I00
S'\xef\xae|?'
tbag4
(g5
(I0
tS'b'
tRp653
(I1
(tg8
I00
S'\xde\x9d|?'
tbag4
(g5
(I0
tS'b'
tRp654
(I1
(tg8
I00
S'DD~?'
tbag4
(g5
(I0
tS'b'
tRp655
(I1
(tg8
I00
S'\x00\x80z?'
tbag4
(g5
(I0
tS'b'
tRp656
(I1
(tg8
I00
S'U\xd5}?'
tbag4
(g5
(I0
tS'b'
tRp657
(I1
(tg8
I00
S'w\xb7x?'
tbag4
(g5
(I0
tS'b'
tRp658
(I1
(tg8
I00
S'ff~?'
tbag4
(g5
(I0
tS'b'
tRp659
(I1
(tg8
I00
S'\xde]}?'
tbag4
(g5
(I0
tS'b'
tRp660
(I1
(tg8
I00
S'D\x04~?'
tbag4
(g5
(I0
tS'b'
tRp661
(I1
(tg8
I00
S'\xef\xee{?'
tbag4
(g5
(I0
tS'b'
tRp662
(I1
(tg8
I00
S'3\xf3~?'
tbag4
(g5
(I0
tS'b'
tRp663
(I1
(tg8
I00
S'\x11Q|?'
tbag4
(g5
(I0
tS'b'
tRp664
(I1
(tg8
I00
S'\x9a\xd9~?'
tbag4
(g5
(I0
tS'b'
tRp665
(I1
(tg8
I00
S'\xde]|?'
tbag4
(g5
(I0
tS'b'
tRp666
(I1
(tg8
I00
S'3s~?'
tbag4
(g5
(I0
tS'b'
tRp667
(I1
(tg8
I00
S'"bz?'
tbag4
(g5
(I0
tS'b'
tRp668
(I1
(tg8
I00
S'U\x95}?'
tbag4
(g5
(I0
tS'b'
tRp669
(I1
(tg8
I00
S'\x89H{?'
tbag4
(g5
(I0
tS'b'
tRp670
(I1
(tg8
I00
S'\x9a\xd9|?'
tbag4
(g5
(I0
tS'b'
tRp671
(I1
(tg8
I00
S'\x00\x80|?'
tbag4
(g5
(I0
tS'b'
tRp672
(I1
(tg8
I00
S'\x00\xc0{?'
tbag4
(g5
(I0
tS'b'
tRp673
(I1
(tg8
I00
S'\xbc;z?'
tbag4
(g5
(I0
tS'b'
tRp674
(I1
(tg8
I00
S'\xef.|?'
tbag4
(g5
(I0
tS'b'
tRp675
(I1
(tg8
I00
S'\xef.{?'
tbag4
(g5
(I0
tS'b'
tRp676
(I1
(tg8
I00
S'\x11Q}?'
tbag4
(g5
(I0
tS'b'
tRp677
(I1
(tg8
I00
S'\xcd\x0cy?'
tbag4
(g5
(I0
tS'b'
tRp678
(I1
(tg8
I00
S'33~?'
tbag4
(g5
(I0
tS'b'
tRp679
(I1
(tg8
I00
S'U\xd5z?'
tbag4
(g5
(I0
tS'b'
tRp680
(I1
(tg8
I00
S'UU|?'
tbag4
(g5
(I0
tS'b'
tRp681
(I1
(tg8
I00
S'3\xb3|?'
tbag4
(g5
(I0
tS'b'
tRp682
(I1
(tg8
I00
S'\x00\x80|?'
tbag4
(g5
(I0
tS'b'
tRp683
(I1
(tg8
I00
S'\xef\xae|?'
tbag4
(g5
(I0
tS'b'
tRp684
(I1
(tg8
I00
S'f\xa6z?'
tbag4
(g5
(I0
tS'b'
tRp685
(I1
(tg8
I00
S'w\xf7}?'
tbag4
(g5
(I0
tS'b'
tRp686
(I1
(tg8
I00
S'3\xf3y?'
tbag4
(g5
(I0
tS'b'
tRp687
(I1
(tg8
I00
S'\xefn}?'
tbag4
(g5
(I0
tS'b'
tRp688
(I1
(tg8
I00
S'\x9a\x99{?'
tbag4
(g5
(I0
tS'b'
tRp689
(I1
(tg8
I00
S'\x89\x08~?'
tbag4
(g5
(I0
tS'b'
tRp690
(I1
(tg8
I00
S'\xbc;{?'
tbag4
(g5
(I0
tS'b'
tRp691
(I1
(tg8
I00
S'"\xa2}?'
tbag4
(g5
(I0
tS'b'
tRp692
(I1
(tg8
I00
S'\xef.|?'
tbag4
(g5
(I0
tS'b'
tRp693
(I1
(tg8
I00
S'\xabj~?'
tbag4
(g5
(I0
tS'b'
tRp694
(I1
(tg8
I00
S'\xabj{?'
tbag4
(g5
(I0
tS'b'
tRp695
(I1
(tg8
I00
S'\xefn}?'
tbag4
(g5
(I0
tS'b'
tRp696
(I1
(tg8
I00
S'UU{?'
tbag4
(g5
(I0
tS'b'
tRp697
(I1
(tg8
I00
S'\x00\x80|?'
tbag4
(g5
(I0
tS'b'
tRp698
(I1
(tg8
I00
S'\x89\x88}?'
tbag4
(g5
(I0
tS'b'
tRp699
(I1
(tg8
I00
S'ff{?'
tbag4
(g5
(I0
tS'b'
tRp700
(I1
(tg8
I00
S'\xef\xee}?'
tbag4
(g5
(I0
tS'b'
tRp701
(I1
(tg8
I00
S'\x89\x08z?'
tbag4
(g5
(I0
tS'b'
tRp702
(I1
(tg8
I00
S'w\xb7|?'
tbag4
(g5
(I0
tS'b'
tRp703
(I1
(tg8
I00
S'\x89\xc8{?'
tbag4
(g5
(I0
tS'b'
tRp704
(I1
(tg8
I00
S'U\x15|?'
tbag4
(g5
(I0
tS'b'
tRp705
(I1
(tg8
I00
S'\x11\x91|?'
tbag4
(g5
(I0
tS'b'
tRp706
(I1
(tg8
I00
S'\xab*}?'
tbag4
(g5
(I0
tS'b'
tRp707
(I1
(tg8
I00
S'\xef.|?'
tbag4
(g5
(I0
tS'b'
tRp708
(I1
(tg8
I00
S'\x11Q}?'
tbag4
(g5
(I0
tS'b'
tRp709
(I1
(tg8
I00
S'\x00\x80}?'
tbag4
(g5
(I0
tS'b'
tRp710
(I1
(tg8
I00
S'\xcd\x0c{?'
tbag4
(g5
(I0
tS'b'
tRp711
(I1
(tg8
I00
S'DD}?'
tbag4
(g5
(I0
tS'b'
tRp712
(I1
(tg8
I00
S'U\x15{?'
tbag4
(g5
(I0
tS'b'
tRp713
(I1
(tg8
I00
S'\xcd\xccz?'
tbag4
(g5
(I0
tS'b'
tRp714
(I1
(tg8
I00
S'\x11Q|?'
tbag4
(g5
(I0
tS'b'
tRp715
(I1
(tg8
I00
S'\x11\x91z?'
tbag4
(g5
(I0
tS'b'
tRp716
(I1
(tg8
I00
S'\xcd\x0c}?'
tbag4
(g5
(I0
tS'b'
tRp717
(I1
(tg8
I00
S'\xcdL|?'
tbag4
(g5
(I0
tS'b'
tRp718
(I1
(tg8
I00
S'33{?'
tbag4
(g5
(I0
tS'b'
tRp719
(I1
(tg8
I00
S'\x00\x00{?'
tbag4
(g5
(I0
tS'b'
tRp720
(I1
(tg8
I00
S'\xef\xae{?'
tbag4
(g5
(I0
tS'b'
tRp721
(I1
(tg8
I00
S'\xde\x9dy?'
tbag4
(g5
(I0
tS'b'
tRp722
(I1
(tg8
I00
S'\x00\xc0|?'
tbag4
(g5
(I0
tS'b'
tRp723
(I1
(tg8
I00
S'\x11\x91z?'
tbag4
(g5
(I0
tS'b'
tRp724
(I1
(tg8
I00
S'D\x84}?'
tbag4
(g5
(I0
tS'b'
tRp725
(I1
(tg8
I00
S'\x00\xc0z?'
tbag4
(g5
(I0
tS'b'
tRp726
(I1
(tg8
I00
S'\x00@}?'
tbag4
(g5
(I0
tS'b'
tRp727
(I1
(tg8
I00
S'\x9a\x99|?'
tbag4
(g5
(I0
tS'b'
tRp728
(I1
(tg8
I00
S'\xcdL{?'
tbag4
(g5
(I0
tS'b'
tRp729
(I1
(tg8
I00
S'"b|?'
tbag4
(g5
(I0
tS'b'
tRp730
(I1
(tg8
I00
S'\x11Q{?'
tbag4
(g5
(I0
tS'b'
tRp731
(I1
(tg8
I00
S'\x11\x91}?'
tbag4
(g5
(I0
tS'b'
tRp732
(I1
(tg8
I00
S'""}?'
tbag4
(g5
(I0
tS'b'
tRp733
(I1
(tg8
I00
S'\x89\x08}?'
tbag4
(g5
(I0
tS'b'
tRp734
(I1
(tg8
I00
S'"b}?'
tbag4
(g5
(I0
tS'b'
tRp735
(I1
(tg8
I00
S'U\x15|?'
tbag4
(g5
(I0
tS'b'
tRp736
(I1
(tg8
I00
S'\x11Q}?'
tbag4
(g5
(I0
tS'b'
tRp737
(I1
(tg8
I00
S'\x00@|?'
tbag4
(g5
(I0
tS'b'
tRp738
(I1
(tg8
I00
S'D\xc4}?'
tbag4
(g5
(I0
tS'b'
tRp739
(I1
(tg8
I00
S'\xef\xae}?'
tbag4
(g5
(I0
tS'b'
tRp740
(I1
(tg8
I00
S'U\xd5}?'
tbag4
(g5
(I0
tS'b'
tRp741
(I1
(tg8
I00
S'\x00\x80{?'
tbag4
(g5
(I0
tS'b'
tRp742
(I1
(tg8
I00
S'ff|?'
tbag4
(g5
(I0
tS'b'
tRp743
(I1
(tg8
I00
S'\xde\xdd{?'
tbag4
(g5
(I0
tS'b'
tRp744
(I1
(tg8
I00
S'\x9a\x99}?'
tbag4
(g5
(I0
tS'b'
tRp745
(I1
(tg8
I00
S'\xbc\xbb|?'
tbag4
(g5
(I0
tS'b'
tRp746
(I1
(tg8
I00
S'\xef\xae}?'
tbag4
(g5
(I0
tS'b'
tRp747
(I1
(tg8
I00
S'w7|?'
tbag4
(g5
(I0
tS'b'
tRp748
(I1
(tg8
I00
S'3\xf3|?'
tbag4
(g5
(I0
tS'b'
tRp749
(I1
(tg8
I00
S'3\xb3|?'
tbag4
(g5
(I0
tS'b'
tRp750
(I1
(tg8
I00
S'\xbc\xbb}?'
tbag4
(g5
(I0
tS'b'
tRp751
(I1
(tg8
I00
S'w\xb7}?'
tbag4
(g5
(I0
tS'b'
tRp752
(I1
(tg8
I00
S'\x00\xc0|?'
tbag4
(g5
(I0
tS'b'
tRp753
(I1
(tg8
I00
S'\xab\xaa}?'
tbag4
(g5
(I0
tS'b'
tRp754
(I1
(tg8
I00
S'\xde\x1d}?'
tbag4
(g5
(I0
tS'b'
tRp755
(I1
(tg8
I00
S'\x9aY}?'
tbag4
(g5
(I0
tS'b'
tRp756
(I1
(tg8
I00
S'ww~?'
tbag4
(g5
(I0
tS'b'
tRp757
(I1
(tg8
I00
S'\x9a\x19}?'
tbag4
(g5
(I0
tS'b'
tRp758
(I1
(tg8
I00
S'D\xc4}?'
tbag4
(g5
(I0
tS'b'
tRp759
(I1
(tg8
I00
S'D\x04~?'
tbag4
(g5
(I0
tS'b'
tRp760
(I1
(tg8
I00
S'w\xb7z?'
tbag4
(g5
(I0
tS'b'
tRp761
(I1
(tg8
I00
S'\xabj}?'
tbag4
(g5
(I0
tS'b'
tRp762
(I1
(tg8
I00
S'\xbc\xbb{?'
tbag4
(g5
(I0
tS'b'
tRp763
(I1
(tg8
I00
S'\xab\xaa|?'
tbag4
(g5
(I0
tS'b'
tRp764
(I1
(tg8
I00
S'\xde\x1d}?'
tbag4
(g5
(I0
tS'b'
tRp765
(I1
(tg8
I00
S'f&}?'
tbag4
(g5
(I0
tS'b'
tRp766
(I1
(tg8
I00
S'ww}?'
tbag4
(g5
(I0
tS'b'
tRp767
(I1
(tg8
I00
S'DD{?'
tbag4
(g5
(I0
tS'b'
tRp768
(I1
(tg8
I00
S'w\xb7}?'
tbag4
(g5
(I0
tS'b'
tRp769
(I1
(tg8
I00
S'DD|?'
tbag4
(g5
(I0
tS'b'
tRp770
(I1
(tg8
I00
S'\x00\x80|?'
tbag4
(g5
(I0
tS'b'
tRp771
(I1
(tg8
I00
S'3s}?'
tbag4
(g5
(I0
tS'b'
tRp772
(I1
(tg8
I00
S'ff~?'
tbag4
(g5
(I0
tS'b'
tRp773
(I1
(tg8
I00
S'\x00\xc0}?'
tbag4
(g5
(I0
tS'b'
tRp774
(I1
(tg8
I00
S'\x11\xd1}?'
tbag4
(g5
(I0
tS'b'
tRp775
(I1
(tg8
I00
S'\x11\x11~?'
tbag4
(g5
(I0
tS'b'
tRp776
(I1
(tg8
I00
S'\xef.~?'
tbag4
(g5
(I0
tS'b'
tRp777
(I1
(tg8
I00
S'\xde\x9d|?'
tbag4
(g5
(I0
tS'b'
tRp778
(I1
(tg8
I00
S'\x9a\x99}?'
tbag4
(g5
(I0
tS'b'
tRp779
(I1
(tg8
I00
S'\xde\x9d|?'
tbag4
(g5
(I0
tS'b'
tRp780
(I1
(tg8
I00
S'3\xf3|?'
tbag4
(g5
(I0
tS'b'
tRp781
(I1
(tg8
I00
S'\xbc{|?'
tbag4
(g5
(I0
tS'b'
tRp782
(I1
(tg8
I00
S'w\xf7|?'
tbag4
(g5
(I0
tS'b'
tRp783
(I1
(tg8
I00
S'\xefn}?'
tbag4
(g5
(I0
tS'b'
tRp784
(I1
(tg8
I00
S'\xbc\xbb}?'
tbag4
(g5
(I0
tS'b'
tRp785
(I1
(tg8
I00
S'w\xb7|?'
tbag4
(g5
(I0
tS'b'
tRp786
(I1
(tg8
I00
S'33~?'
tbag4
(g5
(I0
tS'b'
tRp787
(I1
(tg8
I00
S'ww{?'
tbag4
(g5
(I0
tS'b'
tRp788
(I1
(tg8
I00
S'\xde\xdd}?'
tbag4
(g5
(I0
tS'b'
tRp789
(I1
(tg8
I00
S'\x9aY}?'
tbag4
(g5
(I0
tS'b'
tRp790
(I1
(tg8
I00
S'"b~?'
tbag4
(g5
(I0
tS'b'
tRp791
(I1
(tg8
I00
S'D\xc4}?'
tbag4
(g5
(I0
tS'b'
tRp792
(I1
(tg8
I00
S'U\xd5}?'
tbag4
(g5
(I0
tS'b'
tRp793
(I1
(tg8
I00
S'\xcdL}?'
tbag4
(g5
(I0
tS'b'
tRp794
(I1
(tg8
I00
S'\xde\xdd}?'
tbag4
(g5
(I0
tS'b'
tRp795
(I1
(tg8
I00
S'\xde\xdd|?'
tbag4
(g5
(I0
tS'b'
tRp796
(I1
(tg8
I00
S'\x00\xc0}?'
tbag4
(g5
(I0
tS'b'
tRp797
(I1
(tg8
I00
S'\x9a\x99}?'
tbag4
(g5
(I0
tS'b'
tRp798
(I1
(tg8
I00
S'\xde\x9d{?'
tbag4
(g5
(I0
tS'b'
tRp799
(I1
(tg8
I00
S'DD~?'
tbag4
(g5
(I0
tS'b'
tRp800
(I1
(tg8
I00
S'w\xb7{?'
tbag4
(g5
(I0
tS'b'
tRp801
(I1
(tg8
I00
S'D\xc4}?'
tbag4
(g5
(I0
tS'b'
tRp802
(I1
(tg8
I00
S'\xbc\xbb{?'
tbag4
(g5
(I0
tS'b'
tRp803
(I1
(tg8
I00
S'\xcd\x0c~?'
tbag4
(g5
(I0
tS'b'
tRp804
(I1
(tg8
I00
S'\xcd\x8c|?'
tbag4
(g5
(I0
tS'b'
tRp805
(I1
(tg8
I00
S'\xde\x9d}?'
tbag4
(g5
(I0
tS'b'
tRp806
(I1
(tg8
I00
S'D\x04}?'
tbag4
(g5
(I0
tS'b'
tRp807
(I1
(tg8
I00
S'U\x15~?'
tbag4
(g5
(I0
tS'b'
tRp808
(I1
(tg8
I00
S'w7|?'
tbag4
(g5
(I0
tS'b'
tRp809
(I1
(tg8
I00
S'\xde\x1d~?'
tbag4
(g5
(I0
tS'b'
tRp810
(I1
(tg8
I00
S'\xcd\xcc}?'
tbag4
(g5
(I0
tS'b'
tRp811
(I1
(tg8
I00
S'\x89\x88}?'
tbag4
(g5
(I0
tS'b'
tRp812
(I1
(tg8
I00
S'\x89\x88}?'
tbag4
(g5
(I0
tS'b'
tRp813
(I1
(tg8
I00
S'3\xb3|?'
tbag4
(g5
(I0
tS'b'
tRp814
(I1
(tg8
I00
S'\xde]}?'
tbag4
(g5
(I0
tS'b'
tRp815
(I1
(tg8
I00
S'\xde\x9d|?'
tbag4
(g5
(I0
tS'b'
tRp816
(I1
(tg8
I00
S'\x89\x08}?'
tbag4
(g5
(I0
tS'b'
tRp817
(I1
(tg8
I00
S'\x11\xd1}?'
tbag4
(g5
(I0
tS'b'
tRp818
(I1
(tg8
I00
S'\xab*~?'
tbag4
(g5
(I0
tS'b'
tRp819
(I1
(tg8
I00
S'\xef\xee}?'
tbag4
(g5
(I0
tS'b'
tRp820
(I1
(tg8
I00
S'\xefn}?'
tbag4
(g5
(I0
tS'b'
tRp821
(I1
(tg8
I00
S'\xabj}?'
tbag4
(g5
(I0
tS'b'
tRp822
(I1
(tg8
I00
S'\xab\xea}?'
tbag4
(g5
(I0
tS'b'
tRp823
(I1
(tg8
I00
S'\xbc;}?'
tbag4
(g5
(I0
tS'b'
tRp824
(I1
(tg8
I00
S'\xbc{}?'
tbag4
(g5
(I0
tS'b'
tRp825
(I1
(tg8
I00
S'\x9a\xd9|?'
tbag4
(g5
(I0
tS'b'
tRp826
(I1
(tg8
I00
S'\x89\xc8~?'
tbag4
(g5
(I0
tS'b'
tRp827
(I1
(tg8
I00
S'\x89\x88}?'
tbag4
(g5
(I0
tS'b'
tRp828
(I1
(tg8
I00
S'\x11\x91{?'
tbag4
(g5
(I0
tS'b'
tRp829
(I1
(tg8
I00
S'U\x15}?'
tbag4
(g5
(I0
tS'b'
tRp830
(I1
(tg8
I00
S'\xab\xea|?'
tbag4
(g5
(I0
tS'b'
tRp831
(I1
(tg8
I00
S'\x9a\x19|?'
tbag4
(g5
(I0
tS'b'
tRp832
(I1
(tg8
I00
S'"\xa2}?'
tbag4
(g5
(I0
tS'b'
tRp833
(I1
(tg8
I00
S'\xbc;|?'
tbag4
(g5
(I0
tS'b'
tRp834
(I1
(tg8
I00
S'w7}?'
tbag4
(g5
(I0
tS'b'
tRp835
(I1
(tg8
I00
S'\x89\x08~?'
tbag4
(g5
(I0
tS'b'
tRp836
(I1
(tg8
I00
S'3\xb3|?'
tbag4
(g5
(I0
tS'b'
tRp837
(I1
(tg8
I00
S'D\x04}?'
tbag4
(g5
(I0
tS'b'
tRp838
(I1
(tg8
I00
S'\xef\xee}?'
tbag4
(g5
(I0
tS'b'
tRp839
(I1
(tg8
I00
S'\xef\xee|?'
tbag4
(g5
(I0
tS'b'
tRp840
(I1
(tg8
I00
S'\xcdL}?'
tbag4
(g5
(I0
tS'b'
tRp841
(I1
(tg8
I00
S'D\x84}?'
tbag4
(g5
(I0
tS'b'
tRp842
(I1
(tg8
I00
S'D\xc4|?'
tbag4
(g5
(I0
tS'b'
tRp843
(I1
(tg8
I00
S'ww}?'
tbag4
(g5
(I0
tS'b'
tRp844
(I1
(tg8
I00
S'\xbc{}?'
tbag4
(g5
(I0
tS'b'
tRp845
(I1
(tg8
I00
S'D\xc4}?'
tbag4
(g5
(I0
tS'b'
tRp846
(I1
(tg8
I00
S'\xab\xea{?'
tbag4
(g5
(I0
tS'b'
tRp847
(I1
(tg8
I00
S'3\xb3|?'
tbag4
(g5
(I0
tS'b'
tRp848
(I1
(tg8
I00
S'\x11\x91}?'
tbag4
(g5
(I0
tS'b'
tRp849
(I1
(tg8
I00
S'\xde\xdd}?'
tbag4
(g5
(I0
tS'b'
tRp850
(I1
(tg8
I00
S'\x11\x11}?'
tbag4
(g5
(I0
tS'b'
tRp851
(I1
(tg8
I00
S'\xbc\xfb|?'
tbag4
(g5
(I0
tS'b'
tRp852
(I1
(tg8
I00
S'\xef\xee|?'
tbag4
(g5
(I0
tS'b'
tRp853
(I1
(tg8
I00
S'\x11\x91z?'
tbag4
(g5
(I0
tS'b'
tRp854
(I1
(tg8
I00
S'3s}?'
tbag4
(g5
(I0
tS'b'
tRp855
(I1
(tg8
I00
S'f\xe6z?'
tbag4
(g5
(I0
tS'b'
tRp856
(I1
(tg8
I00
S'\xbc;|?'
tbag4
(g5
(I0
tS'b'
tRp857
(I1
(tg8
I00
S'"\xa2|?'
tbag4
(g5
(I0
tS'b'
tRp858
(I1
(tg8
I00
S'\xef\xae{?'
tbag4
(g5
(I0
tS'b'
tRp859
(I1
(tg8
I00
S'\x9a\x19|?'
tbag4
(g5
(I0
tS'b'
tRp860
(I1
(tg8
I00
S'\xabjz?'
tbag4
(g5
(I0
tS'b'
tRp861
(I1
(tg8
I00
S'ff}?'
tbag4
(g5
(I0
tS'b'
tRp862
(I1
(tg8
I00
S'U\x95{?'
tbag4
(g5
(I0
tS'b'
tRp863
(I1
(tg8
I00
S'\x00\x80}?'
tbag4
(g5
(I0
tS'b'
tRp864
(I1
(tg8
I00
S'D\x84}?'
tbag4
(g5
(I0
tS'b'
tRp865
(I1
(tg8
I00
S'\x89\x08}?'
tbag4
(g5
(I0
tS'b'
tRp866
(I1
(tg8
I00
S'\xde\x1d~?'
tbag4
(g5
(I0
tS'b'
tRp867
(I1
(tg8
I00
S'\xde\x1d}?'
tbag4
(g5
(I0
tS'b'
tRp868
(I1
(tg8
I00
S'\x00\x00}?'
tbag4
(g5
(I0
tS'b'
tRp869
(I1
(tg8
I00
S'\x11\xd1}?'
tbag4
(g5
(I0
tS'b'
tRp870
(I1
(tg8
I00
S'\xab\xaa}?'
tbag4
(g5
(I0
tS'b'
tRp871
(I1
(tg8
I00
S'\xde]|?'
tbag4
(g5
(I0
tS'b'
tRp872
(I1
(tg8
I00
S'3s|?'
tbag4
(g5
(I0
tS'b'
tRp873
(I1
(tg8
I00
S'\xbc{}?'
tbag4
(g5
(I0
tS'b'
tRp874
(I1
(tg8
I00
S'\xde\x9d~?'
tbag4
(g5
(I0
tS'b'
tRp875
(I1
(tg8
I00
S'\xde\xdd{?'
tbag4
(g5
(I0
tS'b'
tRp876
(I1
(tg8
I00
S'""~?'
tbag4
(g5
(I0
tS'b'
tRp877
(I1
(tg8
I00
S'\x9a\x19{?'
tbag4
(g5
(I0
tS'b'
tRp878
(I1
(tg8
I00
S'U\xd5~?'
tbag4
(g5
(I0
tS'b'
tRp879
(I1
(tg8
I00
S'\x89H|?'
tbag4
(g5
(I0
tS'b'
tRp880
(I1
(tg8
I00
S'D\xc4}?'
tbag4
(g5
(I0
tS'b'
tRp881
(I1
(tg8
I00
S'f\xa6}?'
tbag4
(g5
(I0
tS'b'
tRp882
(I1
(tg8
I00
S'\xab*~?'
tbag4
(g5
(I0
tS'b'
tRp883
(I1
(tg8
I00
S'\xab\xaa}?'
tbag4
(g5
(I0
tS'b'
tRp884
(I1
(tg8
I00
S'\xde\x9d|?'
tbag4
(g5
(I0
tS'b'
tRp885
(I1
(tg8
I00
S'U\x95}?'
tbag4
(g5
(I0
tS'b'
tRp886
(I1
(tg8
I00
S'\xcdL|?'
tbag4
(g5
(I0
tS'b'
tRp887
(I1
(tg8
I00
S'\xefn}?'
tbag4
(g5
(I0
tS'b'
tRp888
(I1
(tg8
I00
S'"b}?'
tbag4
(g5
(I0
tS'b'
tRp889
(I1
(tg8
I00
S'3\xf3|?'
tbag4
(g5
(I0
tS'b'
tRp890
(I1
(tg8
I00
S'f\xa6|?'
tbag4
(g5
(I0
tS'b'
tRp891
(I1
(tg8
I00
S'3\xb3~?'
tbag4
(g5
(I0
tS'b'
tRp892
(I1
(tg8
I00
S'UU}?'
tbag4
(g5
(I0
tS'b'
tRp893
(I1
(tg8
I00
S'w\xf7}?'
tbag4
(g5
(I0
tS'b'
tRp894
(I1
(tg8
I00
S'\xcd\xcc}?'
tbag4
(g5
(I0
tS'b'
tRp895
(I1
(tg8
I00
S'\x89H~?'
tbag4
(g5
(I0
tS'b'
tRp896
(I1
(tg8
I00
S'\xbc;~?'
tbag4
(g5
(I0
tS'b'
tRp897
(I1
(tg8
I00
S'\xcd\x0c}?'
tbag4
(g5
(I0
tS'b'
tRp898
(I1
(tg8
I00
S'f&|?'
tbag4
(g5
(I0
tS'b'
tRp899
(I1
(tg8
I00
S'\xde\x9d{?'
tbag4
(g5
(I0
tS'b'
tRp900
(I1
(tg8
I00
S'\x00\x80{?'
tbag4
(g5
(I0
tS'b'
tRp901
(I1
(tg8
I00
S'\x11\xd1|?'
tbag4
(g5
(I0
tS'b'
tRp902
(I1
(tg8
I00
S'w\xb7z?'
tbag4
(g5
(I0
tS'b'
tRp903
(I1
(tg8
I00
S'U\x95{?'
tbag4
(g5
(I0
tS'b'
tRp904
(I1
(tg8
I00
S'\x89\xc8z?'
tbag4
(g5
(I0
tS'b'
tRp905
(I1
(tg8
I00
S'\xef\xae|?'
tbag4
(g5
(I0
tS'b'
tRp906
(I1
(tg8
I00
S'w\xb7|?'
tbag4
(g5
(I0
tS'b'
tRp907
(I1
(tg8
I00
S'f&}?'
tbag4
(g5
(I0
tS'b'
tRp908
(I1
(tg8
I00
S'ww~?'
tbag4
(g5
(I0
tS'b'
tRp909
(I1
(tg8
I00
S'w\xf7{?'
tbag4
(g5
(I0
tS'b'
tRp910
(I1
(tg8
I00
S'\xde\x1d}?'
tbag4
(g5
(I0
tS'b'
tRp911
(I1
(tg8
I00
S'"\xe2|?'
tbag4
(g5
(I0
tS'b'
tRp912
(I1
(tg8
I00
S'\xcdL|?'
tbag4
(g5
(I0
tS'b'
tRp913
(I1
(tg8
I00
S'\xefn}?'
tbag4
(g5
(I0
tS'b'
tRp914
(I1
(tg8
I00
S'\x89H}?'
tbag4
(g5
(I0
tS'b'
tRp915
(I1
(tg8
I00
S'\x00@}?'
tbag4
(g5
(I0
tS'b'
tRp916
(I1
(tg8
I00
S'\xcd\x8c|?'
tbag4
(g5
(I0
tS'b'
tRp917
(I1
(tg8
I00
S'\x89\xc8}?'
tbag4
(g5
(I0
tS'b'
tRp918
(I1
(tg8
I00
S'w\xb7}?'
tbag4
(g5
(I0
tS'b'
tRp919
(I1
(tg8
I00
S'\x00\xc0}?'
tbag4
(g5
(I0
tS'b'
tRp920
(I1
(tg8
I00
S'\x11\xd1|?'
tbag4
(g5
(I0
tS'b'
tRp921
(I1
(tg8
I00
S'\xefn}?'
tbag4
(g5
(I0
tS'b'
tRp922
(I1
(tg8
I00
S'U\x15~?'
tbag4
(g5
(I0
tS'b'
tRp923
(I1
(tg8
I00
S'ww}?'
tbag4
(g5
(I0
tS'b'
tRp924
(I1
(tg8
I00
S'\xef.~?'
tbag4
(g5
(I0
tS'b'
tRp925
(I1
(tg8
I00
S'3\xb3}?'
tbag4
(g5
(I0
tS'b'
tRp926
(I1
(tg8
I00
S'\x89H}?'
tbag4
(g5
(I0
tS'b'
tRp927
(I1
(tg8
I00
S'\xde\x1d}?'
tbag4
(g5
(I0
tS'b'
tRp928
(I1
(tg8
I00
S'\x11\x91|?'
tbag4
(g5
(I0
tS'b'
tRp929
(I1
(tg8
I00
S'\x00\xc0{?'
tbag4
(g5
(I0
tS'b'
tRp930
(I1
(tg8
I00
S'UU}?'
tbag4
(g5
(I0
tS'b'
tRp931
(I1
(tg8
I00
S'"b}?'
tbag4
(g5
(I0
tS'b'
tRp932
(I1
(tg8
I00
S'3\xf3|?'
tbag4
(g5
(I0
tS'b'
tRp933
(I1
(tg8
I00
S'\xab\xea}?'
tbag4
(g5
(I0
tS'b'
tRp934
(I1
(tg8
I00
S'D\x84}?'
tbag4
(g5
(I0
tS'b'
tRp935
(I1
(tg8
I00
S'\xcd\xcc}?'
tbag4
(g5
(I0
tS'b'
tRp936
(I1
(tg8
I00
S'\xbc;}?'
tbag4
(g5
(I0
tS'b'
tRp937
(I1
(tg8
I00
S'\x9a\xd9}?'
tbag4
(g5
(I0
tS'b'
tRp938
(I1
(tg8
I00
S'ww~?'
tbag4
(g5
(I0
tS'b'
tRp939
(I1
(tg8
I00
S'\x9a\x19~?'
tbag4
(g5
(I0
tS'b'
tRp940
(I1
(tg8
I00
S'"b~?'
tbag4
(g5
(I0
tS'b'
tRp941
(I1
(tg8
I00
S'3\xf3|?'
tbag4
(g5
(I0
tS'b'
tRp942
(I1
(tg8
I00
S'\xde\xdd~?'
tbag4
(g5
(I0
tS'b'
tRp943
(I1
(tg8
I00
S'"\xe2|?'
tbag4
(g5
(I0
tS'b'
tRp944
(I1
(tg8
I00
S'\x9aY~?'
tbag4
(g5
(I0
tS'b'
tRp945
(I1
(tg8
I00
S'D\x84{?'
tbag4
(g5
(I0
tS'b'
tRp946
(I1
(tg8
I00
S'ff}?'
tbag4
(g5
(I0
tS'b'
tRp947
(I1
(tg8
I00
S'ff}?'
tbag4
(g5
(I0
tS'b'
tRp948
(I1
(tg8
I00
S'\x89\x08}?'
tbag4
(g5
(I0
tS'b'
tRp949
(I1
(tg8
I00
S'w\xf7|?'
tbag4
(g5
(I0
tS'b'
tRp950
(I1
(tg8
I00
S'\xde]~?'
tbag4
(g5
(I0
tS'b'
tRp951
(I1
(tg8
I00
S'D\x84}?'
tbag4
(g5
(I0
tS'b'
tRp952
(I1
(tg8
I00
S'33~?'
tbag4
(g5
(I0
tS'b'
tRp953
(I1
(tg8
I00
S'"b{?'
tbag4
(g5
(I0
tS'b'
tRp954
(I1
(tg8
I00
S'3\xf3~?'
tbag4
(g5
(I0
tS'b'
tRp955
(I1
(tg8
I00
S'\xcd\xcc~?'
tbag4
(g5
(I0
tS'b'
tRp956
(I1
(tg8
I00
S'\x9a\x19{?'
tbag4
(g5
(I0
tS'b'
tRp957
(I1
(tg8
I00
S'ww~?'
tbag4
(g5
(I0
tS'b'
tRp958
(I1
(tg8
I00
S'\x89H|?'
tbag4
(g5
(I0
tS'b'
tRp959
(I1
(tg8
I00
S'\xde\xdd}?'
tbag4
(g5
(I0
tS'b'
tRp960
(I1
(tg8
I00
S'w\xf7}?'
tbag4
(g5
(I0
tS'b'
tRp961
(I1
(tg8
I00
S'\xde]}?'
tbag4
(g5
(I0
tS'b'
tRp962
(I1
(tg8
I00
S'U\x95}?'
tbag4
(g5
(I0
tS'b'
tRp963
(I1
(tg8
I00
S'\xde]}?'
tbag4
(g5
(I0
tS'b'
tRp964
(I1
(tg8
I00
S'D\x04~?'
tbag4
(g5
(I0
tS'b'
tRp965
(I1
(tg8
I00
S'"b~?'
tbag4
(g5
(I0
tS'b'
tRp966
(I1
(tg8
I00
S'\xde\xdd|?'
tbag4
(g5
(I0
tS'b'
tRp967
(I1
(tg8
I00
S'\x9a\x99~?'
tbag4
(g5
(I0
tS'b'
tRp968
(I1
(tg8
I00
S'\xcdL}?'
tbag4
(g5
(I0
tS'b'
tRp969
(I1
(tg8
I00
S'ww~?'
tbag4
(g5
(I0
tS'b'
tRp970
(I1
(tg8
I00
S'\xcd\xcc}?'
tbag4
(g5
(I0
tS'b'
tRp971
(I1
(tg8
I00
S'\xcdL~?'
tbag4
(g5
(I0
tS'b'
tRp972
(I1
(tg8
I00
S'\xde\x1d}?'
tbag4
(g5
(I0
tS'b'
tRp973
(I1
(tg8
I00
S'\xefn~?'
tbag4
(g5
(I0
tS'b'
tRp974
(I1
(tg8
I00
S'\x89\xc8}?'
tbag4
(g5
(I0
tS'b'
tRp975
(I1
(tg8
I00
S'""}?'
tbag4
(g5
(I0
tS'b'
tRp976
(I1
(tg8
I00
S'\x00\x80}?'
tbag4
(g5
(I0
tS'b'
tRp977
(I1
(tg8
I00
S'\x9a\xd9}?'
tbag4
(g5
(I0
tS'b'
tRp978
(I1
(tg8
I00
S'\xbc;}?'
tbag4
(g5
(I0
tS'b'
tRp979
(I1
(tg8
I00
S'3s|?'
tbag4
(g5
(I0
tS'b'
tRp980
(I1
(tg8
I00
S'\x89\xc8}?'
tbag4
(g5
(I0
tS'b'
tRp981
(I1
(tg8
I00
S'ff}?'
tbag4
(g5
(I0
tS'b'
tRp982
(I1
(tg8
I00
S'\x89\x88}?'
tbag4
(g5
(I0
tS'b'
tRp983
(I1
(tg8
I00
S'\xabj|?'
tbag4
(g5
(I0
tS'b'
tRp984
(I1
(tg8
I00
S'\xcdL}?'
tbag4
(g5
(I0
tS'b'
tRp985
(I1
(tg8
I00
S'ww}?'
tbag4
(g5
(I0
tS'b'
tRp986
(I1
(tg8
I00
S'""~?'
tbag4
(g5
(I0
tS'b'
tRp987
(I1
(tg8
I00
S'\xef\xae}?'
tbag4
(g5
(I0
tS'b'
tRp988
(I1
(tg8
I00
S'\xab\xea|?'
tbag4
(g5
(I0
tS'b'
tRp989
(I1
(tg8
I00
S'U\xd5~?'
tbag4
(g5
(I0
tS'b'
tRp990
(I1
(tg8
I00
S'U\x15|?'
tbag4
(g5
(I0
tS'b'
tRp991
(I1
(tg8
I00
S'33\x7f?'
tbag4
(g5
(I0
tS'b'
tRp992
(I1
(tg8
I00
S'\xbc\xfb}?'
tbag4
(g5
(I0
tS'b'
tRp993
(I1
(tg8
I00
S'\x00\x00~?'
tbag4
(g5
(I0
tS'b'
tRp994
(I1
(tg8
I00
S'\xde\x9d~?'
tbag4
(g5
(I0
tS'b'
tRp995
(I1
(tg8
I00
S'"bz?'
tbag4
(g5
(I0
tS'b'
tRp996
(I1
(tg8
I00
S'\xde\x9d~?'
tbag4
(g5
(I0
tS'b'
tRp997
(I1
(tg8
I00
S'\x89\x08|?'
tbag4
(g5
(I0
tS'b'
tRp998
(I1
(tg8
I00
S'\x9a\x19}?'
tbag4
(g5
(I0
tS'b'
tRp999
(I1
(tg8
I00
S'\x11\xd1|?'
tbag4
(g5
(I0
tS'b'
tRp1000
(I1
(tg8
I00
S'f\xa6}?'
tbag4
(g5
(I0
tS'b'
tRp1001
(I1
(tg8
I00
S'\x00\x80|?'
tbag4
(g5
(I0
tS'b'
tRp1002
(I1
(tg8
I00
S'\x11\xd1}?'
tbag4
(g5
(I0
tS'b'
tRp1003
(I1
(tg8
I00
S'\xef.|?'
tbag4
(g5
(I0
tS'b'
tRp1004
(I1
(tg8
I00
S'\xde\x9d|?'
tbag4
(g5
(I0
tS'b'
tRp1005
(I1
(tg8
I00
S'\xde\xdd{?'
tbag4
(g5
(I0
tS'b'
tRp1006
(I1
(tg8
I00
S'\xbc\xbb}?'
tbag4
(g5
(I0
tS'b'
tRp1007
(I1
(tg8
I00
S'\xde\x9d}?'
tbag4
(g5
(I0
tS'b'
tRp1008
(I1
(tg8
I00
S'\xcd\x8c}?'
tbag4
(g5
(I0
tS'b'
tRp1009
(I1
(tg8
I00
S'\x00\xc0{?'
tbag4
(g5
(I0
tS'b'
tRp1010
(I1
(tg8
I00
S'f&~?'
tbag4
(g5
(I0
tS'b'
tRp1011
(I1
(tg8
I00
S'\xcdL}?'
tbag4
(g5
(I0
tS'b'
tRp1012
(I1
(tg8
I00
S'\xcd\xcc}?'
tbag4
(g5
(I0
tS'b'
tRp1013
(I1
(tg8
I00
S'\x00\x80~?'
tbag4
(g5
(I0
tS'b'
tRp1014
(I1
(tg8
I00
S'\x00@}?'
tbag4
(g5
(I0
tS'b'
tRp1015
(I1
(tg8
I00
S'\x89\x08~?'
tbag4
(g5
(I0
tS'b'
tRp1016
(I1
(tg8
I00
S'"\xa2}?'
tbag4
(g5
(I0
tS'b'
tRp1017
(I1
(tg8
I00
S'\xef\xae}?'
tbag4
(g5
(I0
tS'b'
tRp1018
(I1
(tg8
I00
S'ww}?'
tbag4
(g5
(I0
tS'b'
tRp1019
(I1
(tg8
I00
S'\xab\xea}?'
tbag4
(g5
(I0
tS'b'
tRp1020
(I1
(tg8
I00
S'\x00\x00}?'
tbag4
(g5
(I0
tS'b'
tRp1021
(I1
(tg8
I00
S'3\xf3|?'
tbag4
(g5
(I0
tS'b'
tRp1022
(I1
(tg8
I00
S'\xef\xee|?'
tbag4
(g5
(I0
tS'b'
tRp1023
(I1
(tg8
I00
S'\x89\xc8|?'
tbag4
(g5
(I0
tS'b'
tRp1024
(I1
(tg8
I00
S'\x11\xd1}?'
tbag4
(g5
(I0
tS'b'
tRp1025
(I1
(tg8
I00
S'D\x84|?'
tbag4
(g5
(I0
tS'b'
tRp1026
(I1
(tg8
I00
S'ff~?'
tbag4
(g5
(I0
tS'b'
tRp1027
(I1
(tg8
I00
S'\xbc\xfb|?'
tbag4
(g5
(I0
tS'b'
tRp1028
(I1
(tg8
I00
S'\xbc;}?'
tbag4
(g5
(I0
tS'b'
tRp1029
(I1
(tg8
I00
S'\x00\x80}?'
tbag4
(g5
(I0
tS'b'
tRp1030
(I1
(tg8
I00
S'U\xd5|?'
tbag4
(g5
(I0
tS'b'
tRp1031
(I1
(tg8
I00
S'\xcd\x0c}?'
tbag4
(g5
(I0
tS'b'
tRp1032
(I1
(tg8
I00
S'w7}?'
tbag4
(g5
(I0
tS'b'
tRp1033
(I1
(tg8
I00
S'\xcdL~?'
tbag4
(g5
(I0
tS'b'
tRp1034
(I1
(tg8
I00
S'\x9a\x99}?'
tbasS'train_loss'
p1035
(lp1036
g4
(g5
(I0
tS'b'
tRp1037
(I1
(tg8
I00
S'\n\x05\xa1@'
tbag4
(g5
(I0
tS'b'
tRp1038
(I1
(tg8
I00
S'\x80\xb9#@'
tbag4
(g5
(I0
tS'b'
tRp1039
(I1
(tg8
I00
S'^.\x04@'
tbag4
(g5
(I0
tS'b'
tRp1040
(I1
(tg8
I00
S'\xd4\x86\xd9?'
tbag4
(g5
(I0
tS'b'
tRp1041
(I1
(tg8
I00
S'\xdc{\xdd@'
tbag4
(g5
(I0
tS'b'
tRp1042
(I1
(tg8
I00
S'Y\xc7\x1dA'
tbag4
(g5
(I0
tS'b'
tRp1043
(I1
(tg8
I00
S':\xd2\xc4?'
tbag4
(g5
(I0
tS'b'
tRp1044
(I1
(tg8
I00
S'v\xa1\xe8?'
tbag4
(g5
(I0
tS'b'
tRp1045
(I1
(tg8
I00
S'\xc8\xfd\xb2?'
tbag4
(g5
(I0
tS'b'
tRp1046
(I1
(tg8
I00
S'\xe6\xe5S?'
tbag4
(g5
(I0
tS'b'
tRp1047
(I1
(tg8
I00
S'\xc3*\xd3@'
tbag4
(g5
(I0
tS'b'
tRp1048
(I1
(tg8
I00
S'\xea\xbc\xb6?'
tbag4
(g5
(I0
tS'b'
tRp1049
(I1
(tg8
I00
S'1b\x88?'
tbag4
(g5
(I0
tS'b'
tRp1050
(I1
(tg8
I00
S'd\xbdO?'
tbag4
(g5
(I0
tS'b'
tRp1051
(I1
(tg8
I00
S'\x00\n\x1c?'
tbag4
(g5
(I0
tS'b'
tRp1052
(I1
(tg8
I00
S'\x10\xfaB?'
tbag4
(g5
(I0
tS'b'
tRp1053
(I1
(tg8
I00
S'\xd8\x92 ?'
tbag4
(g5
(I0
tS'b'
tRp1054
(I1
(tg8
I00
S'\x98=\xf6?'
tbag4
(g5
(I0
tS'b'
tRp1055
(I1
(tg8
I00
S'\xd4~>?'
tbag4
(g5
(I0
tS'b'
tRp1056
(I1
(tg8
I00
S'D\xbfq?'
tbag4
(g5
(I0
tS'b'
tRp1057
(I1
(tg8
I00
S'\xb1\x84=?'
tbag4
(g5
(I0
tS'b'
tRp1058
(I1
(tg8
I00
S'\xf7\x8d1?'
tbag4
(g5
(I0
tS'b'
tRp1059
(I1
(tg8
I00
S'\xd6\xd1;?'
tbag4
(g5
(I0
tS'b'
tRp1060
(I1
(tg8
I00
S'\x05\xef\x1c?'
tbag4
(g5
(I0
tS'b'
tRp1061
(I1
(tg8
I00
S'j6d?'
tbag4
(g5
(I0
tS'b'
tRp1062
(I1
(tg8
I00
S'\x85\xba(?'
tbag4
(g5
(I0
tS'b'
tRp1063
(I1
(tg8
I00
S'\xde;!?'
tbag4
(g5
(I0
tS'b'
tRp1064
(I1
(tg8
I00
S'\x1e\x9a\x87?'
tbag4
(g5
(I0
tS'b'
tRp1065
(I1
(tg8
I00
S'"\x1b\x1b?'
tbag4
(g5
(I0
tS'b'
tRp1066
(I1
(tg8
I00
S'\xea2&?'
tbag4
(g5
(I0
tS'b'
tRp1067
(I1
(tg8
I00
S'\x8cD\x16?'
tbag4
(g5
(I0
tS'b'
tRp1068
(I1
(tg8
I00
S'\xf0s\x0c?'
tbag4
(g5
(I0
tS'b'
tRp1069
(I1
(tg8
I00
S'\xf7R)?'
tbag4
(g5
(I0
tS'b'
tRp1070
(I1
(tg8
I00
S'\x80\xa5\x06?'
tbag4
(g5
(I0
tS'b'
tRp1071
(I1
(tg8
I00
S'H\xe70?'
tbag4
(g5
(I0
tS'b'
tRp1072
(I1
(tg8
I00
S'\x95\x9f\x1c?'
tbag4
(g5
(I0
tS'b'
tRp1073
(I1
(tg8
I00
S'\xdc\x93\x14?'
tbag4
(g5
(I0
tS'b'
tRp1074
(I1
(tg8
I00
S'\xde\xb5\x12?'
tbag4
(g5
(I0
tS'b'
tRp1075
(I1
(tg8
I00
S'\x04c\x19?'
tbag4
(g5
(I0
tS'b'
tRp1076
(I1
(tg8
I00
S'\x0f\x9e\x03?'
tbag4
(g5
(I0
tS'b'
tRp1077
(I1
(tg8
I00
S')\xec&?'
tbag4
(g5
(I0
tS'b'
tRp1078
(I1
(tg8
I00
S'\x0e\x1c\xfa>'
tbag4
(g5
(I0
tS'b'
tRp1079
(I1
(tg8
I00
S'\xf3\x9b\r?'
tbag4
(g5
(I0
tS'b'
tRp1080
(I1
(tg8
I00
S';\x1d\x06@'
tbag4
(g5
(I0
tS'b'
tRp1081
(I1
(tg8
I00
S'\x93Y\xf4>'
tbag4
(g5
(I0
tS'b'
tRp1082
(I1
(tg8
I00
S'\xb0\xceY?'
tbag4
(g5
(I0
tS'b'
tRp1083
(I1
(tg8
I00
S'\xc0(\x04?'
tbag4
(g5
(I0
tS'b'
tRp1084
(I1
(tg8
I00
S'\x82\xfc\x00?'
tbag4
(g5
(I0
tS'b'
tRp1085
(I1
(tg8
I00
S'E\xd1\xfe>'
tbag4
(g5
(I0
tS'b'
tRp1086
(I1
(tg8
I00
S'\xe2\xad\xfd>'
tbag4
(g5
(I0
tS'b'
tRp1087
(I1
(tg8
I00
S'!\r\xf6>'
tbag4
(g5
(I0
tS'b'
tRp1088
(I1
(tg8
I00
S'\x14\x1e\xf6>'
tbag4
(g5
(I0
tS'b'
tRp1089
(I1
(tg8
I00
S'\x9e\x8d\xf6>'
tbag4
(g5
(I0
tS'b'
tRp1090
(I1
(tg8
I00
S'\\\xf4\xdd>'
tbag4
(g5
(I0
tS'b'
tRp1091
(I1
(tg8
I00
S',\xad\x96@'
tbag4
(g5
(I0
tS'b'
tRp1092
(I1
(tg8
I00
S'\x8b\xd2\xe4>'
tbag4
(g5
(I0
tS'b'
tRp1093
(I1
(tg8
I00
S'\xc7!\xd3>'
tbag4
(g5
(I0
tS'b'
tRp1094
(I1
(tg8
I00
S'\xf0N\xa7@'
tbag4
(g5
(I0
tS'b'
tRp1095
(I1
(tg8
I00
S'zg<?'
tbag4
(g5
(I0
tS'b'
tRp1096
(I1
(tg8
I00
S'\xa0z\xe4>'
tbag4
(g5
(I0
tS'b'
tRp1097
(I1
(tg8
I00
S'\xf7\xbf\x19?'
tbag4
(g5
(I0
tS'b'
tRp1098
(I1
(tg8
I00
S'%\x9b\xd9>'
tbag4
(g5
(I0
tS'b'
tRp1099
(I1
(tg8
I00
S'^c\xdd@'
tbag4
(g5
(I0
tS'b'
tRp1100
(I1
(tg8
I00
S'S\xf0\xd2>'
tbag4
(g5
(I0
tS'b'
tRp1101
(I1
(tg8
I00
S'\x05\xd6\xb8@'
tbag4
(g5
(I0
tS'b'
tRp1102
(I1
(tg8
I00
S'\x8ak\xe9>'
tbag4
(g5
(I0
tS'b'
tRp1103
(I1
(tg8
I00
S'\x0e\xc8\xee@'
tbag4
(g5
(I0
tS'b'
tRp1104
(I1
(tg8
I00
S'H\t\x1a@'
tbag4
(g5
(I0
tS'b'
tRp1105
(I1
(tg8
I00
S'\xc0?\xf2>'
tbag4
(g5
(I0
tS'b'
tRp1106
(I1
(tg8
I00
S'\x06\xa2\x0f?'
tbag4
(g5
(I0
tS'b'
tRp1107
(I1
(tg8
I00
S'\x02\x9c\xe3>'
tbag4
(g5
(I0
tS'b'
tRp1108
(I1
(tg8
I00
S'{$\x05?'
tbag4
(g5
(I0
tS'b'
tRp1109
(I1
(tg8
I00
S'\x1co\xdb>'
tbag4
(g5
(I0
tS'b'
tRp1110
(I1
(tg8
I00
S'j\x1c\xf9>'
tbag4
(g5
(I0
tS'b'
tRp1111
(I1
(tg8
I00
S'A\xed\xd2>'
tbag4
(g5
(I0
tS'b'
tRp1112
(I1
(tg8
I00
S'\x1c\x13\xf1>'
tbag4
(g5
(I0
tS'b'
tRp1113
(I1
(tg8
I00
S'XV\xce>'
tbag4
(g5
(I0
tS'b'
tRp1114
(I1
(tg8
I00
S'\xeeV\xe3>'
tbag4
(g5
(I0
tS'b'
tRp1115
(I1
(tg8
I00
S'\xe0Q\xfd>'
tbag4
(g5
(I0
tS'b'
tRp1116
(I1
(tg8
I00
S'\xd2o\xc3>'
tbag4
(g5
(I0
tS'b'
tRp1117
(I1
(tg8
I00
S'\xc0w^?'
tbag4
(g5
(I0
tS'b'
tRp1118
(I1
(tg8
I00
S'g\xf1\x06@'
tbag4
(g5
(I0
tS'b'
tRp1119
(I1
(tg8
I00
S'\x04\xed\x19?'
tbag4
(g5
(I0
tS'b'
tRp1120
(I1
(tg8
I00
S'\xea\x1d(?'
tbag4
(g5
(I0
tS'b'
tRp1121
(I1
(tg8
I00
S'6@\xcd>'
tbag4
(g5
(I0
tS'b'
tRp1122
(I1
(tg8
I00
S'\xb09\x1b?'
tbag4
(g5
(I0
tS'b'
tRp1123
(I1
(tg8
I00
S'\x88\xde\xc9>'
tbag4
(g5
(I0
tS'b'
tRp1124
(I1
(tg8
I00
S'\xdc\x8e\xed>'
tbag4
(g5
(I0
tS'b'
tRp1125
(I1
(tg8
I00
S'\xc5d\xc2>'
tbag4
(g5
(I0
tS'b'
tRp1126
(I1
(tg8
I00
S'\xe6\x1e\xf7>'
tbag4
(g5
(I0
tS'b'
tRp1127
(I1
(tg8
I00
S'\xb7\xda\xc1>'
tbag4
(g5
(I0
tS'b'
tRp1128
(I1
(tg8
I00
S'\\,\xcc>'
tbag4
(g5
(I0
tS'b'
tRp1129
(I1
(tg8
I00
S'\x15P\xe5>'
tbag4
(g5
(I0
tS'b'
tRp1130
(I1
(tg8
I00
S'P\xf1\xb3>'
tbag4
(g5
(I0
tS'b'
tRp1131
(I1
(tg8
I00
S'\xa8J\xba>'
tbag4
(g5
(I0
tS'b'
tRp1132
(I1
(tg8
I00
S'\x91\x80\xbd>'
tbag4
(g5
(I0
tS'b'
tRp1133
(I1
(tg8
I00
S'X \xbf>'
tbag4
(g5
(I0
tS'b'
tRp1134
(I1
(tg8
I00
S'"\x1b\xda>'
tbag4
(g5
(I0
tS'b'
tRp1135
(I1
(tg8
I00
S'n[\xb0>'
tbag4
(g5
(I0
tS'b'
tRp1136
(I1
(tg8
I00
S'Yi\xab>'
tbag4
(g5
(I0
tS'b'
tRp1137
(I1
(tg8
I00
S'T\xa3\xd6@'
tbag4
(g5
(I0
tS'b'
tRp1138
(I1
(tg8
I00
S'+\xd9\xb3@'
tbag4
(g5
(I0
tS'b'
tRp1139
(I1
(tg8
I00
S'\xf7\xca\xa7>'
tbag4
(g5
(I0
tS'b'
tRp1140
(I1
(tg8
I00
S'@\xf2\xa2>'
tbag4
(g5
(I0
tS'b'
tRp1141
(I1
(tg8
I00
S'\x08\xcd\xbe@'
tbag4
(g5
(I0
tS'b'
tRp1142
(I1
(tg8
I00
S'\xab\x82\xaa>'
tbag4
(g5
(I0
tS'b'
tRp1143
(I1
(tg8
I00
S'\xe8\x90\xab>'
tbag4
(g5
(I0
tS'b'
tRp1144
(I1
(tg8
I00
S'x&\xca@'
tbag4
(g5
(I0
tS'b'
tRp1145
(I1
(tg8
I00
S'\xa1\x81\xd0>'
tbag4
(g5
(I0
tS'b'
tRp1146
(I1
(tg8
I00
S'fS\xb3>'
tbag4
(g5
(I0
tS'b'
tRp1147
(I1
(tg8
I00
S'\xac\xe8\xc4>'
tbag4
(g5
(I0
tS'b'
tRp1148
(I1
(tg8
I00
S'\xa4\xec9?'
tbag4
(g5
(I0
tS'b'
tRp1149
(I1
(tg8
I00
S'\x9a\xfc\xb5>'
tbag4
(g5
(I0
tS'b'
tRp1150
(I1
(tg8
I00
S'\x11I\xc2>'
tbag4
(g5
(I0
tS'b'
tRp1151
(I1
(tg8
I00
S'e@\xeb>'
tbag4
(g5
(I0
tS'b'
tRp1152
(I1
(tg8
I00
S'\xb9\x8a\xaa>'
tbag4
(g5
(I0
tS'b'
tRp1153
(I1
(tg8
I00
S'"\xba\xa9>'
tbag4
(g5
(I0
tS'b'
tRp1154
(I1
(tg8
I00
S'\xfa\x1a\x93>'
tbag4
(g5
(I0
tS'b'
tRp1155
(I1
(tg8
I00
S'\xddO\xf8@'
tbag4
(g5
(I0
tS'b'
tRp1156
(I1
(tg8
I00
S'/\n\xaa@'
tbag4
(g5
(I0
tS'b'
tRp1157
(I1
(tg8
I00
S'FK\xa9>'
tbag4
(g5
(I0
tS'b'
tRp1158
(I1
(tg8
I00
S'%y(?'
tbag4
(g5
(I0
tS'b'
tRp1159
(I1
(tg8
I00
S'r\x88\xa0>'
tbag4
(g5
(I0
tS'b'
tRp1160
(I1
(tg8
I00
S'\x89)H?'
tbag4
(g5
(I0
tS'b'
tRp1161
(I1
(tg8
I00
S'\xf4\xf8\xb2>'
tbag4
(g5
(I0
tS'b'
tRp1162
(I1
(tg8
I00
S'Zv\xae>'
tbag4
(g5
(I0
tS'b'
tRp1163
(I1
(tg8
I00
S'\xd1~\xaa>'
tbag4
(g5
(I0
tS'b'
tRp1164
(I1
(tg8
I00
S'\xd1\x80\xa3>'
tbag4
(g5
(I0
tS'b'
tRp1165
(I1
(tg8
I00
S'Z\xc7\xe6>'
tbag4
(g5
(I0
tS'b'
tRp1166
(I1
(tg8
I00
S'\xa0F\x9a>'
tbag4
(g5
(I0
tS'b'
tRp1167
(I1
(tg8
I00
S'|\xe2\xae>'
tbag4
(g5
(I0
tS'b'
tRp1168
(I1
(tg8
I00
S'_\x90\xa8>'
tbag4
(g5
(I0
tS'b'
tRp1169
(I1
(tg8
I00
S'\xc6\xe5\x95>'
tbag4
(g5
(I0
tS'b'
tRp1170
(I1
(tg8
I00
S"yH'@"
tbag4
(g5
(I0
tS'b'
tRp1171
(I1
(tg8
I00
S'\x84<\xb3>'
tbag4
(g5
(I0
tS'b'
tRp1172
(I1
(tg8
I00
S'\x15z\x92>'
tbag4
(g5
(I0
tS'b'
tRp1173
(I1
(tg8
I00
S'xQ\xbe?'
tbag4
(g5
(I0
tS'b'
tRp1174
(I1
(tg8
I00
S'\xb6@\xaa>'
tbag4
(g5
(I0
tS'b'
tRp1175
(I1
(tg8
I00
S'n\xd1\x93>'
tbag4
(g5
(I0
tS'b'
tRp1176
(I1
(tg8
I00
S'\x1d\x06\x18@'
tbag4
(g5
(I0
tS'b'
tRp1177
(I1
(tg8
I00
S'7\xdb\xa8>'
tbag4
(g5
(I0
tS'b'
tRp1178
(I1
(tg8
I00
S'\xd2\xb0\xa6>'
tbag4
(g5
(I0
tS'b'
tRp1179
(I1
(tg8
I00
S'p\xae\xa6>'
tbag4
(g5
(I0
tS'b'
tRp1180
(I1
(tg8
I00
S'\xb1\x8c\x9d>'
tbag4
(g5
(I0
tS'b'
tRp1181
(I1
(tg8
I00
S'B\xbe\xa1>'
tbag4
(g5
(I0
tS'b'
tRp1182
(I1
(tg8
I00
S'\xbaY\x8e>'
tbag4
(g5
(I0
tS'b'
tRp1183
(I1
(tg8
I00
S'\x0fF\x12@'
tbag4
(g5
(I0
tS'b'
tRp1184
(I1
(tg8
I00
S'\xdc\xc2\x90>'
tbag4
(g5
(I0
tS'b'
tRp1185
(I1
(tg8
I00
S'\xc6B\x99>'
tbag4
(g5
(I0
tS'b'
tRp1186
(I1
(tg8
I00
S'Pq\x8e>'
tbag4
(g5
(I0
tS'b'
tRp1187
(I1
(tg8
I00
S'\xf2\x94\x92>'
tbag4
(g5
(I0
tS'b'
tRp1188
(I1
(tg8
I00
S'\xdf\x82\x8c>'
tbag4
(g5
(I0
tS'b'
tRp1189
(I1
(tg8
I00
S'"\xa9\x81>'
tbag4
(g5
(I0
tS'b'
tRp1190
(I1
(tg8
I00
S'\xe5\xbb\xe0>'
tbag4
(g5
(I0
tS'b'
tRp1191
(I1
(tg8
I00
S'bj\x84>'
tbag4
(g5
(I0
tS'b'
tRp1192
(I1
(tg8
I00
S'c\x0b(?'
tbag4
(g5
(I0
tS'b'
tRp1193
(I1
(tg8
I00
S'\xde\xeb\x81>'
tbag4
(g5
(I0
tS'b'
tRp1194
(I1
(tg8
I00
S'\xec\xb1\x83>'
tbag4
(g5
(I0
tS'b'
tRp1195
(I1
(tg8
I00
S'.y\x92?'
tbag4
(g5
(I0
tS'b'
tRp1196
(I1
(tg8
I00
S'\x9eC\x8a>'
tbag4
(g5
(I0
tS'b'
tRp1197
(I1
(tg8
I00
S'\x12\xa1\x83>'
tbag4
(g5
(I0
tS'b'
tRp1198
(I1
(tg8
I00
S'\xa4\xb9z>'
tbag4
(g5
(I0
tS'b'
tRp1199
(I1
(tg8
I00
S'k\r\xae>'
tbag4
(g5
(I0
tS'b'
tRp1200
(I1
(tg8
I00
S'\x99Z\x7f>'
tbag4
(g5
(I0
tS'b'
tRp1201
(I1
(tg8
I00
S'\x0f\xad\xb5@'
tbag4
(g5
(I0
tS'b'
tRp1202
(I1
(tg8
I00
S'\xe0\xd7c>'
tbag4
(g5
(I0
tS'b'
tRp1203
(I1
(tg8
I00
S'h\xc8\x96>'
tbag4
(g5
(I0
tS'b'
tRp1204
(I1
(tg8
I00
S'\xa4\x8f\x94@'
tbag4
(g5
(I0
tS'b'
tRp1205
(I1
(tg8
I00
S'\xdear>'
tbag4
(g5
(I0
tS'b'
tRp1206
(I1
(tg8
I00
S'\x8aq\x81>'
tbag4
(g5
(I0
tS'b'
tRp1207
(I1
(tg8
I00
S'\xa6Z\xc6>'
tbag4
(g5
(I0
tS'b'
tRp1208
(I1
(tg8
I00
S'\x12\x9ae>'
tbag4
(g5
(I0
tS'b'
tRp1209
(I1
(tg8
I00
S'\x9c(\xb3?'
tbag4
(g5
(I0
tS'b'
tRp1210
(I1
(tg8
I00
S'\x1b\xed\x88>'
tbag4
(g5
(I0
tS'b'
tRp1211
(I1
(tg8
I00
S'\xb2<h>'
tbag4
(g5
(I0
tS'b'
tRp1212
(I1
(tg8
I00
S'\xec\x17\xc0>'
tbag4
(g5
(I0
tS'b'
tRp1213
(I1
(tg8
I00
S'z\xcag>'
tbag4
(g5
(I0
tS'b'
tRp1214
(I1
(tg8
I00
S'"(\x12?'
tbag4
(g5
(I0
tS'b'
tRp1215
(I1
(tg8
I00
S'3[^>'
tbag4
(g5
(I0
tS'b'
tRp1216
(I1
(tg8
I00
S'\x8e\xc8\x7f>'
tbag4
(g5
(I0
tS'b'
tRp1217
(I1
(tg8
I00
S'\x86de>'
tbag4
(g5
(I0
tS'b'
tRp1218
(I1
(tg8
I00
S'j\xd2-@'
tbag4
(g5
(I0
tS'b'
tRp1219
(I1
(tg8
I00
S'o\xa5\x02?'
tbag4
(g5
(I0
tS'b'
tRp1220
(I1
(tg8
I00
S'4iD>'
tbag4
(g5
(I0
tS'b'
tRp1221
(I1
(tg8
I00
S'\x12\x11\\>'
tbag4
(g5
(I0
tS'b'
tRp1222
(I1
(tg8
I00
S'\x91C_>'
tbag4
(g5
(I0
tS'b'
tRp1223
(I1
(tg8
I00
S'\x8cEm?'
tbag4
(g5
(I0
tS'b'
tRp1224
(I1
(tg8
I00
S'L=\x82>'
tbag4
(g5
(I0
tS'b'
tRp1225
(I1
(tg8
I00
S'\xeaKs>'
tbag4
(g5
(I0
tS'b'
tRp1226
(I1
(tg8
I00
S'\x8eJ\xbe>'
tbag4
(g5
(I0
tS'b'
tRp1227
(I1
(tg8
I00
S'|\x11V>'
tbag4
(g5
(I0
tS'b'
tRp1228
(I1
(tg8
I00
S'\xaa\xb4\x91>'
tbag4
(g5
(I0
tS'b'
tRp1229
(I1
(tg8
I00
S'bDC>'
tbag4
(g5
(I0
tS'b'
tRp1230
(I1
(tg8
I00
S'GM\xe6>'
tbag4
(g5
(I0
tS'b'
tRp1231
(I1
(tg8
I00
S'#\xdd\\>'
tbag4
(g5
(I0
tS'b'
tRp1232
(I1
(tg8
I00
S',{H>'
tbag4
(g5
(I0
tS'b'
tRp1233
(I1
(tg8
I00
S'\x0f\xe9\xf3>'
tbag4
(g5
(I0
tS'b'
tRp1234
(I1
(tg8
I00
S'\xfc\xf73>'
tbag4
(g5
(I0
tS'b'
tRp1235
(I1
(tg8
I00
S'\x841a>'
tbag4
(g5
(I0
tS'b'
tRp1236
(I1
(tg8
I00
S'\x80\xc6=>'
tbag4
(g5
(I0
tS'b'
tRp1237
(I1
(tg8
I00
S'\x94\xb4\x85>'
tbag4
(g5
(I0
tS'b'
tRp1238
(I1
(tg8
I00
S'\xef\x95D>'
tbag4
(g5
(I0
tS'b'
tRp1239
(I1
(tg8
I00
S'bs!?'
tbag4
(g5
(I0
tS'b'
tRp1240
(I1
(tg8
I00
S'"hg>'
tbag4
(g5
(I0
tS'b'
tRp1241
(I1
(tg8
I00
S'`\xf16>'
tbag4
(g5
(I0
tS'b'
tRp1242
(I1
(tg8
I00
S'Vk\x94>'
tbag4
(g5
(I0
tS'b'
tRp1243
(I1
(tg8
I00
S'\xee\x06(>'
tbag4
(g5
(I0
tS'b'
tRp1244
(I1
(tg8
I00
S'\xe2\xcc\xa2>'
tbag4
(g5
(I0
tS'b'
tRp1245
(I1
(tg8
I00
S'\x82F\x17>'
tbag4
(g5
(I0
tS'b'
tRp1246
(I1
(tg8
I00
S'>O\x9b>'
tbag4
(g5
(I0
tS'b'
tRp1247
(I1
(tg8
I00
S'\xd2\xc5\x12>'
tbag4
(g5
(I0
tS'b'
tRp1248
(I1
(tg8
I00
S'\xc5Hi>'
tbag4
(g5
(I0
tS'b'
tRp1249
(I1
(tg8
I00
S'\xe27!>'
tbag4
(g5
(I0
tS'b'
tRp1250
(I1
(tg8
I00
S'\xb8M\xaa>'
tbag4
(g5
(I0
tS'b'
tRp1251
(I1
(tg8
I00
S'F\x18\x18>'
tbag4
(g5
(I0
tS'b'
tRp1252
(I1
(tg8
I00
S'\xfb\x02\xb1>'
tbag4
(g5
(I0
tS'b'
tRp1253
(I1
(tg8
I00
S'\xf1\x00\x19>'
tbag4
(g5
(I0
tS'b'
tRp1254
(I1
(tg8
I00
S'YJP>'
tbag4
(g5
(I0
tS'b'
tRp1255
(I1
(tg8
I00
S'\x851$>'
tbag4
(g5
(I0
tS'b'
tRp1256
(I1
(tg8
I00
S'E\xa8\xa3>'
tbag4
(g5
(I0
tS'b'
tRp1257
(I1
(tg8
I00
S'\xa4\xed\x11>'
tbag4
(g5
(I0
tS'b'
tRp1258
(I1
(tg8
I00
S'\xdf\xa2->'
tbag4
(g5
(I0
tS'b'
tRp1259
(I1
(tg8
I00
S'\xc5\xb0\x11>'
tbag4
(g5
(I0
tS'b'
tRp1260
(I1
(tg8
I00
S'\xf6\x88\xd0@'
tbag4
(g5
(I0
tS'b'
tRp1261
(I1
(tg8
I00
S'\x9e\xc8\xce?'
tbag4
(g5
(I0
tS'b'
tRp1262
(I1
(tg8
I00
S',\x8c7>'
tbag4
(g5
(I0
tS'b'
tRp1263
(I1
(tg8
I00
S'\x8e\xbf\x1d>'
tbag4
(g5
(I0
tS'b'
tRp1264
(I1
(tg8
I00
S'\x80P\xa8>'
tbag4
(g5
(I0
tS'b'
tRp1265
(I1
(tg8
I00
S'\xe3\xe5\x0e>'
tbag4
(g5
(I0
tS'b'
tRp1266
(I1
(tg8
I00
S'\x90g\x96>'
tbag4
(g5
(I0
tS'b'
tRp1267
(I1
(tg8
I00
S'\x97f\xf7='
tbag4
(g5
(I0
tS'b'
tRp1268
(I1
(tg8
I00
S'\n\x18F>'
tbag4
(g5
(I0
tS'b'
tRp1269
(I1
(tg8
I00
S'\xee8\x1e>'
tbag4
(g5
(I0
tS'b'
tRp1270
(I1
(tg8
I00
S'~q_>'
tbag4
(g5
(I0
tS'b'
tRp1271
(I1
(tg8
I00
S'\xe4\xdf\xf9='
tbag4
(g5
(I0
tS'b'
tRp1272
(I1
(tg8
I00
S'C2\x99>'
tbag4
(g5
(I0
tS'b'
tRp1273
(I1
(tg8
I00
S'\x10%\xda='
tbag4
(g5
(I0
tS'b'
tRp1274
(I1
(tg8
I00
S'\x9b\xb0\x90>'
tbag4
(g5
(I0
tS'b'
tRp1275
(I1
(tg8
I00
S'Bg\xfd='
tbag4
(g5
(I0
tS'b'
tRp1276
(I1
(tg8
I00
S'\x0e\xee$>'
tbag4
(g5
(I0
tS'b'
tRp1277
(I1
(tg8
I00
S'\xee\x94\xf3='
tbag4
(g5
(I0
tS'b'
tRp1278
(I1
(tg8
I00
S'p\xdb\xe1>'
tbag4
(g5
(I0
tS'b'
tRp1279
(I1
(tg8
I00
S'\x9cY\x01>'
tbag4
(g5
(I0
tS'b'
tRp1280
(I1
(tg8
I00
S'u^\x0b>'
tbag4
(g5
(I0
tS'b'
tRp1281
(I1
(tg8
I00
S'Z\xf0t>'
tbag4
(g5
(I0
tS'b'
tRp1282
(I1
(tg8
I00
S'\x1f\xfc\x05>'
tbag4
(g5
(I0
tS'b'
tRp1283
(I1
(tg8
I00
S'\xe4NR>'
tbag4
(g5
(I0
tS'b'
tRp1284
(I1
(tg8
I00
S'\xf2\xbf\xeb='
tbag4
(g5
(I0
tS'b'
tRp1285
(I1
(tg8
I00
S'\x1c\x00t>'
tbag4
(g5
(I0
tS'b'
tRp1286
(I1
(tg8
I00
S'\xb0\x13\xc2='
tbag4
(g5
(I0
tS'b'
tRp1287
(I1
(tg8
I00
S'd\x99\x1e>'
tbag4
(g5
(I0
tS'b'
tRp1288
(I1
(tg8
I00
S'(u\x96@'
tbag4
(g5
(I0
tS'b'
tRp1289
(I1
(tg8
I00
S'\xba\x08\xd2='
tbag4
(g5
(I0
tS'b'
tRp1290
(I1
(tg8
I00
S'\x07\xd9\x1d>'
tbag4
(g5
(I0
tS'b'
tRp1291
(I1
(tg8
I00
S'1i\xe8='
tbag4
(g5
(I0
tS'b'
tRp1292
(I1
(tg8
I00
S'\xbcqs>'
tbag4
(g5
(I0
tS'b'
tRp1293
(I1
(tg8
I00
S't\x12\xb3='
tbag4
(g5
(I0
tS'b'
tRp1294
(I1
(tg8
I00
S'T~#>'
tbag4
(g5
(I0
tS'b'
tRp1295
(I1
(tg8
I00
S'x\xb3\xde='
tbag4
(g5
(I0
tS'b'
tRp1296
(I1
(tg8
I00
S'\x92\x83s>'
tbag4
(g5
(I0
tS'b'
tRp1297
(I1
(tg8
I00
S'\x1de\xcb='
tbag4
(g5
(I0
tS'b'
tRp1298
(I1
(tg8
I00
S'X\x02%>'
tbag4
(g5
(I0
tS'b'
tRp1299
(I1
(tg8
I00
S'\xf8\xd4\xdc='
tbag4
(g5
(I0
tS'b'
tRp1300
(I1
(tg8
I00
S'\xa8\xcfe>'
tbag4
(g5
(I0
tS'b'
tRp1301
(I1
(tg8
I00
S'\n\xa9\xbf='
tbag4
(g5
(I0
tS'b'
tRp1302
(I1
(tg8
I00
S'n\xa0\xb3@'
tbag4
(g5
(I0
tS'b'
tRp1303
(I1
(tg8
I00
S'\x90\xed\xa5='
tbag4
(g5
(I0
tS'b'
tRp1304
(I1
(tg8
I00
S'\x12#;>'
tbag4
(g5
(I0
tS'b'
tRp1305
(I1
(tg8
I00
S'\xec\xf0\xef='
tbag4
(g5
(I0
tS'b'
tRp1306
(I1
(tg8
I00
S'B\xcf\x05>'
tbag4
(g5
(I0
tS'b'
tRp1307
(I1
(tg8
I00
S'\xda\xc1\n>'
tbag4
(g5
(I0
tS'b'
tRp1308
(I1
(tg8
I00
S'bK\xbc='
tbag4
(g5
(I0
tS'b'
tRp1309
(I1
(tg8
I00
S'\xd5\xabY>'
tbag4
(g5
(I0
tS'b'
tRp1310
(I1
(tg8
I00
S'\x00Nx='
tbag4
(g5
(I0
tS'b'
tRp1311
(I1
(tg8
I00
S'l\xf0\x19>'
tbag4
(g5
(I0
tS'b'
tRp1312
(I1
(tg8
I00
S'\xe3|\xc1='
tbag4
(g5
(I0
tS'b'
tRp1313
(I1
(tg8
I00
S'z\xa0%>'
tbag4
(g5
(I0
tS'b'
tRp1314
(I1
(tg8
I00
S'\x1a\xef\xa8='
tbag4
(g5
(I0
tS'b'
tRp1315
(I1
(tg8
I00
S'\x91\xebC>'
tbag4
(g5
(I0
tS'b'
tRp1316
(I1
(tg8
I00
S'du\x97='
tbag4
(g5
(I0
tS'b'
tRp1317
(I1
(tg8
I00
S'w\xb7A?'
tbag4
(g5
(I0
tS'b'
tRp1318
(I1
(tg8
I00
S'\x1a\xc5*>'
tbag4
(g5
(I0
tS'b'
tRp1319
(I1
(tg8
I00
S'jU\xde='
tbag4
(g5
(I0
tS'b'
tRp1320
(I1
(tg8
I00
S'\xc4\x9cM@'
tbag4
(g5
(I0
tS'b'
tRp1321
(I1
(tg8
I00
S',\r8>'
tbag4
(g5
(I0
tS'b'
tRp1322
(I1
(tg8
I00
S'2\x11\xb9='
tbag4
(g5
(I0
tS'b'
tRp1323
(I1
(tg8
I00
S'\x8e\xf2=>'
tbag4
(g5
(I0
tS'b'
tRp1324
(I1
(tg8
I00
S'n\x94\x9b='
tbag4
(g5
(I0
tS'b'
tRp1325
(I1
(tg8
I00
S'\x8cjb>'
tbag4
(g5
(I0
tS'b'
tRp1326
(I1
(tg8
I00
S'\x86\x19\x8e='
tbag4
(g5
(I0
tS'b'
tRp1327
(I1
(tg8
I00
S'\xe4\x8a\r>'
tbag4
(g5
(I0
tS'b'
tRp1328
(I1
(tg8
I00
S'\xe8)\xae='
tbag4
(g5
(I0
tS'b'
tRp1329
(I1
(tg8
I00
S'\xc5\xcd#>'
tbag4
(g5
(I0
tS'b'
tRp1330
(I1
(tg8
I00
S'\xd0h\xb4='
tbag4
(g5
(I0
tS'b'
tRp1331
(I1
(tg8
I00
S'\xec\x8a\xb6@'
tbag4
(g5
(I0
tS'b'
tRp1332
(I1
(tg8
I00
S'r\xf2\xd9='
tbag4
(g5
(I0
tS'b'
tRp1333
(I1
(tg8
I00
S'\x19T\xa2='
tbag4
(g5
(I0
tS'b'
tRp1334
(I1
(tg8
I00
S'\xf7:w>'
tbag4
(g5
(I0
tS'b'
tRp1335
(I1
(tg8
I00
S'\xe1\xed\xd8='
tbag4
(g5
(I0
tS'b'
tRp1336
(I1
(tg8
I00
S'\xfa)\xf2='
tbag4
(g5
(I0
tS'b'
tRp1337
(I1
(tg8
I00
S'\x02_\xee='
tbag4
(g5
(I0
tS'b'
tRp1338
(I1
(tg8
I00
S'\x14\xbe\x9d='
tbag4
(g5
(I0
tS'b'
tRp1339
(I1
(tg8
I00
S'\xdf\x1b#>'
tbag4
(g5
(I0
tS'b'
tRp1340
(I1
(tg8
I00
S'\x9fHo='
tbag4
(g5
(I0
tS'b'
tRp1341
(I1
(tg8
I00
S'\xf6)K>'
tbag4
(g5
(I0
tS'b'
tRp1342
(I1
(tg8
I00
S'A\xfa\x87='
tbag4
(g5
(I0
tS'b'
tRp1343
(I1
(tg8
I00
S'.\xc8\x13>'
tbag4
(g5
(I0
tS'b'
tRp1344
(I1
(tg8
I00
S'\x94P\x9c='
tbag4
(g5
(I0
tS'b'
tRp1345
(I1
(tg8
I00
S'rf\xa2='
tbag4
(g5
(I0
tS'b'
tRp1346
(I1
(tg8
I00
S'\x12\x07\xc5='
tbag4
(g5
(I0
tS'b'
tRp1347
(I1
(tg8
I00
S']\x1c\xd7='
tbag4
(g5
(I0
tS'b'
tRp1348
(I1
(tg8
I00
S'H\x08\xb2='
tbag4
(g5
(I0
tS'b'
tRp1349
(I1
(tg8
I00
S'j\x8b\x1a>'
tbag4
(g5
(I0
tS'b'
tRp1350
(I1
(tg8
I00
S'\x14\xe7\xb5='
tbag4
(g5
(I0
tS'b'
tRp1351
(I1
(tg8
I00
S'\x87C\xd0='
tbag4
(g5
(I0
tS'b'
tRp1352
(I1
(tg8
I00
S'\x94\x1f\x08>'
tbag4
(g5
(I0
tS'b'
tRp1353
(I1
(tg8
I00
S'\xb4\xe7\xda='
tbag4
(g5
(I0
tS'b'
tRp1354
(I1
(tg8
I00
S'\x8e=\xe4='
tbag4
(g5
(I0
tS'b'
tRp1355
(I1
(tg8
I00
S'\x8dZ\xba='
tbag4
(g5
(I0
tS'b'
tRp1356
(I1
(tg8
I00
S'\x1b\xc8A>'
tbag4
(g5
(I0
tS'b'
tRp1357
(I1
(tg8
I00
S'<\x94\xae='
tbag4
(g5
(I0
tS'b'
tRp1358
(I1
(tg8
I00
S't\x95\x11>'
tbag4
(g5
(I0
tS'b'
tRp1359
(I1
(tg8
I00
S'\x19\x8b\x8c='
tbag4
(g5
(I0
tS'b'
tRp1360
(I1
(tg8
I00
S'\x08BR>'
tbag4
(g5
(I0
tS'b'
tRp1361
(I1
(tg8
I00
S'\x8d\xbe\x93='
tbag4
(g5
(I0
tS'b'
tRp1362
(I1
(tg8
I00
S'p\xd0\xfc='
tbag4
(g5
(I0
tS'b'
tRp1363
(I1
(tg8
I00
S'\xe1\xe7\x94='
tbag4
(g5
(I0
tS'b'
tRp1364
(I1
(tg8
I00
S'R!\x14>'
tbag4
(g5
(I0
tS'b'
tRp1365
(I1
(tg8
I00
S'\xfc\xa7u='
tbag4
(g5
(I0
tS'b'
tRp1366
(I1
(tg8
I00
S'\xe6\xe4!>'
tbag4
(g5
(I0
tS'b'
tRp1367
(I1
(tg8
I00
S'\xe0\xe5\x82='
tbag4
(g5
(I0
tS'b'
tRp1368
(I1
(tg8
I00
S'\xf4\x13\xd5='
tbag4
(g5
(I0
tS'b'
tRp1369
(I1
(tg8
I00
S'\xd8\xea\x86='
tbag4
(g5
(I0
tS'b'
tRp1370
(I1
(tg8
I00
S'>\xa6\x17>'
tbag4
(g5
(I0
tS'b'
tRp1371
(I1
(tg8
I00
S'\x8e\x01\x9c='
tbag4
(g5
(I0
tS'b'
tRp1372
(I1
(tg8
I00
S'+\xc5\x1c>'
tbag4
(g5
(I0
tS'b'
tRp1373
(I1
(tg8
I00
S'\xdf\x9d\x8c='
tbag4
(g5
(I0
tS'b'
tRp1374
(I1
(tg8
I00
S'?\xa8\xda='
tbag4
(g5
(I0
tS'b'
tRp1375
(I1
(tg8
I00
S'\x12\xa0\\='
tbag4
(g5
(I0
tS'b'
tRp1376
(I1
(tg8
I00
S'\x0cC*>'
tbag4
(g5
(I0
tS'b'
tRp1377
(I1
(tg8
I00
S'\xc6+V='
tbag4
(g5
(I0
tS'b'
tRp1378
(I1
(tg8
I00
S'|\xe2\xef='
tbag4
(g5
(I0
tS'b'
tRp1379
(I1
(tg8
I00
S'@\x1b\x81='
tbag4
(g5
(I0
tS'b'
tRp1380
(I1
(tg8
I00
S'\xac\x12\x0c>'
tbag4
(g5
(I0
tS'b'
tRp1381
(I1
(tg8
I00
S'$\x8a\x85='
tbag4
(g5
(I0
tS'b'
tRp1382
(I1
(tg8
I00
S'\x10\xe3\xe4='
tbag4
(g5
(I0
tS'b'
tRp1383
(I1
(tg8
I00
S'\xbd\xd3\xb5='
tbag4
(g5
(I0
tS'b'
tRp1384
(I1
(tg8
I00
S'\x8c\\\xc8='
tbag4
(g5
(I0
tS'b'
tRp1385
(I1
(tg8
I00
S'\xb8\xce\x9b='
tbag4
(g5
(I0
tS'b'
tRp1386
(I1
(tg8
I00
S'\xf7"\x06>'
tbag4
(g5
(I0
tS'b'
tRp1387
(I1
(tg8
I00
S'\x0e\x08\x90='
tbag4
(g5
(I0
tS'b'
tRp1388
(I1
(tg8
I00
S'^`\xb5='
tbag4
(g5
(I0
tS'b'
tRp1389
(I1
(tg8
I00
S'j\xaa\x8d='
tbag4
(g5
(I0
tS'b'
tRp1390
(I1
(tg8
I00
S'\xf8\xde\xbd='
tbag4
(g5
(I0
tS'b'
tRp1391
(I1
(tg8
I00
S'\xa4-\xe8='
tbag4
(g5
(I0
tS'b'
tRp1392
(I1
(tg8
I00
S'0\xb8\xbc='
tbag4
(g5
(I0
tS'b'
tRp1393
(I1
(tg8
I00
S'\xe6g\x95='
tbag4
(g5
(I0
tS'b'
tRp1394
(I1
(tg8
I00
S'\x05f\xbf='
tbag4
(g5
(I0
tS'b'
tRp1395
(I1
(tg8
I00
S'\x87Dw='
tbag4
(g5
(I0
tS'b'
tRp1396
(I1
(tg8
I00
S'\xca\xed\n>'
tbag4
(g5
(I0
tS'b'
tRp1397
(I1
(tg8
I00
S'\x11\xd0\x91='
tbag4
(g5
(I0
tS'b'
tRp1398
(I1
(tg8
I00
S'oq\xf9?'
tbag4
(g5
(I0
tS'b'
tRp1399
(I1
(tg8
I00
S'\xd4\x80\xce='
tbag4
(g5
(I0
tS'b'
tRp1400
(I1
(tg8
I00
S'\xb2\x06\x9d='
tbag4
(g5
(I0
tS'b'
tRp1401
(I1
(tg8
I00
S'\xcf\x8c!>'
tbag4
(g5
(I0
tS'b'
tRp1402
(I1
(tg8
I00
S'P\xb55='
tbag4
(g5
(I0
tS'b'
tRp1403
(I1
(tg8
I00
S'\xf9J\r>'
tbag4
(g5
(I0
tS'b'
tRp1404
(I1
(tg8
I00
S'\xcf\xd3\x84='
tbag4
(g5
(I0
tS'b'
tRp1405
(I1
(tg8
I00
S'\x84\xb3\xd6='
tbag4
(g5
(I0
tS'b'
tRp1406
(I1
(tg8
I00
S'\xb3S{='
tbag4
(g5
(I0
tS'b'
tRp1407
(I1
(tg8
I00
S'\x0b\xf6\xc5='
tbag4
(g5
(I0
tS'b'
tRp1408
(I1
(tg8
I00
S'kI\x8b='
tbag4
(g5
(I0
tS'b'
tRp1409
(I1
(tg8
I00
S'DU\xfd='
tbag4
(g5
(I0
tS'b'
tRp1410
(I1
(tg8
I00
S'l\xbb\x8d='
tbag4
(g5
(I0
tS'b'
tRp1411
(I1
(tg8
I00
S'\xaa\x9e\x1a>'
tbag4
(g5
(I0
tS'b'
tRp1412
(I1
(tg8
I00
S'>r\x92='
tbag4
(g5
(I0
tS'b'
tRp1413
(I1
(tg8
I00
S'\x8c;\x1c>'
tbag4
(g5
(I0
tS'b'
tRp1414
(I1
(tg8
I00
S'\xc9X\x84='
tbag4
(g5
(I0
tS'b'
tRp1415
(I1
(tg8
I00
S'\xc3\xcd">'
tbag4
(g5
(I0
tS'b'
tRp1416
(I1
(tg8
I00
S'\\em='
tbag4
(g5
(I0
tS'b'
tRp1417
(I1
(tg8
I00
S'\xea\x90=>'
tbag4
(g5
(I0
tS'b'
tRp1418
(I1
(tg8
I00
S'8H,>'
tbag4
(g5
(I0
tS'b'
tRp1419
(I1
(tg8
I00
S'\xe6\x88\x80='
tbag4
(g5
(I0
tS'b'
tRp1420
(I1
(tg8
I00
S'\x9e\x03\xf1='
tbag4
(g5
(I0
tS'b'
tRp1421
(I1
(tg8
I00
S'j\xe9\x9a='
tbag4
(g5
(I0
tS'b'
tRp1422
(I1
(tg8
I00
S'\x0c=\xce='
tbag4
(g5
(I0
tS'b'
tRp1423
(I1
(tg8
I00
S'\x17\x85d='
tbag4
(g5
(I0
tS'b'
tRp1424
(I1
(tg8
I00
S'\xc6@\xd4='
tbag4
(g5
(I0
tS'b'
tRp1425
(I1
(tg8
I00
S'\x95\xc1$='
tbag4
(g5
(I0
tS'b'
tRp1426
(I1
(tg8
I00
S'\xe0\xcaX@'
tbag4
(g5
(I0
tS'b'
tRp1427
(I1
(tg8
I00
S'\xa3\xed\xef='
tbag4
(g5
(I0
tS'b'
tRp1428
(I1
(tg8
I00
S'\x02s`='
tbag4
(g5
(I0
tS'b'
tRp1429
(I1
(tg8
I00
S'\x9c\xfc\xa0>'
tbag4
(g5
(I0
tS'b'
tRp1430
(I1
(tg8
I00
S'{S\x86='
tbag4
(g5
(I0
tS'b'
tRp1431
(I1
(tg8
I00
S'Q\xf4\x80='
tbag4
(g5
(I0
tS'b'
tRp1432
(I1
(tg8
I00
S'\xa4C!>'
tbag4
(g5
(I0
tS'b'
tRp1433
(I1
(tg8
I00
S'\xc0if='
tbag4
(g5
(I0
tS'b'
tRp1434
(I1
(tg8
I00
S'\x98\xc5\x17>'
tbag4
(g5
(I0
tS'b'
tRp1435
(I1
(tg8
I00
S'\x84T\x83='
tbag4
(g5
(I0
tS'b'
tRp1436
(I1
(tg8
I00
S'\xb4\xa7\xc2='
tbag4
(g5
(I0
tS'b'
tRp1437
(I1
(tg8
I00
S'\x12b\x98='
tbag4
(g5
(I0
tS'b'
tRp1438
(I1
(tg8
I00
S'\x80\x1a\\='
tbag4
(g5
(I0
tS'b'
tRp1439
(I1
(tg8
I00
S'\x0c!\x82='
tbag4
(g5
(I0
tS'b'
tRp1440
(I1
(tg8
I00
S'\xb2\xfc\xa9='
tbag4
(g5
(I0
tS'b'
tRp1441
(I1
(tg8
I00
S'\x8b\xa6\x8a='
tbag4
(g5
(I0
tS'b'
tRp1442
(I1
(tg8
I00
S'\x92\x99\x90='
tbag4
(g5
(I0
tS'b'
tRp1443
(I1
(tg8
I00
S'5c\xc0='
tbag4
(g5
(I0
tS'b'
tRp1444
(I1
(tg8
I00
S'P\xa9\xa3='
tbag4
(g5
(I0
tS'b'
tRp1445
(I1
(tg8
I00
S'z\xd2\x82='
tbag4
(g5
(I0
tS'b'
tRp1446
(I1
(tg8
I00
S'(\xab\x8f='
tbag4
(g5
(I0
tS'b'
tRp1447
(I1
(tg8
I00
S'\x8e\xd9\x85='
tbag4
(g5
(I0
tS'b'
tRp1448
(I1
(tg8
I00
S'f\xc8\x83='
tbag4
(g5
(I0
tS'b'
tRp1449
(I1
(tg8
I00
S'\xb9\xdb\xab='
tbag4
(g5
(I0
tS'b'
tRp1450
(I1
(tg8
I00
S'z\x95\x90='
tbag4
(g5
(I0
tS'b'
tRp1451
(I1
(tg8
I00
S'I\xecm='
tbag4
(g5
(I0
tS'b'
tRp1452
(I1
(tg8
I00
S'X\xce\xd1='
tbag4
(g5
(I0
tS'b'
tRp1453
(I1
(tg8
I00
S'\xd0\x8eQ='
tbag4
(g5
(I0
tS'b'
tRp1454
(I1
(tg8
I00
S'\x9c\x9f\xbc='
tbag4
(g5
(I0
tS'b'
tRp1455
(I1
(tg8
I00
S'\x9c9x='
tbag4
(g5
(I0
tS'b'
tRp1456
(I1
(tg8
I00
S'V\xc2\x1e?'
tbag4
(g5
(I0
tS'b'
tRp1457
(I1
(tg8
I00
S'h\x02\xae='
tbag4
(g5
(I0
tS'b'
tRp1458
(I1
(tg8
I00
S'b\xf3q='
tbag4
(g5
(I0
tS'b'
tRp1459
(I1
(tg8
I00
S' \x88N>'
tbag4
(g5
(I0
tS'b'
tRp1460
(I1
(tg8
I00
S'\x82\x88E='
tbag4
(g5
(I0
tS'b'
tRp1461
(I1
(tg8
I00
S'\xfe\x80*='
tbag4
(g5
(I0
tS'b'
tRp1462
(I1
(tg8
I00
S'\x19\x11\xd6?'
tbag4
(g5
(I0
tS'b'
tRp1463
(I1
(tg8
I00
S'.\xba\xa1='
tbag4
(g5
(I0
tS'b'
tRp1464
(I1
(tg8
I00
S'n\x9ap='
tbag4
(g5
(I0
tS'b'
tRp1465
(I1
(tg8
I00
S'sZY='
tbag4
(g5
(I0
tS'b'
tRp1466
(I1
(tg8
I00
S'\xc8m/='
tbag4
(g5
(I0
tS'b'
tRp1467
(I1
(tg8
I00
S'v\xb1Y='
tbag4
(g5
(I0
tS'b'
tRp1468
(I1
(tg8
I00
S'\x16\xb7\x18='
tbag4
(g5
(I0
tS'b'
tRp1469
(I1
(tg8
I00
S'@\xc2\xce='
tbag4
(g5
(I0
tS'b'
tRp1470
(I1
(tg8
I00
S'\xf8\xd0H='
tbag4
(g5
(I0
tS'b'
tRp1471
(I1
(tg8
I00
S'\xb1\x88j='
tbag4
(g5
(I0
tS'b'
tRp1472
(I1
(tg8
I00
S'6\xaca='
tbag4
(g5
(I0
tS'b'
tRp1473
(I1
(tg8
I00
S'\xa0#\xae='
tbag4
(g5
(I0
tS'b'
tRp1474
(I1
(tg8
I00
S"\xc2'\xa4="
tbag4
(g5
(I0
tS'b'
tRp1475
(I1
(tg8
I00
S'(\x8a\x89='
tbag4
(g5
(I0
tS'b'
tRp1476
(I1
(tg8
I00
S'Fw\xa4='
tbag4
(g5
(I0
tS'b'
tRp1477
(I1
(tg8
I00
S'D\xdb_='
tbag4
(g5
(I0
tS'b'
tRp1478
(I1
(tg8
I00
S'\xa2\xa6\x04>'
tbag4
(g5
(I0
tS'b'
tRp1479
(I1
(tg8
I00
S'\xaa\xbek='
tbag4
(g5
(I0
tS'b'
tRp1480
(I1
(tg8
I00
S'$S\xee='
tbag4
(g5
(I0
tS'b'
tRp1481
(I1
(tg8
I00
S'~\x81E='
tbag4
(g5
(I0
tS'b'
tRp1482
(I1
(tg8
I00
S'\xb2\xc3\xb5='
tbag4
(g5
(I0
tS'b'
tRp1483
(I1
(tg8
I00
S'\xa9\x01^='
tbag4
(g5
(I0
tS'b'
tRp1484
(I1
(tg8
I00
S'\x18\x9b\x89='
tbag4
(g5
(I0
tS'b'
tRp1485
(I1
(tg8
I00
S'?%t='
tbag4
(g5
(I0
tS'b'
tRp1486
(I1
(tg8
I00
S'\x8ecI='
tbag4
(g5
(I0
tS'b'
tRp1487
(I1
(tg8
I00
S':\xe7\x8f='
tbag4
(g5
(I0
tS'b'
tRp1488
(I1
(tg8
I00
S'6\xf3\x89='
tbag4
(g5
(I0
tS'b'
tRp1489
(I1
(tg8
I00
S'\x02\xe7\x89='
tbag4
(g5
(I0
tS'b'
tRp1490
(I1
(tg8
I00
S'\xce1/='
tbag4
(g5
(I0
tS'b'
tRp1491
(I1
(tg8
I00
S'\xd4f\x96='
tbag4
(g5
(I0
tS'b'
tRp1492
(I1
(tg8
I00
S'\x8c\xe48='
tbag4
(g5
(I0
tS'b'
tRp1493
(I1
(tg8
I00
S'\xd4E\xa9='
tbag4
(g5
(I0
tS'b'
tRp1494
(I1
(tg8
I00
S'\xf6\x17;='
tbag4
(g5
(I0
tS'b'
tRp1495
(I1
(tg8
I00
S'\xcb$\x84='
tbag4
(g5
(I0
tS'b'
tRp1496
(I1
(tg8
I00
S'\xaeAb='
tbag4
(g5
(I0
tS'b'
tRp1497
(I1
(tg8
I00
S'\x16\xfb\xeb='
tbag4
(g5
(I0
tS'b'
tRp1498
(I1
(tg8
I00
S'\x0bH\x85='
tbag4
(g5
(I0
tS'b'
tRp1499
(I1
(tg8
I00
S'\x1e\x94\x92='
tbag4
(g5
(I0
tS'b'
tRp1500
(I1
(tg8
I00
S'\n\xa7:='
tbag4
(g5
(I0
tS'b'
tRp1501
(I1
(tg8
I00
S'8\x11\x96='
tbag4
(g5
(I0
tS'b'
tRp1502
(I1
(tg8
I00
S'\xe9!l='
tbag4
(g5
(I0
tS'b'
tRp1503
(I1
(tg8
I00
S'k{L='
tbag4
(g5
(I0
tS'b'
tRp1504
(I1
(tg8
I00
S'\xac6k='
tbag4
(g5
(I0
tS'b'
tRp1505
(I1
(tg8
I00
S'\x99\xd0\x96='
tbag4
(g5
(I0
tS'b'
tRp1506
(I1
(tg8
I00
S'\x10\xbb{='
tbag4
(g5
(I0
tS'b'
tRp1507
(I1
(tg8
I00
S'\x8e\xcc\x91='
tbag4
(g5
(I0
tS'b'
tRp1508
(I1
(tg8
I00
S'\xc7h\x86='
tbag4
(g5
(I0
tS'b'
tRp1509
(I1
(tg8
I00
S'\xba\x8eX='
tbag4
(g5
(I0
tS'b'
tRp1510
(I1
(tg8
I00
S'\xee~[='
tbag4
(g5
(I0
tS'b'
tRp1511
(I1
(tg8
I00
S'Fl\xb0='
tbag4
(g5
(I0
tS'b'
tRp1512
(I1
(tg8
I00
S'\xfaby='
tbag4
(g5
(I0
tS'b'
tRp1513
(I1
(tg8
I00
S'}\x96\x95='
tbag4
(g5
(I0
tS'b'
tRp1514
(I1
(tg8
I00
S'J\xefz='
tbag4
(g5
(I0
tS'b'
tRp1515
(I1
(tg8
I00
S'\xd9r4='
tbag4
(g5
(I0
tS'b'
tRp1516
(I1
(tg8
I00
S'C\x03~='
tbag4
(g5
(I0
tS'b'
tRp1517
(I1
(tg8
I00
S'h\xdd\x84='
tbag4
(g5
(I0
tS'b'
tRp1518
(I1
(tg8
I00
S'\xdbW\xa1='
tbag4
(g5
(I0
tS'b'
tRp1519
(I1
(tg8
I00
S'\xf2\x13e='
tbag4
(g5
(I0
tS'b'
tRp1520
(I1
(tg8
I00
S'z\x94\x8b='
tbag4
(g5
(I0
tS'b'
tRp1521
(I1
(tg8
I00
S'\x8e\x0fS='
tbag4
(g5
(I0
tS'b'
tRp1522
(I1
(tg8
I00
S'@Z\xa2='
tbag4
(g5
(I0
tS'b'
tRp1523
(I1
(tg8
I00
S'\xe3XT='
tbag4
(g5
(I0
tS'b'
tRp1524
(I1
(tg8
I00
S'_\x9b\x9d='
tbag4
(g5
(I0
tS'b'
tRp1525
(I1
(tg8
I00
S'I\xf2$='
tbag4
(g5
(I0
tS'b'
tRp1526
(I1
(tg8
I00
S'\xb6B\xa2='
tbag4
(g5
(I0
tS'b'
tRp1527
(I1
(tg8
I00
S'\xda\xfe\x03='
tbag4
(g5
(I0
tS'b'
tRp1528
(I1
(tg8
I00
S'\x0f\x7f\xbb<'
tbag4
(g5
(I0
tS'b'
tRp1529
(I1
(tg8
I00
S'\x1c\xa0\x18?'
tbag4
(g5
(I0
tS'b'
tRp1530
(I1
(tg8
I00
S'\xf4\xd3K='
tbag4
(g5
(I0
tS'b'
tRp1531
(I1
(tg8
I00
S'\x972(='
tbag4
(g5
(I0
tS'b'
tRp1532
(I1
(tg8
I00
S'M\x0c}='
tbag4
(g5
(I0
tS'b'
tRp1533
(I1
(tg8
I00
S'\x0e\x9fC='
tbag4
(g5
(I0
tS'b'
tRp1534
(I1
(tg8
I00
S'*hu='
tbag4
(g5
(I0
tS'b'
tRp1535
(I1
(tg8
I00
S'\xa6Y%='
tbag4
(g5
(I0
tS'b'
tRp1536
(I1
(tg8
I00
S'\xfc\xf2+='
tbag4
(g5
(I0
tS'b'
tRp1537
(I1
(tg8
I00
S'\x13\xd1V='
tbag4
(g5
(I0
tS'b'
tRp1538
(I1
(tg8
I00
S'\x8f\r\x84='
tbag4
(g5
(I0
tS'b'
tRp1539
(I1
(tg8
I00
S'n\xddV='
tbag4
(g5
(I0
tS'b'
tRp1540
(I1
(tg8
I00
S'-\xe3O='
tbag4
(g5
(I0
tS'b'
tRp1541
(I1
(tg8
I00
S'\xd64h='
tbag4
(g5
(I0
tS'b'
tRp1542
(I1
(tg8
I00
S'\x1e8)='
tbag4
(g5
(I0
tS'b'
tRp1543
(I1
(tg8
I00
S'\x8a\xa0\x94='
tbag4
(g5
(I0
tS'b'
tRp1544
(I1
(tg8
I00
S'\xa4\xf8C='
tbag4
(g5
(I0
tS'b'
tRp1545
(I1
(tg8
I00
S'\xef\xd4\xba='
tbag4
(g5
(I0
tS'b'
tRp1546
(I1
(tg8
I00
S'j 9='
tbag4
(g5
(I0
tS'b'
tRp1547
(I1
(tg8
I00
S'\xe1B\xa9='
tbag4
(g5
(I0
tS'b'
tRp1548
(I1
(tg8
I00
S'\xb4Ud='
tbag4
(g5
(I0
tS'b'
tRp1549
(I1
(tg8
I00
S'\xcc\x99\x8d='
tbag4
(g5
(I0
tS'b'
tRp1550
(I1
(tg8
I00
S'\x8a^E='
tbag4
(g5
(I0
tS'b'
tRp1551
(I1
(tg8
I00
S'l\\\xee='
tbag4
(g5
(I0
tS'b'
tRp1552
(I1
(tg8
I00
S'\xb6\xb3N='
tbag4
(g5
(I0
tS'b'
tRp1553
(I1
(tg8
I00
S'\x9ay\xe9='
tbag4
(g5
(I0
tS'b'
tRp1554
(I1
(tg8
I00
S'\x90\xb5=='
tbag4
(g5
(I0
tS'b'
tRp1555
(I1
(tg8
I00
S'tb\xf6='
tbag4
(g5
(I0
tS'b'
tRp1556
(I1
(tg8
I00
S'\xdc\xaeA='
tbag4
(g5
(I0
tS'b'
tRp1557
(I1
(tg8
I00
S'\xbe\xef\xe4='
tbag4
(g5
(I0
tS'b'
tRp1558
(I1
(tg8
I00
S'\x84B3='
tbag4
(g5
(I0
tS'b'
tRp1559
(I1
(tg8
I00
S'\x82\\\x8d='
tbag4
(g5
(I0
tS'b'
tRp1560
(I1
(tg8
I00
S'\x96\x80\x10='
tbag4
(g5
(I0
tS'b'
tRp1561
(I1
(tg8
I00
S'qer='
tbag4
(g5
(I0
tS'b'
tRp1562
(I1
(tg8
I00
S'(\x16^='
tbag4
(g5
(I0
tS'b'
tRp1563
(I1
(tg8
I00
S'\xc0\xa7\x99='
tbag4
(g5
(I0
tS'b'
tRp1564
(I1
(tg8
I00
S'd\x94m='
tbag4
(g5
(I0
tS'b'
tRp1565
(I1
(tg8
I00
S'\x07\xfec='
tbag4
(g5
(I0
tS'b'
tRp1566
(I1
(tg8
I00
S'\xbe\xbaS='
tbag4
(g5
(I0
tS'b'
tRp1567
(I1
(tg8
I00
S'\xa4Bb='
tbag4
(g5
(I0
tS'b'
tRp1568
(I1
(tg8
I00
S'\xec\xa2E='
tbag4
(g5
(I0
tS'b'
tRp1569
(I1
(tg8
I00
S'\xd8T\x89='
tbag4
(g5
(I0
tS'b'
tRp1570
(I1
(tg8
I00
S'\xbak\x84='
tbag4
(g5
(I0
tS'b'
tRp1571
(I1
(tg8
I00
S'\xe3\x02[='
tbag4
(g5
(I0
tS'b'
tRp1572
(I1
(tg8
I00
S'*T^='
tbag4
(g5
(I0
tS'b'
tRp1573
(I1
(tg8
I00
S'\xa7\x8fX='
tbag4
(g5
(I0
tS'b'
tRp1574
(I1
(tg8
I00
S'\x1e$o='
tbag4
(g5
(I0
tS'b'
tRp1575
(I1
(tg8
I00
S'\xc0BS='
tbag4
(g5
(I0
tS'b'
tRp1576
(I1
(tg8
I00
S'\xbau{='
tbag4
(g5
(I0
tS'b'
tRp1577
(I1
(tg8
I00
S'c\x9a|='
tbag4
(g5
(I0
tS'b'
tRp1578
(I1
(tg8
I00
S'dK^='
tbag4
(g5
(I0
tS'b'
tRp1579
(I1
(tg8
I00
S'\xda?=='
tbag4
(g5
(I0
tS'b'
tRp1580
(I1
(tg8
I00
S'4\x9aZ='
tbag4
(g5
(I0
tS'b'
tRp1581
(I1
(tg8
I00
S'.,E='
tbag4
(g5
(I0
tS'b'
tRp1582
(I1
(tg8
I00
S'\x0e\xa0@='
tbag4
(g5
(I0
tS'b'
tRp1583
(I1
(tg8
I00
S'\x90)i='
tbag4
(g5
(I0
tS'b'
tRp1584
(I1
(tg8
I00
S'\x9e\x1dp='
tbag4
(g5
(I0
tS'b'
tRp1585
(I1
(tg8
I00
S'\x825U='
tbag4
(g5
(I0
tS'b'
tRp1586
(I1
(tg8
I00
S'?\x01\x96='
tbag4
(g5
(I0
tS'b'
tRp1587
(I1
(tg8
I00
S'Q@D='
tbag4
(g5
(I0
tS'b'
tRp1588
(I1
(tg8
I00
S'H\x03\xab='
tbag4
(g5
(I0
tS'b'
tRp1589
(I1
(tg8
I00
S'\xb3XX='
tbag4
(g5
(I0
tS'b'
tRp1590
(I1
(tg8
I00
S'`M\xe5='
tbag4
(g5
(I0
tS'b'
tRp1591
(I1
(tg8
I00
S'\x86U\x14='
tbag4
(g5
(I0
tS'b'
tRp1592
(I1
(tg8
I00
S'\xb6G\xb2='
tbag4
(g5
(I0
tS'b'
tRp1593
(I1
(tg8
I00
S'(\x8e=='
tbag4
(g5
(I0
tS'b'
tRp1594
(I1
(tg8
I00
S'\x93g\xd2='
tbag4
(g5
(I0
tS'b'
tRp1595
(I1
(tg8
I00
S'j\xea\x0e='
tbag4
(g5
(I0
tS'b'
tRp1596
(I1
(tg8
I00
S'6)\xa7='
tbag4
(g5
(I0
tS'b'
tRp1597
(I1
(tg8
I00
S'\x1c\xba+='
tbag4
(g5
(I0
tS'b'
tRp1598
(I1
(tg8
I00
S"8'\x92="
tbag4
(g5
(I0
tS'b'
tRp1599
(I1
(tg8
I00
S'\x84%P='
tbag4
(g5
(I0
tS'b'
tRp1600
(I1
(tg8
I00
S'6\x9ez='
tbag4
(g5
(I0
tS'b'
tRp1601
(I1
(tg8
I00
S'#(7='
tbag4
(g5
(I0
tS'b'
tRp1602
(I1
(tg8
I00
S'\xfe\xe5\xbd='
tbag4
(g5
(I0
tS'b'
tRp1603
(I1
(tg8
I00
S'\x80\x16@='
tbag4
(g5
(I0
tS'b'
tRp1604
(I1
(tg8
I00
S'\xce\xaeZ='
tbag4
(g5
(I0
tS'b'
tRp1605
(I1
(tg8
I00
S'n!6='
tbag4
(g5
(I0
tS'b'
tRp1606
(I1
(tg8
I00
S'a\xcfX='
tbag4
(g5
(I0
tS'b'
tRp1607
(I1
(tg8
I00
S'3!I='
tbag4
(g5
(I0
tS'b'
tRp1608
(I1
(tg8
I00
S'g\xf8\x83='
tbag4
(g5
(I0
tS'b'
tRp1609
(I1
(tg8
I00
S'I\xd2Q='
tbag4
(g5
(I0
tS'b'
tRp1610
(I1
(tg8
I00
S'\xc4\x96Z='
tbag4
(g5
(I0
tS'b'
tRp1611
(I1
(tg8
I00
S'Ky\x08='
tbag4
(g5
(I0
tS'b'
tRp1612
(I1
(tg8
I00
S'\x08?b='
tbag4
(g5
(I0
tS'b'
tRp1613
(I1
(tg8
I00
S',C@='
tbag4
(g5
(I0
tS'b'
tRp1614
(I1
(tg8
I00
S'\xaft\x89='
tbag4
(g5
(I0
tS'b'
tRp1615
(I1
(tg8
I00
S'\xba\xbd?='
tbag4
(g5
(I0
tS'b'
tRp1616
(I1
(tg8
I00
S'\x06\xb4?='
tbag4
(g5
(I0
tS'b'
tRp1617
(I1
(tg8
I00
S",'3="
tbag4
(g5
(I0
tS'b'
tRp1618
(I1
(tg8
I00
S'\xa9\xcbY='
tbag4
(g5
(I0
tS'b'
tRp1619
(I1
(tg8
I00
S'+\xc4@='
tbag4
(g5
(I0
tS'b'
tRp1620
(I1
(tg8
I00
S'\xf4\xb6L='
tbag4
(g5
(I0
tS'b'
tRp1621
(I1
(tg8
I00
S'\x83-6='
tbag4
(g5
(I0
tS'b'
tRp1622
(I1
(tg8
I00
S'\xc4\xc0J='
tbag4
(g5
(I0
tS'b'
tRp1623
(I1
(tg8
I00
S'b\xd8N='
tbag4
(g5
(I0
tS'b'
tRp1624
(I1
(tg8
I00
S'B;*='
tbag4
(g5
(I0
tS'b'
tRp1625
(I1
(tg8
I00
S'4h\x8d='
tbag4
(g5
(I0
tS'b'
tRp1626
(I1
(tg8
I00
S'VGO='
tbag4
(g5
(I0
tS'b'
tRp1627
(I1
(tg8
I00
S'\xa9Y\x81='
tbag4
(g5
(I0
tS'b'
tRp1628
(I1
(tg8
I00
S':\x13K='
tbag4
(g5
(I0
tS'b'
tRp1629
(I1
(tg8
I00
S'\xd0\xbe\xad='
tbag4
(g5
(I0
tS'b'
tRp1630
(I1
(tg8
I00
S'\xa3~\x0b='
tbag4
(g5
(I0
tS'b'
tRp1631
(I1
(tg8
I00
S'\x9f\xa0\xd0?'
tbag4
(g5
(I0
tS'b'
tRp1632
(I1
(tg8
I00
S'_\xab\xce@'
tbag4
(g5
(I0
tS'b'
tRp1633
(I1
(tg8
I00
S'\x14OZ='
tbag4
(g5
(I0
tS'b'
tRp1634
(I1
(tg8
I00
S'W\xae\xfa<'
tbag4
(g5
(I0
tS'b'
tRp1635
(I1
(tg8
I00
S'\xdfe\x95='
tbag4
(g5
(I0
tS'b'
tRp1636
(I1
(tg8
I00
S'h\xa9\x0f='
tbag4
(g5
(I0
tS'b'
tRp1637
(I1
(tg8
I00
S'\xf1\xf0]='
tbag4
(g5
(I0
tS'b'
tRp1638
(I1
(tg8
I00
S'\n\xe1\x10='
tbag4
(g5
(I0
tS'b'
tRp1639
(I1
(tg8
I00
S"\xd0'(="
tbag4
(g5
(I0
tS'b'
tRp1640
(I1
(tg8
I00
S'\xb0\x16\x0b='
tbag4
(g5
(I0
tS'b'
tRp1641
(I1
(tg8
I00
S'd0y='
tbag4
(g5
(I0
tS'b'
tRp1642
(I1
(tg8
I00
S'\x02B\x1e='
tbag4
(g5
(I0
tS'b'
tRp1643
(I1
(tg8
I00
S'\xf0ZE='
tbag4
(g5
(I0
tS'b'
tRp1644
(I1
(tg8
I00
S'\x00\xef\x17='
tbag4
(g5
(I0
tS'b'
tRp1645
(I1
(tg8
I00
S'\xc5\xd4\x81='
tbag4
(g5
(I0
tS'b'
tRp1646
(I1
(tg8
I00
S'%S%='
tbag4
(g5
(I0
tS'b'
tRp1647
(I1
(tg8
I00
S'\x14\xcb-='
tbag4
(g5
(I0
tS'b'
tRp1648
(I1
(tg8
I00
S'\x12\x9b7='
tbag4
(g5
(I0
tS'b'
tRp1649
(I1
(tg8
I00
S'p\xcdJ='
tbag4
(g5
(I0
tS'b'
tRp1650
(I1
(tg8
I00
S'"a5='
tbag4
(g5
(I0
tS'b'
tRp1651
(I1
(tg8
I00
S'>\x1f8='
tbag4
(g5
(I0
tS'b'
tRp1652
(I1
(tg8
I00
S'6\rk='
tbag4
(g5
(I0
tS'b'
tRp1653
(I1
(tg8
I00
S'iW)='
tbag4
(g5
(I0
tS'b'
tRp1654
(I1
(tg8
I00
S'\x15\xe1\x8d='
tbag4
(g5
(I0
tS'b'
tRp1655
(I1
(tg8
I00
S'\xef\x86E='
tbag4
(g5
(I0
tS'b'
tRp1656
(I1
(tg8
I00
S'\x9e^\x9b='
tbag4
(g5
(I0
tS'b'
tRp1657
(I1
(tg8
I00
S'{s\xa0='
tbag4
(g5
(I0
tS'b'
tRp1658
(I1
(tg8
I00
S'\xf1\x87\x92='
tbag4
(g5
(I0
tS'b'
tRp1659
(I1
(tg8
I00
S'\xd9"l='
tbag4
(g5
(I0
tS'b'
tRp1660
(I1
(tg8
I00
S'\xd6\xa8\x92='
tbag4
(g5
(I0
tS'b'
tRp1661
(I1
(tg8
I00
S'\xc4(=='
tbag4
(g5
(I0
tS'b'
tRp1662
(I1
(tg8
I00
S'z\x04\x89='
tbag4
(g5
(I0
tS'b'
tRp1663
(I1
(tg8
I00
S'\xecz\x84='
tbag4
(g5
(I0
tS'b'
tRp1664
(I1
(tg8
I00
S'\xe01/='
tbag4
(g5
(I0
tS'b'
tRp1665
(I1
(tg8
I00
S'd\xba\x9b='
tbag4
(g5
(I0
tS'b'
tRp1666
(I1
(tg8
I00
S'Zn<='
tbag4
(g5
(I0
tS'b'
tRp1667
(I1
(tg8
I00
S'\xaa\xb6\x86='
tbag4
(g5
(I0
tS'b'
tRp1668
(I1
(tg8
I00
S'\xb7\x94r='
tbag4
(g5
(I0
tS'b'
tRp1669
(I1
(tg8
I00
S'\xe1\xd6\xc7='
tbag4
(g5
(I0
tS'b'
tRp1670
(I1
(tg8
I00
S'\x0fyH='
tbag4
(g5
(I0
tS'b'
tRp1671
(I1
(tg8
I00
S'\xf6P\x9e='
tbag4
(g5
(I0
tS'b'
tRp1672
(I1
(tg8
I00
S'\xce7b='
tbag4
(g5
(I0
tS'b'
tRp1673
(I1
(tg8
I00
S'^Va='
tbag4
(g5
(I0
tS'b'
tRp1674
(I1
(tg8
I00
S'd\xfd\x1c='
tbag4
(g5
(I0
tS'b'
tRp1675
(I1
(tg8
I00
S'\x18\xd1\x90='
tbag4
(g5
(I0
tS'b'
tRp1676
(I1
(tg8
I00
S'r\xe0\x0c='
tbag4
(g5
(I0
tS'b'
tRp1677
(I1
(tg8
I00
S']\xea\x83='
tbag4
(g5
(I0
tS'b'
tRp1678
(I1
(tg8
I00
S'\xca\xf7\xfe<'
tbag4
(g5
(I0
tS'b'
tRp1679
(I1
(tg8
I00
S'\xcc\x9a\x9f='
tbag4
(g5
(I0
tS'b'
tRp1680
(I1
(tg8
I00
S'vn$='
tbag4
(g5
(I0
tS'b'
tRp1681
(I1
(tg8
I00
S'5h\x15='
tbag4
(g5
(I0
tS'b'
tRp1682
(I1
(tg8
I00
S'\xb8\xef=='
tbag4
(g5
(I0
tS'b'
tRp1683
(I1
(tg8
I00
S'\xc9\xbb\xb7<'
tbag4
(g5
(I0
tS'b'
tRp1684
(I1
(tg8
I00
S'\xb0h\x87='
tbag4
(g5
(I0
tS'b'
tRp1685
(I1
(tg8
I00
S'\xe9\xc6\xce<'
tbag4
(g5
(I0
tS'b'
tRp1686
(I1
(tg8
I00
S'\xa5P\xb8='
tbag4
(g5
(I0
tS'b'
tRp1687
(I1
(tg8
I00
S'qM\xce<'
tbag4
(g5
(I0
tS'b'
tRp1688
(I1
(tg8
I00
S'\x1dj\x0c='
tbag4
(g5
(I0
tS'b'
tRp1689
(I1
(tg8
I00
S'\x186\xc1<'
tbag4
(g5
(I0
tS'b'
tRp1690
(I1
(tg8
I00
S'!CN='
tbag4
(g5
(I0
tS'b'
tRp1691
(I1
(tg8
I00
S'V\xe3T<'
tbag4
(g5
(I0
tS'b'
tRp1692
(I1
(tg8
I00
S'\xf2\xe1A='
tbag4
(g5
(I0
tS'b'
tRp1693
(I1
(tg8
I00
S'\xa81X<'
tbag4
(g5
(I0
tS'b'
tRp1694
(I1
(tg8
I00
S',\x8c=='
tbag4
(g5
(I0
tS'b'
tRp1695
(I1
(tg8
I00
S'\xf0\t\x96<'
tbag4
(g5
(I0
tS'b'
tRp1696
(I1
(tg8
I00
S'|\x12\xa3='
tbag4
(g5
(I0
tS'b'
tRp1697
(I1
(tg8
I00
S'~\xc9\xdd<'
tbag4
(g5
(I0
tS'b'
tRp1698
(I1
(tg8
I00
S'\xcc,n='
tbag4
(g5
(I0
tS'b'
tRp1699
(I1
(tg8
I00
S'\x81\xa3\x15='
tbag4
(g5
(I0
tS'b'
tRp1700
(I1
(tg8
I00
S'>\x0b%='
tbag4
(g5
(I0
tS'b'
tRp1701
(I1
(tg8
I00
S'\xc4/P='
tbag4
(g5
(I0
tS'b'
tRp1702
(I1
(tg8
I00
S'*>\x8b='
tbag4
(g5
(I0
tS'b'
tRp1703
(I1
(tg8
I00
S'\xb0\x8f*='
tbag4
(g5
(I0
tS'b'
tRp1704
(I1
(tg8
I00
S'\xca\xb4t='
tbag4
(g5
(I0
tS'b'
tRp1705
(I1
(tg8
I00
S'\xe7\xd5\x05='
tbag4
(g5
(I0
tS'b'
tRp1706
(I1
(tg8
I00
S'\xfc\x97\xb4='
tbag4
(g5
(I0
tS'b'
tRp1707
(I1
(tg8
I00
S'x\x03\xbf<'
tbag4
(g5
(I0
tS'b'
tRp1708
(I1
(tg8
I00
S'\xd0E\x8b='
tbag4
(g5
(I0
tS'b'
tRp1709
(I1
(tg8
I00
S'\x81s%='
tbag4
(g5
(I0
tS'b'
tRp1710
(I1
(tg8
I00
S'<E"='
tbag4
(g5
(I0
tS'b'
tRp1711
(I1
(tg8
I00
S'o{"='
tbag4
(g5
(I0
tS'b'
tRp1712
(I1
(tg8
I00
S'\xcb\xbf!='
tbag4
(g5
(I0
tS'b'
tRp1713
(I1
(tg8
I00
S'j-\x84='
tbag4
(g5
(I0
tS'b'
tRp1714
(I1
(tg8
I00
S"'\x81\xeb<"
tbag4
(g5
(I0
tS'b'
tRp1715
(I1
(tg8
I00
S'Yq\xad='
tbag4
(g5
(I0
tS'b'
tRp1716
(I1
(tg8
I00
S'\xa4\x1e\xf9<'
tbag4
(g5
(I0
tS'b'
tRp1717
(I1
(tg8
I00
S'x"`='
tbag4
(g5
(I0
tS'b'
tRp1718
(I1
(tg8
I00
S'@}\xc9<'
tbag4
(g5
(I0
tS'b'
tRp1719
(I1
(tg8
I00
S'\xd2\xe3r='
tbag4
(g5
(I0
tS'b'
tRp1720
(I1
(tg8
I00
S'\xf7K\xe4<'
tbag4
(g5
(I0
tS'b'
tRp1721
(I1
(tg8
I00
S'\x8c>5='
tbag4
(g5
(I0
tS'b'
tRp1722
(I1
(tg8
I00
S'\xc2\xcb\xb5<'
tbag4
(g5
(I0
tS'b'
tRp1723
(I1
(tg8
I00
S'\x94\x10g='
tbag4
(g5
(I0
tS'b'
tRp1724
(I1
(tg8
I00
S'\x86\xce\xf6<'
tbag4
(g5
(I0
tS'b'
tRp1725
(I1
(tg8
I00
S'n\xc2b='
tbag4
(g5
(I0
tS'b'
tRp1726
(I1
(tg8
I00
S'\xf04\x1c='
tbag4
(g5
(I0
tS'b'
tRp1727
(I1
(tg8
I00
S'\xb2\xd4\xfe<'
tbag4
(g5
(I0
tS'b'
tRp1728
(I1
(tg8
I00
S'\xc0.t='
tbag4
(g5
(I0
tS'b'
tRp1729
(I1
(tg8
I00
S'\x17\xd6\xcc<'
tbag4
(g5
(I0
tS'b'
tRp1730
(I1
(tg8
I00
S'\xf6\r\xb6='
tbag4
(g5
(I0
tS'b'
tRp1731
(I1
(tg8
I00
S'\xba\x9e\x1b='
tbag4
(g5
(I0
tS'b'
tRp1732
(I1
(tg8
I00
S'F\xa4J='
tbag4
(g5
(I0
tS'b'
tRp1733
(I1
(tg8
I00
S'X\x934='
tbag4
(g5
(I0
tS'b'
tRp1734
(I1
(tg8
I00
S'\x89\xb1"='
tbag4
(g5
(I0
tS'b'
tRp1735
(I1
(tg8
I00
S'\x9f\xac\x0b='
tbag4
(g5
(I0
tS'b'
tRp1736
(I1
(tg8
I00
S'f\xd14='
tbag4
(g5
(I0
tS'b'
tRp1737
(I1
(tg8
I00
S'\xb6\xd4\x04='
tbag4
(g5
(I0
tS'b'
tRp1738
(I1
(tg8
I00
S'z\xfc\xe9<'
tbag4
(g5
(I0
tS'b'
tRp1739
(I1
(tg8
I00
S'|\x8e\x82='
tbag4
(g5
(I0
tS'b'
tRp1740
(I1
(tg8
I00
S'\x8e\x89\n='
tbag4
(g5
(I0
tS'b'
tRp1741
(I1
(tg8
I00
S'\x0c\x8co='
tbag4
(g5
(I0
tS'b'
tRp1742
(I1
(tg8
I00
S'\xc2\x93v='
tbag4
(g5
(I0
tS'b'
tRp1743
(I1
(tg8
I00
S'vc5='
tbag4
(g5
(I0
tS'b'
tRp1744
(I1
(tg8
I00
S'2o\x87='
tbag4
(g5
(I0
tS'b'
tRp1745
(I1
(tg8
I00
S'4:\x11='
tbag4
(g5
(I0
tS'b'
tRp1746
(I1
(tg8
I00
S'\xb0]$='
tbag4
(g5
(I0
tS'b'
tRp1747
(I1
(tg8
I00
S'\xb6\xe4b='
tbag4
(g5
(I0
tS'b'
tRp1748
(I1
(tg8
I00
S'X\xd6g='
tbag4
(g5
(I0
tS'b'
tRp1749
(I1
(tg8
I00
S'\xe6\x0bF='
tbag4
(g5
(I0
tS'b'
tRp1750
(I1
(tg8
I00
S'i\xb7\x9b='
tbag4
(g5
(I0
tS'b'
tRp1751
(I1
(tg8
I00
S'<\xe9+='
tbag4
(g5
(I0
tS'b'
tRp1752
(I1
(tg8
I00
S'\xd5\x96\x91='
tbag4
(g5
(I0
tS'b'
tRp1753
(I1
(tg8
I00
S'U\x06\xef<'
tbag4
(g5
(I0
tS'b'
tRp1754
(I1
(tg8
I00
S'\x14.n='
tbag4
(g5
(I0
tS'b'
tRp1755
(I1
(tg8
I00
S'\xc6\xe9\x07='
tbag4
(g5
(I0
tS'b'
tRp1756
(I1
(tg8
I00
S',u(='
tbag4
(g5
(I0
tS'b'
tRp1757
(I1
(tg8
I00
S'\xc5\xa5V='
tbag4
(g5
(I0
tS'b'
tRp1758
(I1
(tg8
I00
S'\x7f3/='
tbag4
(g5
(I0
tS'b'
tRp1759
(I1
(tg8
I00
S'\x83\xa1W='
tbag4
(g5
(I0
tS'b'
tRp1760
(I1
(tg8
I00
S'}\xe2\x03='
tbag4
(g5
(I0
tS'b'
tRp1761
(I1
(tg8
I00
S'\xba\xaa\x0e='
tbag4
(g5
(I0
tS'b'
tRp1762
(I1
(tg8
I00
S'j\xeb\t='
tbag4
(g5
(I0
tS'b'
tRp1763
(I1
(tg8
I00
S'C\xbe\xfe<'
tbag4
(g5
(I0
tS'b'
tRp1764
(I1
(tg8
I00
S'\xce9D='
tbag4
(g5
(I0
tS'b'
tRp1765
(I1
(tg8
I00
S'F\x85\xec<'
tbag4
(g5
(I0
tS'b'
tRp1766
(I1
(tg8
I00
S'\x04q(='
tbag4
(g5
(I0
tS'b'
tRp1767
(I1
(tg8
I00
S'\x16W\xd9<'
tbag4
(g5
(I0
tS'b'
tRp1768
(I1
(tg8
I00
S'ha\xe8<'
tbag4
(g5
(I0
tS'b'
tRp1769
(I1
(tg8
I00
S'\x9a\x97\xd2<'
tbag4
(g5
(I0
tS'b'
tRp1770
(I1
(tg8
I00
S'\xe6OP='
tbag4
(g5
(I0
tS'b'
tRp1771
(I1
(tg8
I00
S'`\x8a-='
tbag4
(g5
(I0
tS'b'
tRp1772
(I1
(tg8
I00
S'v;G='
tbag4
(g5
(I0
tS'b'
tRp1773
(I1
(tg8
I00
S'F\x11\xee<'
tbag4
(g5
(I0
tS'b'
tRp1774
(I1
(tg8
I00
S'\xb3\xe4\x1c='
tbag4
(g5
(I0
tS'b'
tRp1775
(I1
(tg8
I00
S'b\x03\xe9<'
tbag4
(g5
(I0
tS'b'
tRp1776
(I1
(tg8
I00
S'\x00-8='
tbag4
(g5
(I0
tS'b'
tRp1777
(I1
(tg8
I00
S'\xc2\xb9\x1e='
tbag4
(g5
(I0
tS'b'
tRp1778
(I1
(tg8
I00
S'x\x9f\x1b='
tbag4
(g5
(I0
tS'b'
tRp1779
(I1
(tg8
I00
S':\x1f\xe0<'
tbag4
(g5
(I0
tS'b'
tRp1780
(I1
(tg8
I00
S'P\xbe\xe2<'
tbag4
(g5
(I0
tS'b'
tRp1781
(I1
(tg8
I00
S'\xd8=\x1c='
tbag4
(g5
(I0
tS'b'
tRp1782
(I1
(tg8
I00
S'\xeei\xd3<'
tbag4
(g5
(I0
tS'b'
tRp1783
(I1
(tg8
I00
S'\xc0\x1c\x14='
tbag4
(g5
(I0
tS'b'
tRp1784
(I1
(tg8
I00
S'\xc3\xd3\xfc<'
tbag4
(g5
(I0
tS'b'
tRp1785
(I1
(tg8
I00
S'D\xe3\x9d<'
tbag4
(g5
(I0
tS'b'
tRp1786
(I1
(tg8
I00
S'\xd0D\x04='
tbag4
(g5
(I0
tS'b'
tRp1787
(I1
(tg8
I00
S'\x8f\x19\xe1<'
tbag4
(g5
(I0
tS'b'
tRp1788
(I1
(tg8
I00
S't\xa5\xcb<'
tbag4
(g5
(I0
tS'b'
tRp1789
(I1
(tg8
I00
S'j\xb6\x8a='
tbag4
(g5
(I0
tS'b'
tRp1790
(I1
(tg8
I00
S'B\x06\xe9<'
tbag4
(g5
(I0
tS'b'
tRp1791
(I1
(tg8
I00
S'\x0e6d='
tbag4
(g5
(I0
tS'b'
tRp1792
(I1
(tg8
I00
S'R\xe7\x1c='
tbag4
(g5
(I0
tS'b'
tRp1793
(I1
(tg8
I00
S'\xa4\xe2\x07='
tbag4
(g5
(I0
tS'b'
tRp1794
(I1
(tg8
I00
S'\x8a\x9d\t='
tbag4
(g5
(I0
tS'b'
tRp1795
(I1
(tg8
I00
S'ff\x00='
tbag4
(g5
(I0
tS'b'
tRp1796
(I1
(tg8
I00
S'v4X='
tbag4
(g5
(I0
tS'b'
tRp1797
(I1
(tg8
I00
S'if\xec<'
tbag4
(g5
(I0
tS'b'
tRp1798
(I1
(tg8
I00
S'..-='
tbag4
(g5
(I0
tS'b'
tRp1799
(I1
(tg8
I00
S'vQ)='
tbag4
(g5
(I0
tS'b'
tRp1800
(I1
(tg8
I00
S'\xe7\xc2\x03='
tbag4
(g5
(I0
tS'b'
tRp1801
(I1
(tg8
I00
S'\xae\xee\xa9<'
tbag4
(g5
(I0
tS'b'
tRp1802
(I1
(tg8
I00
S'\x02\xa6\xd1<'
tbag4
(g5
(I0
tS'b'
tRp1803
(I1
(tg8
I00
S'\xbb\xb4\xcf<'
tbag4
(g5
(I0
tS'b'
tRp1804
(I1
(tg8
I00
S'\xd0\xef\xb9<'
tbag4
(g5
(I0
tS'b'
tRp1805
(I1
(tg8
I00
S'R\xe0\xb9<'
tbag4
(g5
(I0
tS'b'
tRp1806
(I1
(tg8
I00
S'\x8e \x11='
tbag4
(g5
(I0
tS'b'
tRp1807
(I1
(tg8
I00
S'\xda\xde\xde<'
tbag4
(g5
(I0
tS'b'
tRp1808
(I1
(tg8
I00
S'+\xf7 ='
tbag4
(g5
(I0
tS'b'
tRp1809
(I1
(tg8
I00
S'\xd4\xaf\x13='
tbag4
(g5
(I0
tS'b'
tRp1810
(I1
(tg8
I00
S'\xe6c$='
tbag4
(g5
(I0
tS'b'
tRp1811
(I1
(tg8
I00
S'\xee`\x15='
tbag4
(g5
(I0
tS'b'
tRp1812
(I1
(tg8
I00
S'P`\xf2<'
tbag4
(g5
(I0
tS'b'
tRp1813
(I1
(tg8
I00
S'\xa0\x96\xe6<'
tbag4
(g5
(I0
tS'b'
tRp1814
(I1
(tg8
I00
S'\xf2\xf1*='
tbag4
(g5
(I0
tS'b'
tRp1815
(I1
(tg8
I00
S'\x12\xa4\xb8<'
tbag4
(g5
(I0
tS'b'
tRp1816
(I1
(tg8
I00
S'\xb7\xd0s='
tbag4
(g5
(I0
tS'b'
tRp1817
(I1
(tg8
I00
S'd\xd4\xce<'
tbag4
(g5
(I0
tS'b'
tRp1818
(I1
(tg8
I00
S'\x99\x1d\xef<'
tbag4
(g5
(I0
tS'b'
tRp1819
(I1
(tg8
I00
S'vk\xa4<'
tbag4
(g5
(I0
tS'b'
tRp1820
(I1
(tg8
I00
S'\xc7.\xd4<'
tbag4
(g5
(I0
tS'b'
tRp1821
(I1
(tg8
I00
S'\x00\x97\xcb<'
tbag4
(g5
(I0
tS'b'
tRp1822
(I1
(tg8
I00
S'\x0e\x8b\x03='
tbag4
(g5
(I0
tS'b'
tRp1823
(I1
(tg8
I00
S'\xd2\x8f\xe0<'
tbag4
(g5
(I0
tS'b'
tRp1824
(I1
(tg8
I00
S'\x9as\x0f='
tbag4
(g5
(I0
tS'b'
tRp1825
(I1
(tg8
I00
S'\xceD\xe2<'
tbag4
(g5
(I0
tS'b'
tRp1826
(I1
(tg8
I00
S'\xd9\xa1\xf3<'
tbag4
(g5
(I0
tS'b'
tRp1827
(I1
(tg8
I00
S'U#T='
tbag4
(g5
(I0
tS'b'
tRp1828
(I1
(tg8
I00
S'\x86l\xa4<'
tbag4
(g5
(I0
tS'b'
tRp1829
(I1
(tg8
I00
S'j/p='
tbag4
(g5
(I0
tS'b'
tRp1830
(I1
(tg8
I00
S'`u\xc9<'
tbag4
(g5
(I0
tS'b'
tRp1831
(I1
(tg8
I00
S'\x9aVI='
tbag4
(g5
(I0
tS'b'
tRp1832
(I1
(tg8
I00
S'.\xfd\xca<'
tbag4
(g5
(I0
tS'b'
tRp1833
(I1
(tg8
I00
S'\xba\x9e.='
tbag4
(g5
(I0
tS'b'
tRp1834
(I1
(tg8
I00
S'\x16\x17\xe8<'
tbag4
(g5
(I0
tS'b'
tRp1835
(I1
(tg8
I00
S'\x1ds\xfd<'
tbag4
(g5
(I0
tS'b'
tRp1836
(I1
(tg8
I00
S'|\xeb\xc6<'
tbag4
(g5
(I0
tS'b'
tRp1837
(I1
(tg8
I00
S'\xda\xb8)='
tbag4
(g5
(I0
tS'b'
tRp1838
(I1
(tg8
I00
S'\xe4\x02\xb6<'
tbag4
(g5
(I0
tS'b'
tRp1839
(I1
(tg8
I00
S'\x8a\xfa\xcb<'
tbag4
(g5
(I0
tS'b'
tRp1840
(I1
(tg8
I00
S'\xb2u\xf7<'
tbag4
(g5
(I0
tS'b'
tRp1841
(I1
(tg8
I00
S'\xaa\xb4\xfa<'
tbag4
(g5
(I0
tS'b'
tRp1842
(I1
(tg8
I00
S'\xdce\x1f='
tbag4
(g5
(I0
tS'b'
tRp1843
(I1
(tg8
I00
S't\xa4\xee<'
tbag4
(g5
(I0
tS'b'
tRp1844
(I1
(tg8
I00
S'\xd2\xe3$='
tbag4
(g5
(I0
tS'b'
tRp1845
(I1
(tg8
I00
S'\xe2F\x0e='
tbag4
(g5
(I0
tS'b'
tRp1846
(I1
(tg8
I00
S'\xd1\xd6\xe3<'
tbag4
(g5
(I0
tS'b'
tRp1847
(I1
(tg8
I00
S'\xbe\xb3\xaa<'
tbag4
(g5
(I0
tS'b'
tRp1848
(I1
(tg8
I00
S'\xc6\x87\xcf<'
tbag4
(g5
(I0
tS'b'
tRp1849
(I1
(tg8
I00
S'\x98\xbb\xf2<'
tbag4
(g5
(I0
tS'b'
tRp1850
(I1
(tg8
I00
S'\x166\x04='
tbag4
(g5
(I0
tS'b'
tRp1851
(I1
(tg8
I00
S'\xd3.\xcb<'
tbag4
(g5
(I0
tS'b'
tRp1852
(I1
(tg8
I00
S'ox\xfe<'
tbag4
(g5
(I0
tS'b'
tRp1853
(I1
(tg8
I00
S'\x04\xb0\xec<'
tbag4
(g5
(I0
tS'b'
tRp1854
(I1
(tg8
I00
S'n\x90\x0e='
tbag4
(g5
(I0
tS'b'
tRp1855
(I1
(tg8
I00
S'Pb\x88<'
tbag4
(g5
(I0
tS'b'
tRp1856
(I1
(tg8
I00
S'\x84d\xea<'
tbag4
(g5
(I0
tS'b'
tRp1857
(I1
(tg8
I00
S'Jzx='
tbag4
(g5
(I0
tS'b'
tRp1858
(I1
(tg8
I00
S'\xc2\xaa\x04='
tbag4
(g5
(I0
tS'b'
tRp1859
(I1
(tg8
I00
S'\x0eG\x13='
tbag4
(g5
(I0
tS'b'
tRp1860
(I1
(tg8
I00
S'\x9f\xb4=='
tbag4
(g5
(I0
tS'b'
tRp1861
(I1
(tg8
I00
S'|\x15\xe9<'
tbag4
(g5
(I0
tS'b'
tRp1862
(I1
(tg8
I00
S'\n\xe5@='
tbag4
(g5
(I0
tS'b'
tRp1863
(I1
(tg8
I00
S'\x94\x05\xf0<'
tbag4
(g5
(I0
tS'b'
tRp1864
(I1
(tg8
I00
S'\xb2T\xc0<'
tbag4
(g5
(I0
tS'b'
tRp1865
(I1
(tg8
I00
S'\xda\x84$='
tbag4
(g5
(I0
tS'b'
tRp1866
(I1
(tg8
I00
S'\xfe\xae\x0c='
tbag4
(g5
(I0
tS'b'
tRp1867
(I1
(tg8
I00
S'^\xf7\xca<'
tbag4
(g5
(I0
tS'b'
tRp1868
(I1
(tg8
I00
S'\x952\x15='
tbag4
(g5
(I0
tS'b'
tRp1869
(I1
(tg8
I00
S'\xf9h\xf6<'
tbag4
(g5
(I0
tS'b'
tRp1870
(I1
(tg8
I00
S'\xe0Y\xe6<'
tbag4
(g5
(I0
tS'b'
tRp1871
(I1
(tg8
I00
S'\xf3\x8a#='
tbag4
(g5
(I0
tS'b'
tRp1872
(I1
(tg8
I00
S'\xba\x1a\xf6<'
tbag4
(g5
(I0
tS'b'
tRp1873
(I1
(tg8
I00
S'7\x18\xe4<'
tbag4
(g5
(I0
tS'b'
tRp1874
(I1
(tg8
I00
S'N\x98\xd1<'
tbag4
(g5
(I0
tS'b'
tRp1875
(I1
(tg8
I00
S'\xe2\xc6a='
tbag4
(g5
(I0
tS'b'
tRp1876
(I1
(tg8
I00
S'1  ='
tbag4
(g5
(I0
tS'b'
tRp1877
(I1
(tg8
I00
S'\x96\xc0\xda<'
tbag4
(g5
(I0
tS'b'
tRp1878
(I1
(tg8
I00
S'\xd9\x99\xcc<'
tbag4
(g5
(I0
tS'b'
tRp1879
(I1
(tg8
I00
S'\xbe\xd6\x05='
tbag4
(g5
(I0
tS'b'
tRp1880
(I1
(tg8
I00
S'\xd9\x93\x0b='
tbag4
(g5
(I0
tS'b'
tRp1881
(I1
(tg8
I00
S'\xaa[\x10='
tbag4
(g5
(I0
tS'b'
tRp1882
(I1
(tg8
I00
S'\xb4\xa6\x89='
tbag4
(g5
(I0
tS'b'
tRp1883
(I1
(tg8
I00
S'\xb0i\xfa<'
tbag4
(g5
(I0
tS'b'
tRp1884
(I1
(tg8
I00
S'U\xe6\x80='
tbag4
(g5
(I0
tS'b'
tRp1885
(I1
(tg8
I00
S'\xba\xf70='
tbag4
(g5
(I0
tS'b'
tRp1886
(I1
(tg8
I00
S'z\x85!='
tbag4
(g5
(I0
tS'b'
tRp1887
(I1
(tg8
I00
S'\xbdmX='
tbag4
(g5
(I0
tS'b'
tRp1888
(I1
(tg8
I00
S'\x82P5='
tbag4
(g5
(I0
tS'b'
tRp1889
(I1
(tg8
I00
S'\xb0Z\x80='
tbag4
(g5
(I0
tS'b'
tRp1890
(I1
(tg8
I00
S'\tb\x0b='
tbag4
(g5
(I0
tS'b'
tRp1891
(I1
(tg8
I00
S',\rc='
tbag4
(g5
(I0
tS'b'
tRp1892
(I1
(tg8
I00
S'&\xf3\xf0<'
tbag4
(g5
(I0
tS'b'
tRp1893
(I1
(tg8
I00
S'\xee#\xde<'
tbag4
(g5
(I0
tS'b'
tRp1894
(I1
(tg8
I00
S'\xa2\xdb\x13='
tbag4
(g5
(I0
tS'b'
tRp1895
(I1
(tg8
I00
S'4*\xc9<'
tbag4
(g5
(I0
tS'b'
tRp1896
(I1
(tg8
I00
S'\x9f\x8e\x06='
tbag4
(g5
(I0
tS'b'
tRp1897
(I1
(tg8
I00
S'HT\x0f='
tbag4
(g5
(I0
tS'b'
tRp1898
(I1
(tg8
I00
S'\x13D\xce<'
tbag4
(g5
(I0
tS'b'
tRp1899
(I1
(tg8
I00
S'\xd2\xf9\xdc<'
tbag4
(g5
(I0
tS'b'
tRp1900
(I1
(tg8
I00
S'\xd6\xcb.='
tbag4
(g5
(I0
tS'b'
tRp1901
(I1
(tg8
I00
S'\xde\xf8\x17='
tbag4
(g5
(I0
tS'b'
tRp1902
(I1
(tg8
I00
S'j\x98\x02='
tbag4
(g5
(I0
tS'b'
tRp1903
(I1
(tg8
I00
S'\xe2\xc3\x8b<'
tbag4
(g5
(I0
tS'b'
tRp1904
(I1
(tg8
I00
S'*\xedO='
tbag4
(g5
(I0
tS'b'
tRp1905
(I1
(tg8
I00
S'\x93H\xb8<'
tbag4
(g5
(I0
tS'b'
tRp1906
(I1
(tg8
I00
S'M\xb5p='
tbag4
(g5
(I0
tS'b'
tRp1907
(I1
(tg8
I00
S'"Gn<'
tbag4
(g5
(I0
tS'b'
tRp1908
(I1
(tg8
I00
S'\xc4\x08>='
tbag4
(g5
(I0
tS'b'
tRp1909
(I1
(tg8
I00
S'\x9aI\xd1<'
tbag4
(g5
(I0
tS'b'
tRp1910
(I1
(tg8
I00
S'\xf1\xdf\xe7<'
tbag4
(g5
(I0
tS'b'
tRp1911
(I1
(tg8
I00
S'\xb4\x8a\xc8<'
tbag4
(g5
(I0
tS'b'
tRp1912
(I1
(tg8
I00
S'\xc7?\xfe<'
tbag4
(g5
(I0
tS'b'
tRp1913
(I1
(tg8
I00
S'\x06i!='
tbag4
(g5
(I0
tS'b'
tRp1914
(I1
(tg8
I00
S'(V\xe9<'
tbag4
(g5
(I0
tS'b'
tRp1915
(I1
(tg8
I00
S'H\x04$='
tbag4
(g5
(I0
tS'b'
tRp1916
(I1
(tg8
I00
S'(x\xf0<'
tbag4
(g5
(I0
tS'b'
tRp1917
(I1
(tg8
I00
S'\xf1M\xfb<'
tbag4
(g5
(I0
tS'b'
tRp1918
(I1
(tg8
I00
S'r\x94\x12='
tbag4
(g5
(I0
tS'b'
tRp1919
(I1
(tg8
I00
S'FQ\x19='
tbag4
(g5
(I0
tS'b'
tRp1920
(I1
(tg8
I00
S'&\xf9\x81<'
tbag4
(g5
(I0
tS'b'
tRp1921
(I1
(tg8
I00
S'w*\n='
tbag4
(g5
(I0
tS'b'
tRp1922
(I1
(tg8
I00
S'\x92a\xc0<'
tbag4
(g5
(I0
tS'b'
tRp1923
(I1
(tg8
I00
S'\xf1\x17\xc6<'
tbag4
(g5
(I0
tS'b'
tRp1924
(I1
(tg8
I00
S'\xbe}\x9c<'
tbag4
(g5
(I0
tS'b'
tRp1925
(I1
(tg8
I00
S'\xf4B\xbe<'
tbag4
(g5
(I0
tS'b'
tRp1926
(I1
(tg8
I00
S'bz\x11='
tbag4
(g5
(I0
tS'b'
tRp1927
(I1
(tg8
I00
S'\xc2\x7fE='
tbag4
(g5
(I0
tS'b'
tRp1928
(I1
(tg8
I00
S'\xfb\xc8L='
tbag4
(g5
(I0
tS'b'
tRp1929
(I1
(tg8
I00
S'o;E='
tbag4
(g5
(I0
tS'b'
tRp1930
(I1
(tg8
I00
S',\xd3\x11='
tbag4
(g5
(I0
tS'b'
tRp1931
(I1
(tg8
I00
S'\xee\xd0p='
tbag4
(g5
(I0
tS'b'
tRp1932
(I1
(tg8
I00
S'\\pP='
tbag4
(g5
(I0
tS'b'
tRp1933
(I1
(tg8
I00
S'\nAm='
tbag4
(g5
(I0
tS'b'
tRp1934
(I1
(tg8
I00
S'\xfc\xee"='
tbag4
(g5
(I0
tS'b'
tRp1935
(I1
(tg8
I00
S'p\xab#='
tbag4
(g5
(I0
tS'b'
tRp1936
(I1
(tg8
I00
S'\xce4\x02='
tbag4
(g5
(I0
tS'b'
tRp1937
(I1
(tg8
I00
S'Z\xee\x9f<'
tbag4
(g5
(I0
tS'b'
tRp1938
(I1
(tg8
I00
S'\x17\xfcO='
tbag4
(g5
(I0
tS'b'
tRp1939
(I1
(tg8
I00
S'h\x12\xfe<'
tbag4
(g5
(I0
tS'b'
tRp1940
(I1
(tg8
I00
S'6I\x13='
tbag4
(g5
(I0
tS'b'
tRp1941
(I1
(tg8
I00
S'lj,='
tbag4
(g5
(I0
tS'b'
tRp1942
(I1
(tg8
I00
S'\xf8\xc8\x06='
tbag4
(g5
(I0
tS'b'
tRp1943
(I1
(tg8
I00
S'\xf4L\r='
tbag4
(g5
(I0
tS'b'
tRp1944
(I1
(tg8
I00
S'\x8fW\x05='
tbag4
(g5
(I0
tS'b'
tRp1945
(I1
(tg8
I00
S'\xe4\x8a*='
tbag4
(g5
(I0
tS'b'
tRp1946
(I1
(tg8
I00
S'\xd0\x7f\xe0<'
tbag4
(g5
(I0
tS'b'
tRp1947
(I1
(tg8
I00
S'\xe8\xdb\xe6<'
tbag4
(g5
(I0
tS'b'
tRp1948
(I1
(tg8
I00
S'\xbfN\xc1<'
tbag4
(g5
(I0
tS'b'
tRp1949
(I1
(tg8
I00
S'x)#='
tbag4
(g5
(I0
tS'b'
tRp1950
(I1
(tg8
I00
S'5\xeb\xf9<'
tbag4
(g5
(I0
tS'b'
tRp1951
(I1
(tg8
I00
S',\xd0\xb5<'
tbag4
(g5
(I0
tS'b'
tRp1952
(I1
(tg8
I00
S'tc\xee<'
tbag4
(g5
(I0
tS'b'
tRp1953
(I1
(tg8
I00
S'\xd0\x0f\xb5<'
tbag4
(g5
(I0
tS'b'
tRp1954
(I1
(tg8
I00
S'\x9c\xec\xf0<'
tbag4
(g5
(I0
tS'b'
tRp1955
(I1
(tg8
I00
S'\xed\xca\x05='
tbag4
(g5
(I0
tS'b'
tRp1956
(I1
(tg8
I00
S'h\x93\r='
tbag4
(g5
(I0
tS'b'
tRp1957
(I1
(tg8
I00
S'\xe6u&='
tbag4
(g5
(I0
tS'b'
tRp1958
(I1
(tg8
I00
S'\xe7kI='
tbag4
(g5
(I0
tS'b'
tRp1959
(I1
(tg8
I00
S'\xa8\xd2\x06='
tbag4
(g5
(I0
tS'b'
tRp1960
(I1
(tg8
I00
S'*g\x03='
tbag4
(g5
(I0
tS'b'
tRp1961
(I1
(tg8
I00
S'M;\x0c='
tbag4
(g5
(I0
tS'b'
tRp1962
(I1
(tg8
I00
S' M\xc0<'
tbag4
(g5
(I0
tS'b'
tRp1963
(I1
(tg8
I00
S'\xd8\xf9\x03='
tbag4
(g5
(I0
tS'b'
tRp1964
(I1
(tg8
I00
S'}r\xd1<'
tbag4
(g5
(I0
tS'b'
tRp1965
(I1
(tg8
I00
S'\xec\x8a\xfd<'
tbag4
(g5
(I0
tS'b'
tRp1966
(I1
(tg8
I00
S'^l\xe0<'
tbag4
(g5
(I0
tS'b'
tRp1967
(I1
(tg8
I00
S'\xd6v\x92<'
tbag4
(g5
(I0
tS'b'
tRp1968
(I1
(tg8
I00
S'\x01\xdb\xcc<'
tbag4
(g5
(I0
tS'b'
tRp1969
(I1
(tg8
I00
S'\x96\x94\xa5<'
tbag4
(g5
(I0
tS'b'
tRp1970
(I1
(tg8
I00
S'l\x06\x1d='
tbag4
(g5
(I0
tS'b'
tRp1971
(I1
(tg8
I00
S'\xae@h<'
tbag4
(g5
(I0
tS'b'
tRp1972
(I1
(tg8
I00
S'\xd4\xdf&='
tbag4
(g5
(I0
tS'b'
tRp1973
(I1
(tg8
I00
S'\x03\xfa\xa7<'
tbag4
(g5
(I0
tS'b'
tRp1974
(I1
(tg8
I00
S'\x14\x8cR='
tbag4
(g5
(I0
tS'b'
tRp1975
(I1
(tg8
I00
S'\xa0$\xff<'
tbag4
(g5
(I0
tS'b'
tRp1976
(I1
(tg8
I00
S'\xe2\xbb\xef<'
tbag4
(g5
(I0
tS'b'
tRp1977
(I1
(tg8
I00
S'\xbc^\x01='
tbag4
(g5
(I0
tS'b'
tRp1978
(I1
(tg8
I00
S'\xd6\xa7\x0c='
tbag4
(g5
(I0
tS'b'
tRp1979
(I1
(tg8
I00
S'\xb4&\xa8<'
tbag4
(g5
(I0
tS'b'
tRp1980
(I1
(tg8
I00
S'\xce\xab\xf2<'
tbag4
(g5
(I0
tS'b'
tRp1981
(I1
(tg8
I00
S'_\\\xa4<'
tbag4
(g5
(I0
tS'b'
tRp1982
(I1
(tg8
I00
S'0/s='
tbag4
(g5
(I0
tS'b'
tRp1983
(I1
(tg8
I00
S'\xc4\xa2Q<'
tbag4
(g5
(I0
tS'b'
tRp1984
(I1
(tg8
I00
S'\x9d[\x85<'
tbag4
(g5
(I0
tS'b'
tRp1985
(I1
(tg8
I00
S'\xb3\x04\xa4='
tbag4
(g5
(I0
tS'b'
tRp1986
(I1
(tg8
I00
S'\x1a\xcc\x8d<'
tbag4
(g5
(I0
tS'b'
tRp1987
(I1
(tg8
I00
S'f\xc7I='
tbag4
(g5
(I0
tS'b'
tRp1988
(I1
(tg8
I00
S'w\xb1\xd0<'
tbag4
(g5
(I0
tS'b'
tRp1989
(I1
(tg8
I00
S'6g\xbb<'
tbag4
(g5
(I0
tS'b'
tRp1990
(I1
(tg8
I00
S'\xd9<\x00='
tbag4
(g5
(I0
tS'b'
tRp1991
(I1
(tg8
I00
S'\xef\x0b\xf5<'
tbag4
(g5
(I0
tS'b'
tRp1992
(I1
(tg8
I00
S'2i\xf9<'
tbag4
(g5
(I0
tS'b'
tRp1993
(I1
(tg8
I00
S'\x08I\xcd<'
tbag4
(g5
(I0
tS'b'
tRp1994
(I1
(tg8
I00
S'\x88M\x9c<'
tbag4
(g5
(I0
tS'b'
tRp1995
(I1
(tg8
I00
S'\xe6\x11 ='
tbag4
(g5
(I0
tS'b'
tRp1996
(I1
(tg8
I00
S'\xa0\xdf\x8d<'
tbag4
(g5
(I0
tS'b'
tRp1997
(I1
(tg8
I00
S'$\x94\x06='
tbag4
(g5
(I0
tS'b'
tRp1998
(I1
(tg8
I00
S'\x8e\x80\x9b<'
tbag4
(g5
(I0
tS'b'
tRp1999
(I1
(tg8
I00
S'!|\xc8<'
tbag4
(g5
(I0
tS'b'
tRp2000
(I1
(tg8
I00
S'R\x88\xb7<'
tbag4
(g5
(I0
tS'b'
tRp2001
(I1
(tg8
I00
S'\x0cN\x0e='
tbag4
(g5
(I0
tS'b'
tRp2002
(I1
(tg8
I00
S'D\xfe\x98<'
tbag4
(g5
(I0
tS'b'
tRp2003
(I1
(tg8
I00
S'\x80\xba\xcd<'
tbag4
(g5
(I0
tS'b'
tRp2004
(I1
(tg8
I00
S'\xda\r\x10='
tbag4
(g5
(I0
tS'b'
tRp2005
(I1
(tg8
I00
S'\xd0\x1c\xfa<'
tbag4
(g5
(I0
tS'b'
tRp2006
(I1
(tg8
I00
S'\xc4\xd7\xcb<'
tbag4
(g5
(I0
tS'b'
tRp2007
(I1
(tg8
I00
S'\xed\xe4\x07='
tbag4
(g5
(I0
tS'b'
tRp2008
(I1
(tg8
I00
S"\xfc\xe7'="
tbag4
(g5
(I0
tS'b'
tRp2009
(I1
(tg8
I00
S':u\xdc<'
tbag4
(g5
(I0
tS'b'
tRp2010
(I1
(tg8
I00
S'\xcb|\xf2<'
tbag4
(g5
(I0
tS'b'
tRp2011
(I1
(tg8
I00
S'@p\xf4<'
tbag4
(g5
(I0
tS'b'
tRp2012
(I1
(tg8
I00
S'\xb8\xff.='
tbag4
(g5
(I0
tS'b'
tRp2013
(I1
(tg8
I00
S'\xb8n\x00='
tbag4
(g5
(I0
tS'b'
tRp2014
(I1
(tg8
I00
S'u\xa9\xe2<'
tbag4
(g5
(I0
tS'b'
tRp2015
(I1
(tg8
I00
S'\xaf%\xc7<'
tbag4
(g5
(I0
tS'b'
tRp2016
(I1
(tg8
I00
S'\xfb\xa5\xe7<'
tbag4
(g5
(I0
tS'b'
tRp2017
(I1
(tg8
I00
S'{O\x14='
tbag4
(g5
(I0
tS'b'
tRp2018
(I1
(tg8
I00
S'\x9d\xc8q<'
tbag4
(g5
(I0
tS'b'
tRp2019
(I1
(tg8
I00
S'\xd3{T='
tbag4
(g5
(I0
tS'b'
tRp2020
(I1
(tg8
I00
S'\xb233<'
tbag4
(g5
(I0
tS'b'
tRp2021
(I1
(tg8
I00
S'}-\xbf<'
tbag4
(g5
(I0
tS'b'
tRp2022
(I1
(tg8
I00
S'\x88\x93\xb6<'
tbag4
(g5
(I0
tS'b'
tRp2023
(I1
(tg8
I00
S'\xfe\xe7~<'
tbag4
(g5
(I0
tS'b'
tRp2024
(I1
(tg8
I00
S'\xf0\x04\xab='
tbag4
(g5
(I0
tS'b'
tRp2025
(I1
(tg8
I00
S'o\xb5\x8d<'
tbag4
(g5
(I0
tS'b'
tRp2026
(I1
(tg8
I00
S'0\xa1W='
tbag4
(g5
(I0
tS'b'
tRp2027
(I1
(tg8
I00
S'\xc2\xad\x0b='
tbag4
(g5
(I0
tS'b'
tRp2028
(I1
(tg8
I00
S'\xe6\x86\x10='
tbag4
(g5
(I0
tS'b'
tRp2029
(I1
(tg8
I00
S'HD\xdf<'
tbag4
(g5
(I0
tS'b'
tRp2030
(I1
(tg8
I00
S'Z\r,='
tbag4
(g5
(I0
tS'b'
tRp2031
(I1
(tg8
I00
S'\r+\xd9<'
tbag4
(g5
(I0
tS'b'
tRp2032
(I1
(tg8
I00
S'\x89\xb6;='
tbag4
(g5
(I0
tS'b'
tRp2033
(I1
(tg8
I00
S'c>\x1a='
tbag4
(g5
(I0
tS'b'
tRp2034
(I1
(tg8
I00
S'\x07\xe2H='
tbag4
(g5
(I0
tS'b'
tRp2035
(I1
(tg8
I00
S'\xf9\x84\xe0<'
tbag4
(g5
(I0
tS'b'
tRp2036
(I1
(tg8
I00
S"\xa9'\xe2<"
tbag4
(g5
(I0
tS'b'
tRp2037
(I1
(tg8
I00
S'\x95\x14\xe6<'
tbag4
(g5
(I0
tS'b'
tRp2038
(I1
(tg8
I00
S'YG=='
tbag4
(g5
(I0
tS'b'
tRp2039
(I1
(tg8
I00
S'[\x11\xb0<'
tbag4
(g5
(I0
tS'b'
tRp2040
(I1
(tg8
I00
S'hc\xf5<'
tbag4
(g5
(I0
tS'b'
tRp2041
(I1
(tg8
I00
S'\x16\xc0\xcf<'
tbag4
(g5
(I0
tS'b'
tRp2042
(I1
(tg8
I00
S'\x16\xd4\x94<'
tbag4
(g5
(I0
tS'b'
tRp2043
(I1
(tg8
I00
S'\xb3\xb6\x17='
tbag4
(g5
(I0
tS'b'
tRp2044
(I1
(tg8
I00
S'\xac\x9c\xb7<'
tbag4
(g5
(I0
tS'b'
tRp2045
(I1
(tg8
I00
S'H\x8e\xe6<'
tbag4
(g5
(I0
tS'b'
tRp2046
(I1
(tg8
I00
S'\xfa)\xce<'
tbag4
(g5
(I0
tS'b'
tRp2047
(I1
(tg8
I00
S'c\xbb\xeb<'
tbag4
(g5
(I0
tS'b'
tRp2048
(I1
(tg8
I00
S'\xba\x8a\xb2<'
tbag4
(g5
(I0
tS'b'
tRp2049
(I1
(tg8
I00
S'\xf1\\\x11='
tbag4
(g5
(I0
tS'b'
tRp2050
(I1
(tg8
I00
S'I\xc9\x15='
tbag4
(g5
(I0
tS'b'
tRp2051
(I1
(tg8
I00
S'\xa8\x90\x0f='
tbag4
(g5
(I0
tS'b'
tRp2052
(I1
(tg8
I00
S'\xa3\x1f ='
tbag4
(g5
(I0
tS'b'
tRp2053
(I1
(tg8
I00
S'0<\xbf<'
tbag4
(g5
(I0
tS'b'
tRp2054
(I1
(tg8
I00
S'\xcc3,='
tbag4
(g5
(I0
tS'b'
tRp2055
(I1
(tg8
I00
S'\x04\xe6\x93<'
tbag4
(g5
(I0
tS'b'
tRp2056
(I1
(tg8
I00
S'\x9dw\x15='
tbag4
(g5
(I0
tS'b'
tRp2057
(I1
(tg8
I00
S'\xb8.\x05='
tbag4
(g5
(I0
tS'b'
tRp2058
(I1
(tg8
I00
S'\xf8\x8e\xf4<'
tbag4
(g5
(I0
tS'b'
tRp2059
(I1
(tg8
I00
S'Tv\x19='
tbag4
(g5
(I0
tS'b'
tRp2060
(I1
(tg8
I00
S'\xccn\x17='
tbag4
(g5
(I0
tS'b'
tRp2061
(I1
(tg8
I00
S'\x9eg\x0e='
tbag4
(g5
(I0
tS'b'
tRp2062
(I1
(tg8
I00
S'\x03\x97\x9f<'
tbag4
(g5
(I0
tS'b'
tRp2063
(I1
(tg8
I00
S',\x1c\xdf<'
tbasS'val_acc'
p2064
(lp2065
cnumpy.core.multiarray
scalar
p2066
(g7
(S'f8'
I0
I1
tRp2067
(I3
S'<'
NNNI-1
I-1
I0
tbS'\x00\x00\x00`UU\xed?'
tRp2068
ag2066
(g2067
S'\xfe\xd4xI\x90\xa4\xe8?'
tRp2069
ag2066
(g2067
S'W\xec/{\x1a\n\xee?'
tRp2070
ag2066
(g2067
S'\x9e\xef\xa7\xe6\xc8\xdd\xee?'
tRp2071
ag2066
(g2067
S'6<\xbd\x92\xae\x99\xee?'
tRp2072
ag2066
(g2067
S'\xe1z\x14\xce\x85$\xef?'
tRp2073
ag2066
(g2067
S'n4\x80\x17\xbc\xe8\xee?'
tRp2074
ag2066
(g2067
S'\x9e\xef\xa7F\x82\x03\xef?'
tRp2075
ag2066
(g2067
S'\x901wmJf\xef?'
tRp2076
ag2066
(g2067
S'\xcc\xee\xc9\x03\x1fp\xef?'
tRp2077
ag2066
(g2067
S'\xa1\xd64\xcf\xfcj\xef?'
tRp2078
ag2066
(g2067
S'7\x89A\x00|]\xef?'
tRp2079
ag2066
(g2067
S'\x95e\x88c\xa7\xb2\xef?'
tRp2080
asS'val_loss'
p2081
(lp2082
g2066
(g2067
S'"\xfd\xf6\xb5\xa1b\xd8?'
tRp2083
ag2066
(g2067
S'c\xeeZ\xc2\xfa\xd7\xf2?'
tRp2084
ag2066
(g2067
S'$\xb9\xfc\xc7\x1b\x87\xd1?'
tRp2085
ag2066
(g2067
S'\xb3\x0cq\xac\xdcJ\xbb?'
tRp2086
ag2066
(g2067
S'Nb\x10\x98\\m\xc5?'
tRp2087
ag2066
(g2067
S'?W[\xb1g\x99\xb5?'
tRp2088
ag2066
(g2067
S'\xaa\xf1\xd2M#\xbb\xbd?'
tRp2089
ag2066
(g2067
S'\xe9&1\xc85T\xb8?'
tRp2090
ag2066
(g2067
S'x\x9c\xa2#\xa6\xa1\xab?'
tRp2091
ag2066
(g2067
S'\xb4Y\xf5\xb9\xae\x07\xac?'
tRp2092
ag2066
(g2067
S'6\xcd;\x0eB\x98\xac?'
tRp2093
ag2066
(g2067
S'\x86\xc9T\x81$\xa3\xb3?'
tRp2094
ag2066
(g2067
S'?5^z$a\x9d?'
tRp2095
as.